In archive libz.a:

adler32.o:     file format elf64-x86-64


Disassembly of section .text:

0000000000000000 <adler32>:
   0:	55                   	push   %rbp
   1:	48 89 e5             	mov    %rsp,%rbp
   4:	89 d2                	mov    %edx,%edx
   6:	e8 00 00 00 00       	callq  b <adler32+0xb>
   b:	c9                   	leaveq 
   c:	c3                   	retq   
   d:	0f 1f 00             	nopl   (%rax)

0000000000000010 <adler32_z>:
  10:	55                   	push   %rbp
  11:	48 89 e5             	mov    %rsp,%rbp
  14:	48 83 ec 40          	sub    $0x40,%rsp
  18:	0f b7 cf             	movzwl %di,%ecx
  1b:	b8 00 00 ff ff       	mov    $0xffff0000,%eax
  20:	48 21 c7             	and    %rax,%rdi
  23:	48 c1 ef 10          	shr    $0x10,%rdi
  27:	48 83 fa 01          	cmp    $0x1,%rdx
  2b:	74 0c                	je     39 <adler32_z+0x29>
  2d:	48 85 f6             	test   %rsi,%rsi
  30:	75 38                	jne    6a <adler32_z+0x5a>
  32:	b8 01 00 00 00       	mov    $0x1,%eax
  37:	c9                   	leaveq 
  38:	c3                   	retq   
  39:	0f b6 06             	movzbl (%rsi),%eax
  3c:	48 01 c8             	add    %rcx,%rax
  3f:	48 3d f0 ff 00 00    	cmp    $0xfff0,%rax
  45:	76 06                	jbe    4d <adler32_z+0x3d>
  47:	48 05 0f 00 ff ff    	add    $0xffffffffffff000f,%rax
  4d:	48 8d 0c 38          	lea    (%rax,%rdi,1),%rcx
  51:	48 81 f9 f0 ff 00 00 	cmp    $0xfff0,%rcx
  58:	76 07                	jbe    61 <adler32_z+0x51>
  5a:	48 81 c1 0f 00 ff ff 	add    $0xffffffffffff000f,%rcx
  61:	48 c1 e1 10          	shl    $0x10,%rcx
  65:	48 09 c8             	or     %rcx,%rax
  68:	c9                   	leaveq 
  69:	c3                   	retq   
  6a:	41 b8 f1 ff 00 00    	mov    $0xfff1,%r8d
  70:	48 83 fa 0f          	cmp    $0xf,%rdx
  74:	76 2f                	jbe    a5 <adler32_z+0x95>
  76:	b8 5b 01 00 00       	mov    $0x15b,%eax
  7b:	48 89 5d f0          	mov    %rbx,-0x10(%rbp)
  7f:	4c 89 65 e8          	mov    %r12,-0x18(%rbp)
  83:	4c 89 6d e0          	mov    %r13,-0x20(%rbp)
  87:	4c 89 75 d8          	mov    %r14,-0x28(%rbp)
  8b:	4c 89 7d d0          	mov    %r15,-0x30(%rbp)
  8f:	e9 3a 01 00 00       	jmpq   1ce <adler32_z+0x1be>
  94:	0f b6 06             	movzbl (%rsi),%eax
  97:	48 01 c1             	add    %rax,%rcx
  9a:	48 01 cf             	add    %rcx,%rdi
  9d:	48 83 c6 01          	add    $0x1,%rsi
  a1:	48 83 c2 ff          	add    $0xffffffffffffffff,%rdx
  a5:	48 85 d2             	test   %rdx,%rdx
  a8:	75 ea                	jne    94 <adler32_z+0x84>
  aa:	48 81 f9 f0 ff 00 00 	cmp    $0xfff0,%rcx
  b1:	76 07                	jbe    ba <adler32_z+0xaa>
  b3:	48 81 c1 0f 00 ff ff 	add    $0xffffffffffff000f,%rcx
  ba:	48 89 f8             	mov    %rdi,%rax
  bd:	31 d2                	xor    %edx,%edx
  bf:	49 f7 f0             	div    %r8
  c2:	48 c1 e2 10          	shl    $0x10,%rdx
  c6:	48 09 d1             	or     %rdx,%rcx
  c9:	48 89 c8             	mov    %rcx,%rax
  cc:	c9                   	leaveq 
  cd:	c3                   	retq   
  ce:	48 89 55 c8          	mov    %rdx,-0x38(%rbp)
  d2:	48 89 45 c0          	mov    %rax,-0x40(%rbp)
  d6:	0f b6 06             	movzbl (%rsi),%eax
  d9:	4c 8d 0c 01          	lea    (%rcx,%rax,1),%r9
  dd:	0f b6 46 01          	movzbl 0x1(%rsi),%eax
  e1:	4e 8d 04 08          	lea    (%rax,%r9,1),%r8
  e5:	0f b6 46 02          	movzbl 0x2(%rsi),%eax
  e9:	4a 8d 1c 00          	lea    (%rax,%r8,1),%rbx
  ed:	0f b6 46 03          	movzbl 0x3(%rsi),%eax
  f1:	48 8d 14 18          	lea    (%rax,%rbx,1),%rdx
  f5:	0f b6 4e 04          	movzbl 0x4(%rsi),%ecx
  f9:	48 8d 04 51          	lea    (%rcx,%rdx,2),%rax
  fd:	48 01 d8             	add    %rbx,%rax
 100:	4c 01 c0             	add    %r8,%rax
 103:	4c 01 c8             	add    %r9,%rax
 106:	48 01 d1             	add    %rdx,%rcx
 109:	0f b6 56 05          	movzbl 0x5(%rsi),%edx
 10d:	4c 8d 3c 0a          	lea    (%rdx,%rcx,1),%r15
 111:	0f b6 4e 06          	movzbl 0x6(%rsi),%ecx
 115:	4e 8d 34 39          	lea    (%rcx,%r15,1),%r14
 119:	0f b6 4e 07          	movzbl 0x7(%rsi),%ecx
 11d:	4e 8d 2c 31          	lea    (%rcx,%r14,1),%r13
 121:	0f b6 4e 08          	movzbl 0x8(%rsi),%ecx
 125:	4e 8d 24 29          	lea    (%rcx,%r13,1),%r12
 129:	0f b6 4e 09          	movzbl 0x9(%rsi),%ecx
 12d:	4e 8d 1c 21          	lea    (%rcx,%r12,1),%r11
 131:	0f b6 4e 0a          	movzbl 0xa(%rsi),%ecx
 135:	4e 8d 14 19          	lea    (%rcx,%r11,1),%r10
 139:	0f b6 4e 0b          	movzbl 0xb(%rsi),%ecx
 13d:	4e 8d 0c 11          	lea    (%rcx,%r10,1),%r9
 141:	0f b6 4e 0c          	movzbl 0xc(%rsi),%ecx
 145:	4e 8d 04 09          	lea    (%rcx,%r9,1),%r8
 149:	0f b6 4e 0d          	movzbl 0xd(%rsi),%ecx
 14d:	4a 8d 1c 01          	lea    (%rcx,%r8,1),%rbx
 151:	0f b6 4e 0e          	movzbl 0xe(%rsi),%ecx
 155:	48 8d 14 19          	lea    (%rcx,%rbx,1),%rdx
 159:	0f b6 4e 0f          	movzbl 0xf(%rsi),%ecx
 15d:	48 01 d1             	add    %rdx,%rcx
 160:	48 01 c8             	add    %rcx,%rax
 163:	48 01 d0             	add    %rdx,%rax
 166:	48 01 f8             	add    %rdi,%rax
 169:	48 01 d8             	add    %rbx,%rax
 16c:	4c 01 c0             	add    %r8,%rax
 16f:	4c 01 c8             	add    %r9,%rax
 172:	4c 01 d0             	add    %r10,%rax
 175:	4c 01 d8             	add    %r11,%rax
 178:	4c 01 e0             	add    %r12,%rax
 17b:	4c 01 e8             	add    %r13,%rax
 17e:	4c 01 f0             	add    %r14,%rax
 181:	4a 8d 3c 38          	lea    (%rax,%r15,1),%rdi
 185:	48 83 c6 10          	add    $0x10,%rsi
 189:	48 8b 45 c0          	mov    -0x40(%rbp),%rax
 18d:	83 c0 ff             	add    $0xffffffff,%eax
 190:	85 c0                	test   %eax,%eax
 192:	0f 85 3a ff ff ff    	jne    d2 <adler32_z+0xc2>
 198:	48 89 c8             	mov    %rcx,%rax
 19b:	31 db                	xor    %ebx,%ebx
 19d:	48 89 da             	mov    %rbx,%rdx
 1a0:	41 b8 f1 ff 00 00    	mov    $0xfff1,%r8d
 1a6:	49 f7 f0             	div    %r8
 1a9:	48 89 f8             	mov    %rdi,%rax
 1ac:	48 89 d1             	mov    %rdx,%rcx
 1af:	48 89 da             	mov    %rbx,%rdx
 1b2:	49 f7 f0             	div    %r8
 1b5:	48 8b 45 c8          	mov    -0x38(%rbp),%rax
 1b9:	48 8d b8 50 ea ff ff 	lea    -0x15b0(%rax),%rdi
 1c0:	48 89 f8             	mov    %rdi,%rax
 1c3:	48 89 d7             	mov    %rdx,%rdi
 1c6:	48 89 c2             	mov    %rax,%rdx
 1c9:	b8 5b 01 00 00       	mov    $0x15b,%eax
 1ce:	48 81 fa af 15 00 00 	cmp    $0x15af,%rdx
 1d5:	0f 87 f3 fe ff ff    	ja     ce <adler32_z+0xbe>
 1db:	48 85 d2             	test   %rdx,%rdx
 1de:	0f 85 ef 00 00 00    	jne    2d3 <adler32_z+0x2c3>
 1e4:	48 c1 e7 10          	shl    $0x10,%rdi
 1e8:	48 09 f9             	or     %rdi,%rcx
 1eb:	48 89 c8             	mov    %rcx,%rax
 1ee:	4c 8b 7d d0          	mov    -0x30(%rbp),%r15
 1f2:	4c 8b 75 d8          	mov    -0x28(%rbp),%r14
 1f6:	4c 8b 6d e0          	mov    -0x20(%rbp),%r13
 1fa:	4c 8b 65 e8          	mov    -0x18(%rbp),%r12
 1fe:	48 8b 5d f0          	mov    -0x10(%rbp),%rbx
 202:	c9                   	leaveq 
 203:	c3                   	retq   
 204:	48 8d 46 10          	lea    0x10(%rsi),%rax
 208:	48 89 45 c8          	mov    %rax,-0x38(%rbp)
 20c:	0f b6 06             	movzbl (%rsi),%eax
 20f:	4c 8d 3c 01          	lea    (%rcx,%rax,1),%r15
 213:	0f b6 46 01          	movzbl 0x1(%rsi),%eax
 217:	4c 01 f8             	add    %r15,%rax
 21a:	0f b6 4e 02          	movzbl 0x2(%rsi),%ecx
 21e:	4c 8d 34 01          	lea    (%rcx,%rax,1),%r14
 222:	0f b6 4e 03          	movzbl 0x3(%rsi),%ecx
 226:	4e 8d 2c 31          	lea    (%rcx,%r14,1),%r13
 22a:	0f b6 4e 04          	movzbl 0x4(%rsi),%ecx
 22e:	4a 8d 1c 29          	lea    (%rcx,%r13,1),%rbx
 232:	0f b6 4e 05          	movzbl 0x5(%rsi),%ecx
 236:	48 01 d9             	add    %rbx,%rcx
 239:	48 89 4d f8          	mov    %rcx,-0x8(%rbp)
 23d:	44 0f b6 46 06       	movzbl 0x6(%rsi),%r8d
 242:	4d 8d 24 08          	lea    (%r8,%rcx,1),%r12
 246:	0f b6 4e 07          	movzbl 0x7(%rsi),%ecx
 24a:	4e 8d 1c 21          	lea    (%rcx,%r12,1),%r11
 24e:	0f b6 4e 08          	movzbl 0x8(%rsi),%ecx
 252:	4c 01 d9             	add    %r11,%rcx
 255:	44 0f b6 46 09       	movzbl 0x9(%rsi),%r8d
 25a:	4d 8d 14 08          	lea    (%r8,%rcx,1),%r10
 25e:	44 0f b6 46 0a       	movzbl 0xa(%rsi),%r8d
 263:	4f 8d 0c 10          	lea    (%r8,%r10,1),%r9
 267:	48 89 55 c0          	mov    %rdx,-0x40(%rbp)
 26b:	0f b6 56 0b          	movzbl 0xb(%rsi),%edx
 26f:	4e 8d 04 0a          	lea    (%rdx,%r9,1),%r8
 273:	0f b6 56 0c          	movzbl 0xc(%rsi),%edx
 277:	4c 01 c2             	add    %r8,%rdx
 27a:	48 01 d0             	add    %rdx,%rax
 27d:	48 01 c8             	add    %rcx,%rax
 280:	4c 01 f8             	add    %r15,%rax
 283:	48 01 d8             	add    %rbx,%rax
 286:	0f b6 4e 0d          	movzbl 0xd(%rsi),%ecx
 28a:	48 8d 1c 11          	lea    (%rcx,%rdx,1),%rbx
 28e:	0f b6 4e 0e          	movzbl 0xe(%rsi),%ecx
 292:	48 8d 14 19          	lea    (%rcx,%rbx,1),%rdx
 296:	0f b6 4e 0f          	movzbl 0xf(%rsi),%ecx
 29a:	48 01 d1             	add    %rdx,%rcx
 29d:	48 01 c8             	add    %rcx,%rax
 2a0:	48 01 f8             	add    %rdi,%rax
 2a3:	4c 01 c0             	add    %r8,%rax
 2a6:	4c 01 d8             	add    %r11,%rax
 2a9:	4c 01 e8             	add    %r13,%rax
 2ac:	48 01 d0             	add    %rdx,%rax
 2af:	4c 01 c8             	add    %r9,%rax
 2b2:	4c 01 e0             	add    %r12,%rax
 2b5:	4c 01 f0             	add    %r14,%rax
 2b8:	48 01 d8             	add    %rbx,%rax
 2bb:	49 8d 14 02          	lea    (%r10,%rax,1),%rdx
 2bf:	48 8b 45 f8          	mov    -0x8(%rbp),%rax
 2c3:	48 8d 3c 10          	lea    (%rax,%rdx,1),%rdi
 2c7:	48 8b 45 c0          	mov    -0x40(%rbp),%rax
 2cb:	48 8d 50 f0          	lea    -0x10(%rax),%rdx
 2cf:	48 8b 75 c8          	mov    -0x38(%rbp),%rsi
 2d3:	48 83 fa 0f          	cmp    $0xf,%rdx
 2d7:	0f 87 27 ff ff ff    	ja     204 <adler32_z+0x1f4>
 2dd:	eb 11                	jmp    2f0 <adler32_z+0x2e0>
 2df:	0f b6 06             	movzbl (%rsi),%eax
 2e2:	48 01 c1             	add    %rax,%rcx
 2e5:	48 01 cf             	add    %rcx,%rdi
 2e8:	48 83 c6 01          	add    $0x1,%rsi
 2ec:	48 83 c2 ff          	add    $0xffffffffffffffff,%rdx
 2f0:	48 85 d2             	test   %rdx,%rdx
 2f3:	75 ea                	jne    2df <adler32_z+0x2cf>
 2f5:	48 89 c8             	mov    %rcx,%rax
 2f8:	31 f6                	xor    %esi,%esi
 2fa:	48 89 f2             	mov    %rsi,%rdx
 2fd:	bb f1 ff 00 00       	mov    $0xfff1,%ebx
 302:	48 f7 f3             	div    %rbx
 305:	48 89 f8             	mov    %rdi,%rax
 308:	48 89 d1             	mov    %rdx,%rcx
 30b:	48 89 f2             	mov    %rsi,%rdx
 30e:	48 f7 f3             	div    %rbx
 311:	48 89 d7             	mov    %rdx,%rdi
 314:	e9 cb fe ff ff       	jmpq   1e4 <adler32_z+0x1d4>
 319:	0f 1f 80 00 00 00 00 	nopl   0x0(%rax)

0000000000000320 <adler32_combine64>:
 320:	55                   	push   %rbp
 321:	48 89 e5             	mov    %rsp,%rbp
 324:	e8 17 00 00 00       	callq  340 <adler32_combine_>
 329:	c9                   	leaveq 
 32a:	c3                   	retq   
 32b:	0f 1f 44 00 00       	nopl   0x0(%rax,%rax,1)

0000000000000330 <adler32_combine>:
 330:	55                   	push   %rbp
 331:	48 89 e5             	mov    %rsp,%rbp
 334:	e8 07 00 00 00       	callq  340 <adler32_combine_>
 339:	c9                   	leaveq 
 33a:	c3                   	retq   
 33b:	0f 1f 44 00 00       	nopl   0x0(%rax,%rax,1)

0000000000000340 <adler32_combine_>:
 340:	55                   	push   %rbp
 341:	48 89 e5             	mov    %rsp,%rbp
 344:	48 85 d2             	test   %rdx,%rdx
 347:	79 07                	jns    350 <adler32_combine_+0x10>
 349:	b8 ff ff ff ff       	mov    $0xffffffff,%eax
 34e:	c9                   	leaveq 
 34f:	c3                   	retq   
 350:	0f b7 c6             	movzwl %si,%eax
 353:	44 0f b7 c7          	movzwl %di,%r8d
 357:	4a 8d 8c 00 f0 ff 00 	lea    0xfff0(%rax,%r8,1),%rcx
 35e:	00 
 35f:	48 81 f9 f0 ff 00 00 	cmp    $0xfff0,%rcx
 366:	76 05                	jbe    36d <adler32_combine_+0x2d>
 368:	4a 8d 4c 00 ff       	lea    -0x1(%rax,%r8,1),%rcx
 36d:	48 81 f9 f0 ff 00 00 	cmp    $0xfff0,%rcx
 374:	76 07                	jbe    37d <adler32_combine_+0x3d>
 376:	48 81 c1 0f 00 ff ff 	add    $0xffffffffffff000f,%rcx
 37d:	b8 00 00 ff ff       	mov    $0xffff0000,%eax
 382:	48 21 c7             	and    %rax,%rdi
 385:	48 c1 ef 10          	shr    $0x10,%rdi
 389:	48 21 c6             	and    %rax,%rsi
 38c:	48 c1 ee 10          	shr    $0x10,%rsi
 390:	48 8d b4 37 f1 ff 00 	lea    0xfff1(%rdi,%rsi,1),%rsi
 397:	00 
 398:	48 89 d0             	mov    %rdx,%rax
 39b:	bf f1 ff 00 00       	mov    $0xfff1,%edi
 3a0:	48 99                	cqto   
 3a2:	48 f7 ff             	idiv   %rdi
 3a5:	89 d0                	mov    %edx,%eax
 3a7:	48 29 c6             	sub    %rax,%rsi
 3aa:	4c 0f af c0          	imul   %rax,%r8
 3ae:	4c 89 c0             	mov    %r8,%rax
 3b1:	31 d2                	xor    %edx,%edx
 3b3:	48 f7 f7             	div    %rdi
 3b6:	48 8d 04 16          	lea    (%rsi,%rdx,1),%rax
 3ba:	48 3d e1 ff 01 00    	cmp    $0x1ffe1,%rax
 3c0:	76 06                	jbe    3c8 <adler32_combine_+0x88>
 3c2:	48 05 1e 00 fe ff    	add    $0xfffffffffffe001e,%rax
 3c8:	48 3d f0 ff 00 00    	cmp    $0xfff0,%rax
 3ce:	76 06                	jbe    3d6 <adler32_combine_+0x96>
 3d0:	48 05 0f 00 ff ff    	add    $0xffffffffffff000f,%rax
 3d6:	48 c1 e0 10          	shl    $0x10,%rax
 3da:	48 09 c1             	or     %rax,%rcx
 3dd:	48 89 c8             	mov    %rcx,%rax
 3e0:	c9                   	leaveq 
 3e1:	c3                   	retq   

crc32.o:     file format elf64-x86-64


Disassembly of section .text:

0000000000000000 <crc32>:
   0:	55                   	push   %rbp
   1:	48 89 e5             	mov    %rsp,%rbp
   4:	89 d2                	mov    %edx,%edx
   6:	e8 00 00 00 00       	callq  b <crc32+0xb>
   b:	c9                   	leaveq 
   c:	c3                   	retq   
   d:	0f 1f 00             	nopl   (%rax)

0000000000000010 <crc32_z>:
  10:	55                   	push   %rbp
  11:	48 89 e5             	mov    %rsp,%rbp
  14:	48 85 f6             	test   %rsi,%rsi
  17:	75 04                	jne    1d <crc32_z+0xd>
  19:	31 c0                	xor    %eax,%eax
  1b:	c9                   	leaveq 
  1c:	c3                   	retq   
  1d:	e8 3e 00 00 00       	callq  60 <crc32_little>
  22:	c9                   	leaveq 
  23:	c3                   	retq   
  24:	66 66 2e 0f 1f 84 00 	data16 nopw %cs:0x0(%rax,%rax,1)
  2b:	00 00 00 00 
  2f:	90                   	nop

0000000000000030 <crc32_combine64>:
  30:	55                   	push   %rbp
  31:	48 89 e5             	mov    %rsp,%rbp
  34:	e8 b7 03 00 00       	callq  3f0 <crc32_combine_>
  39:	c9                   	leaveq 
  3a:	c3                   	retq   
  3b:	0f 1f 44 00 00       	nopl   0x0(%rax,%rax,1)

0000000000000040 <crc32_combine>:
  40:	55                   	push   %rbp
  41:	48 89 e5             	mov    %rsp,%rbp
  44:	e8 a7 03 00 00       	callq  3f0 <crc32_combine_>
  49:	c9                   	leaveq 
  4a:	c3                   	retq   
  4b:	0f 1f 44 00 00       	nopl   0x0(%rax,%rax,1)

0000000000000050 <get_crc_table>:
  50:	55                   	push   %rbp
  51:	48 89 e5             	mov    %rsp,%rbp
  54:	48 8d 05 00 00 00 00 	lea    0x0(%rip),%rax        # 5b <get_crc_table+0xb>
  5b:	c9                   	leaveq 
  5c:	c3                   	retq   
  5d:	0f 1f 00             	nopl   (%rax)

0000000000000060 <crc32_little>:
  60:	55                   	push   %rbp
  61:	48 89 e5             	mov    %rsp,%rbp
  64:	f7 d7                	not    %edi
  66:	4c 8d 05 00 00 00 00 	lea    0x0(%rip),%r8        # 6d <crc32_little+0xd>
  6d:	eb 29                	jmp    98 <crc32_little+0x38>
  6f:	48 89 f0             	mov    %rsi,%rax
  72:	48 83 e0 03          	and    $0x3,%rax
  76:	48 85 c0             	test   %rax,%rax
  79:	0f 8e 52 02 00 00    	jle    2d1 <crc32_little+0x271>
  7f:	0f b6 06             	movzbl (%rsi),%eax
  82:	31 f8                	xor    %edi,%eax
  84:	0f b6 c0             	movzbl %al,%eax
  87:	89 c0                	mov    %eax,%eax
  89:	c1 ef 08             	shr    $0x8,%edi
  8c:	41 33 3c 80          	xor    (%r8,%rax,4),%edi
  90:	48 83 c6 01          	add    $0x1,%rsi
  94:	48 83 c2 ff          	add    $0xffffffffffffffff,%rdx
  98:	48 85 d2             	test   %rdx,%rdx
  9b:	75 d2                	jne    6f <crc32_little+0xf>
  9d:	31 d2                	xor    %edx,%edx
  9f:	e9 2d 02 00 00       	jmpq   2d1 <crc32_little+0x271>
  a4:	33 3e                	xor    (%rsi),%edi
  a6:	40 0f b6 c7          	movzbl %dil,%eax
  aa:	89 c1                	mov    %eax,%ecx
  ac:	48 89 f8             	mov    %rdi,%rax
  af:	25 00 ff 00 00       	and    $0xff00,%eax
  b4:	c1 e8 08             	shr    $0x8,%eax
  b7:	89 c0                	mov    %eax,%eax
  b9:	41 8b 84 80 00 08 00 	mov    0x800(%r8,%rax,4),%eax
  c0:	00 
  c1:	41 33 84 88 00 0c 00 	xor    0xc00(%r8,%rcx,4),%eax
  c8:	00 
  c9:	48 89 f9             	mov    %rdi,%rcx
  cc:	81 e1 00 00 ff 00    	and    $0xff0000,%ecx
  d2:	c1 e9 10             	shr    $0x10,%ecx
  d5:	89 c9                	mov    %ecx,%ecx
  d7:	41 33 84 88 00 04 00 	xor    0x400(%r8,%rcx,4),%eax
  de:	00 
  df:	c1 ef 18             	shr    $0x18,%edi
  e2:	89 f9                	mov    %edi,%ecx
  e4:	41 33 04 88          	xor    (%r8,%rcx,4),%eax
  e8:	33 46 04             	xor    0x4(%rsi),%eax
  eb:	0f b6 c8             	movzbl %al,%ecx
  ee:	89 cf                	mov    %ecx,%edi
  f0:	48 89 c1             	mov    %rax,%rcx
  f3:	81 e1 00 ff 00 00    	and    $0xff00,%ecx
  f9:	c1 e9 08             	shr    $0x8,%ecx
  fc:	89 c9                	mov    %ecx,%ecx
  fe:	41 8b 8c 88 00 08 00 	mov    0x800(%r8,%rcx,4),%ecx
 105:	00 
 106:	41 33 8c b8 00 0c 00 	xor    0xc00(%r8,%rdi,4),%ecx
 10d:	00 
 10e:	48 89 c7             	mov    %rax,%rdi
 111:	81 e7 00 00 ff 00    	and    $0xff0000,%edi
 117:	c1 ef 10             	shr    $0x10,%edi
 11a:	89 ff                	mov    %edi,%edi
 11c:	41 33 8c b8 00 04 00 	xor    0x400(%r8,%rdi,4),%ecx
 123:	00 
 124:	c1 e8 18             	shr    $0x18,%eax
 127:	89 c0                	mov    %eax,%eax
 129:	41 33 0c 80          	xor    (%r8,%rax,4),%ecx
 12d:	33 4e 08             	xor    0x8(%rsi),%ecx
 130:	0f b6 c1             	movzbl %cl,%eax
 133:	89 c7                	mov    %eax,%edi
 135:	48 89 c8             	mov    %rcx,%rax
 138:	25 00 ff 00 00       	and    $0xff00,%eax
 13d:	c1 e8 08             	shr    $0x8,%eax
 140:	89 c0                	mov    %eax,%eax
 142:	41 8b 84 80 00 08 00 	mov    0x800(%r8,%rax,4),%eax
 149:	00 
 14a:	41 33 84 b8 00 0c 00 	xor    0xc00(%r8,%rdi,4),%eax
 151:	00 
 152:	48 89 cf             	mov    %rcx,%rdi
 155:	81 e7 00 00 ff 00    	and    $0xff0000,%edi
 15b:	c1 ef 10             	shr    $0x10,%edi
 15e:	89 ff                	mov    %edi,%edi
 160:	41 33 84 b8 00 04 00 	xor    0x400(%r8,%rdi,4),%eax
 167:	00 
 168:	c1 e9 18             	shr    $0x18,%ecx
 16b:	89 c9                	mov    %ecx,%ecx
 16d:	41 33 04 88          	xor    (%r8,%rcx,4),%eax
 171:	33 46 0c             	xor    0xc(%rsi),%eax
 174:	0f b6 c8             	movzbl %al,%ecx
 177:	89 cf                	mov    %ecx,%edi
 179:	48 89 c1             	mov    %rax,%rcx
 17c:	81 e1 00 ff 00 00    	and    $0xff00,%ecx
 182:	c1 e9 08             	shr    $0x8,%ecx
 185:	89 c9                	mov    %ecx,%ecx
 187:	41 8b 8c 88 00 08 00 	mov    0x800(%r8,%rcx,4),%ecx
 18e:	00 
 18f:	41 33 8c b8 00 0c 00 	xor    0xc00(%r8,%rdi,4),%ecx
 196:	00 
 197:	48 89 c7             	mov    %rax,%rdi
 19a:	81 e7 00 00 ff 00    	and    $0xff0000,%edi
 1a0:	c1 ef 10             	shr    $0x10,%edi
 1a3:	89 ff                	mov    %edi,%edi
 1a5:	41 33 8c b8 00 04 00 	xor    0x400(%r8,%rdi,4),%ecx
 1ac:	00 
 1ad:	c1 e8 18             	shr    $0x18,%eax
 1b0:	89 c0                	mov    %eax,%eax
 1b2:	41 33 0c 80          	xor    (%r8,%rax,4),%ecx
 1b6:	33 4e 10             	xor    0x10(%rsi),%ecx
 1b9:	0f b6 c1             	movzbl %cl,%eax
 1bc:	89 c7                	mov    %eax,%edi
 1be:	48 89 c8             	mov    %rcx,%rax
 1c1:	25 00 ff 00 00       	and    $0xff00,%eax
 1c6:	c1 e8 08             	shr    $0x8,%eax
 1c9:	89 c0                	mov    %eax,%eax
 1cb:	41 8b 84 80 00 08 00 	mov    0x800(%r8,%rax,4),%eax
 1d2:	00 
 1d3:	41 33 84 b8 00 0c 00 	xor    0xc00(%r8,%rdi,4),%eax
 1da:	00 
 1db:	48 89 cf             	mov    %rcx,%rdi
 1de:	81 e7 00 00 ff 00    	and    $0xff0000,%edi
 1e4:	c1 ef 10             	shr    $0x10,%edi
 1e7:	89 ff                	mov    %edi,%edi
 1e9:	41 33 84 b8 00 04 00 	xor    0x400(%r8,%rdi,4),%eax
 1f0:	00 
 1f1:	c1 e9 18             	shr    $0x18,%ecx
 1f4:	89 c9                	mov    %ecx,%ecx
 1f6:	41 33 04 88          	xor    (%r8,%rcx,4),%eax
 1fa:	33 46 14             	xor    0x14(%rsi),%eax
 1fd:	0f b6 c8             	movzbl %al,%ecx
 200:	89 cf                	mov    %ecx,%edi
 202:	48 89 c1             	mov    %rax,%rcx
 205:	81 e1 00 ff 00 00    	and    $0xff00,%ecx
 20b:	c1 e9 08             	shr    $0x8,%ecx
 20e:	89 c9                	mov    %ecx,%ecx
 210:	41 8b 8c 88 00 08 00 	mov    0x800(%r8,%rcx,4),%ecx
 217:	00 
 218:	41 33 8c b8 00 0c 00 	xor    0xc00(%r8,%rdi,4),%ecx
 21f:	00 
 220:	48 89 c7             	mov    %rax,%rdi
 223:	81 e7 00 00 ff 00    	and    $0xff0000,%edi
 229:	c1 ef 10             	shr    $0x10,%edi
 22c:	89 ff                	mov    %edi,%edi
 22e:	41 33 8c b8 00 04 00 	xor    0x400(%r8,%rdi,4),%ecx
 235:	00 
 236:	c1 e8 18             	shr    $0x18,%eax
 239:	89 c0                	mov    %eax,%eax
 23b:	41 33 0c 80          	xor    (%r8,%rax,4),%ecx
 23f:	33 4e 18             	xor    0x18(%rsi),%ecx
 242:	0f b6 c1             	movzbl %cl,%eax
 245:	89 c7                	mov    %eax,%edi
 247:	48 89 c8             	mov    %rcx,%rax
 24a:	25 00 ff 00 00       	and    $0xff00,%eax
 24f:	c1 e8 08             	shr    $0x8,%eax
 252:	89 c0                	mov    %eax,%eax
 254:	41 8b 84 80 00 08 00 	mov    0x800(%r8,%rax,4),%eax
 25b:	00 
 25c:	41 33 84 b8 00 0c 00 	xor    0xc00(%r8,%rdi,4),%eax
 263:	00 
 264:	48 89 cf             	mov    %rcx,%rdi
 267:	81 e7 00 00 ff 00    	and    $0xff0000,%edi
 26d:	c1 ef 10             	shr    $0x10,%edi
 270:	89 ff                	mov    %edi,%edi
 272:	41 33 84 b8 00 04 00 	xor    0x400(%r8,%rdi,4),%eax
 279:	00 
 27a:	c1 e9 18             	shr    $0x18,%ecx
 27d:	89 c9                	mov    %ecx,%ecx
 27f:	41 33 04 88          	xor    (%r8,%rcx,4),%eax
 283:	33 46 1c             	xor    0x1c(%rsi),%eax
 286:	0f b6 c8             	movzbl %al,%ecx
 289:	41 89 c9             	mov    %ecx,%r9d
 28c:	48 89 c1             	mov    %rax,%rcx
 28f:	81 e1 00 ff 00 00    	and    $0xff00,%ecx
 295:	c1 e9 08             	shr    $0x8,%ecx
 298:	89 c9                	mov    %ecx,%ecx
 29a:	41 8b bc 88 00 08 00 	mov    0x800(%r8,%rcx,4),%edi
 2a1:	00 
 2a2:	43 33 bc 88 00 0c 00 	xor    0xc00(%r8,%r9,4),%edi
 2a9:	00 
 2aa:	48 89 c1             	mov    %rax,%rcx
 2ad:	81 e1 00 00 ff 00    	and    $0xff0000,%ecx
 2b3:	c1 e9 10             	shr    $0x10,%ecx
 2b6:	89 c9                	mov    %ecx,%ecx
 2b8:	41 33 bc 88 00 04 00 	xor    0x400(%r8,%rcx,4),%edi
 2bf:	00 
 2c0:	c1 e8 18             	shr    $0x18,%eax
 2c3:	89 c0                	mov    %eax,%eax
 2c5:	41 33 3c 80          	xor    (%r8,%rax,4),%edi
 2c9:	48 83 c6 20          	add    $0x20,%rsi
 2cd:	48 83 c2 e0          	add    $0xffffffffffffffe0,%rdx
 2d1:	48 83 fa 1f          	cmp    $0x1f,%rdx
 2d5:	0f 87 c9 fd ff ff    	ja     a4 <crc32_little+0x44>
 2db:	eb 50                	jmp    32d <crc32_little+0x2cd>
 2dd:	48 89 f8             	mov    %rdi,%rax
 2e0:	33 06                	xor    (%rsi),%eax
 2e2:	0f b6 c8             	movzbl %al,%ecx
 2e5:	41 89 c9             	mov    %ecx,%r9d
 2e8:	48 89 c1             	mov    %rax,%rcx
 2eb:	81 e1 00 ff 00 00    	and    $0xff00,%ecx
 2f1:	c1 e9 08             	shr    $0x8,%ecx
 2f4:	89 c9                	mov    %ecx,%ecx
 2f6:	41 8b bc 88 00 08 00 	mov    0x800(%r8,%rcx,4),%edi
 2fd:	00 
 2fe:	43 33 bc 88 00 0c 00 	xor    0xc00(%r8,%r9,4),%edi
 305:	00 
 306:	48 89 c1             	mov    %rax,%rcx
 309:	81 e1 00 00 ff 00    	and    $0xff0000,%ecx
 30f:	c1 e9 10             	shr    $0x10,%ecx
 312:	89 c9                	mov    %ecx,%ecx
 314:	41 33 bc 88 00 04 00 	xor    0x400(%r8,%rcx,4),%edi
 31b:	00 
 31c:	c1 e8 18             	shr    $0x18,%eax
 31f:	89 c0                	mov    %eax,%eax
 321:	41 33 3c 80          	xor    (%r8,%rax,4),%edi
 325:	48 83 c6 04          	add    $0x4,%rsi
 329:	48 83 c2 fc          	add    $0xfffffffffffffffc,%rdx
 32d:	48 83 fa 03          	cmp    $0x3,%rdx
 331:	77 aa                	ja     2dd <crc32_little+0x27d>
 333:	48 85 d2             	test   %rdx,%rdx
 336:	75 0a                	jne    342 <crc32_little+0x2e2>
 338:	f7 d7                	not    %edi
 33a:	89 f8                	mov    %edi,%eax
 33c:	c9                   	leaveq 
 33d:	c3                   	retq   
 33e:	48 83 c6 01          	add    $0x1,%rsi
 342:	0f b6 06             	movzbl (%rsi),%eax
 345:	31 f8                	xor    %edi,%eax
 347:	0f b6 c0             	movzbl %al,%eax
 34a:	89 c0                	mov    %eax,%eax
 34c:	c1 ef 08             	shr    $0x8,%edi
 34f:	41 33 3c 80          	xor    (%r8,%rax,4),%edi
 353:	48 83 c2 ff          	add    $0xffffffffffffffff,%rdx
 357:	48 85 d2             	test   %rdx,%rdx
 35a:	75 e2                	jne    33e <crc32_little+0x2de>
 35c:	eb da                	jmp    338 <crc32_little+0x2d8>
 35e:	66 90                	xchg   %ax,%ax

0000000000000360 <gf2_matrix_times>:
 360:	55                   	push   %rbp
 361:	48 89 e5             	mov    %rsp,%rbp
 364:	31 c0                	xor    %eax,%eax
 366:	eb 16                	jmp    37e <gf2_matrix_times+0x1e>
 368:	48 89 f1             	mov    %rsi,%rcx
 36b:	48 83 e1 01          	and    $0x1,%rcx
 36f:	48 85 c9             	test   %rcx,%rcx
 372:	74 03                	je     377 <gf2_matrix_times+0x17>
 374:	48 33 07             	xor    (%rdi),%rax
 377:	48 d1 ee             	shr    %rsi
 37a:	48 83 c7 08          	add    $0x8,%rdi
 37e:	48 85 f6             	test   %rsi,%rsi
 381:	75 e5                	jne    368 <gf2_matrix_times+0x8>
 383:	c9                   	leaveq 
 384:	c3                   	retq   
 385:	66 66 2e 0f 1f 84 00 	data16 nopw %cs:0x0(%rax,%rax,1)
 38c:	00 00 00 00 

0000000000000390 <gf2_matrix_square>:
 390:	55                   	push   %rbp
 391:	48 89 e5             	mov    %rsp,%rbp
 394:	48 83 ec 20          	sub    $0x20,%rsp
 398:	4c 89 65 f8          	mov    %r12,-0x8(%rbp)
 39c:	4c 89 6d f0          	mov    %r13,-0x10(%rbp)
 3a0:	4c 89 75 e8          	mov    %r14,-0x18(%rbp)
 3a4:	4c 89 7d e0          	mov    %r15,-0x20(%rbp)
 3a8:	49 89 f5             	mov    %rsi,%r13
 3ab:	49 89 fe             	mov    %rdi,%r14
 3ae:	45 31 e4             	xor    %r12d,%r12d
 3b1:	eb 18                	jmp    3cb <gf2_matrix_square+0x3b>
 3b3:	4d 63 fc             	movslq %r12d,%r15
 3b6:	4b 8b 74 fd 00       	mov    0x0(%r13,%r15,8),%rsi
 3bb:	4c 89 ef             	mov    %r13,%rdi
 3be:	e8 9d ff ff ff       	callq  360 <gf2_matrix_times>
 3c3:	4b 89 04 fe          	mov    %rax,(%r14,%r15,8)
 3c7:	41 83 c4 01          	add    $0x1,%r12d
 3cb:	41 83 fc 1f          	cmp    $0x1f,%r12d
 3cf:	7e e2                	jle    3b3 <gf2_matrix_square+0x23>
 3d1:	4c 8b 7d e0          	mov    -0x20(%rbp),%r15
 3d5:	4c 8b 75 e8          	mov    -0x18(%rbp),%r14
 3d9:	4c 8b 6d f0          	mov    -0x10(%rbp),%r13
 3dd:	4c 8b 65 f8          	mov    -0x8(%rbp),%r12
 3e1:	c9                   	leaveq 
 3e2:	c3                   	retq   
 3e3:	66 66 2e 0f 1f 84 00 	data16 nopw %cs:0x0(%rax,%rax,1)
 3ea:	00 00 00 00 
 3ee:	66 90                	xchg   %ax,%ax

00000000000003f0 <crc32_combine_>:
 3f0:	55                   	push   %rbp
 3f1:	48 89 e5             	mov    %rsp,%rbp
 3f4:	48 81 ec 30 02 00 00 	sub    $0x230,%rsp
 3fb:	48 85 d2             	test   %rdx,%rdx
 3fe:	7f 05                	jg     405 <crc32_combine_+0x15>
 400:	48 89 f8             	mov    %rdi,%rax
 403:	c9                   	leaveq 
 404:	c3                   	retq   
 405:	b8 20 83 b8 ed       	mov    $0xedb88320,%eax
 40a:	48 89 85 d8 fe ff ff 	mov    %rax,-0x128(%rbp)
 411:	b9 01 00 00 00       	mov    $0x1,%ecx
 416:	49 89 c8             	mov    %rcx,%r8
 419:	eb 11                	jmp    42c <crc32_combine_+0x3c>
 41b:	48 63 c1             	movslq %ecx,%rax
 41e:	4c 89 84 c5 d8 fe ff 	mov    %r8,-0x128(%rbp,%rax,8)
 425:	ff 
 426:	4d 01 c0             	add    %r8,%r8
 429:	83 c1 01             	add    $0x1,%ecx
 42c:	83 f9 1f             	cmp    $0x1f,%ecx
 42f:	7e ea                	jle    41b <crc32_combine_+0x2b>
 431:	48 8d 8d d8 fd ff ff 	lea    -0x228(%rbp),%rcx
 438:	4c 8d 85 d8 fe ff ff 	lea    -0x128(%rbp),%r8
 43f:	49 89 c9             	mov    %rcx,%r9
 442:	4c 89 c0             	mov    %r8,%rax
 445:	48 89 5d f8          	mov    %rbx,-0x8(%rbp)
 449:	4c 89 65 f0          	mov    %r12,-0x10(%rbp)
 44d:	4c 89 6d e8          	mov    %r13,-0x18(%rbp)
 451:	4c 89 75 e0          	mov    %r14,-0x20(%rbp)
 455:	4c 89 7d d8          	mov    %r15,-0x28(%rbp)
 459:	48 89 d3             	mov    %rdx,%rbx
 45c:	49 89 fc             	mov    %rdi,%r12
 45f:	4c 89 cf             	mov    %r9,%rdi
 462:	49 89 f5             	mov    %rsi,%r13
 465:	48 89 c6             	mov    %rax,%rsi
 468:	49 89 ce             	mov    %rcx,%r14
 46b:	4d 89 c7             	mov    %r8,%r15
 46e:	e8 1d ff ff ff       	callq  390 <gf2_matrix_square>
 473:	4c 89 ff             	mov    %r15,%rdi
 476:	4c 89 f6             	mov    %r14,%rsi
 479:	e8 12 ff ff ff       	callq  390 <gf2_matrix_square>
 47e:	eb 4f                	jmp    4cf <crc32_combine_+0xdf>
 480:	4c 89 e6             	mov    %r12,%rsi
 483:	4c 89 f7             	mov    %r14,%rdi
 486:	e8 d5 fe ff ff       	callq  360 <gf2_matrix_times>
 48b:	49 89 c4             	mov    %rax,%r12
 48e:	48 89 d8             	mov    %rbx,%rax
 491:	48 83 e0 fe          	and    $0xfffffffffffffffe,%rax
 495:	48 85 c0             	test   %rax,%rax
 498:	74 4e                	je     4e8 <crc32_combine_+0xf8>
 49a:	4c 89 ff             	mov    %r15,%rdi
 49d:	4c 89 f6             	mov    %r14,%rsi
 4a0:	e8 eb fe ff ff       	callq  390 <gf2_matrix_square>
 4a5:	48 89 d8             	mov    %rbx,%rax
 4a8:	48 83 e0 02          	and    $0x2,%rax
 4ac:	48 85 c0             	test   %rax,%rax
 4af:	7e 0e                	jle    4bf <crc32_combine_+0xcf>
 4b1:	4c 89 e6             	mov    %r12,%rsi
 4b4:	4c 89 ff             	mov    %r15,%rdi
 4b7:	e8 a4 fe ff ff       	callq  360 <gf2_matrix_times>
 4bc:	49 89 c4             	mov    %rax,%r12
 4bf:	48 89 d8             	mov    %rbx,%rax
 4c2:	48 83 e0 fc          	and    $0xfffffffffffffffc,%rax
 4c6:	48 85 c0             	test   %rax,%rax
 4c9:	74 1d                	je     4e8 <crc32_combine_+0xf8>
 4cb:	48 c1 fb 02          	sar    $0x2,%rbx
 4cf:	4c 89 f7             	mov    %r14,%rdi
 4d2:	4c 89 fe             	mov    %r15,%rsi
 4d5:	e8 b6 fe ff ff       	callq  390 <gf2_matrix_square>
 4da:	48 89 d8             	mov    %rbx,%rax
 4dd:	48 83 e0 01          	and    $0x1,%rax
 4e1:	48 85 c0             	test   %rax,%rax
 4e4:	7f 9a                	jg     480 <crc32_combine_+0x90>
 4e6:	eb a6                	jmp    48e <crc32_combine_+0x9e>
 4e8:	4d 31 ec             	xor    %r13,%r12
 4eb:	4c 89 e0             	mov    %r12,%rax
 4ee:	4c 8b 7d d8          	mov    -0x28(%rbp),%r15
 4f2:	4c 8b 75 e0          	mov    -0x20(%rbp),%r14
 4f6:	4c 8b 6d e8          	mov    -0x18(%rbp),%r13
 4fa:	4c 8b 65 f0          	mov    -0x10(%rbp),%r12
 4fe:	48 8b 5d f8          	mov    -0x8(%rbp),%rbx
 502:	c9                   	leaveq 
 503:	c3                   	retq   

deflate.o:     file format elf64-x86-64


Disassembly of section .text:

0000000000000000 <deflate>:
       0:	55                   	push   %rbp
       1:	48 89 e5             	mov    %rsp,%rbp
       4:	48 81 ec 80 00 00 00 	sub    $0x80,%rsp
       b:	48 89 75 80          	mov    %rsi,-0x80(%rbp)
       f:	48 89 7d 88          	mov    %rdi,-0x78(%rbp)
      13:	e8 08 21 00 00       	callq  2120 <deflateStateCheck>
      18:	85 c0                	test   %eax,%eax
      1a:	74 09                	je     25 <deflate+0x25>
      1c:	48 c7 c0 fe ff ff ff 	mov    $0xfffffffffffffffe,%rax
      23:	c9                   	leaveq 
      24:	c3                   	retq   
      25:	48 8b 75 80          	mov    -0x80(%rbp),%rsi
      29:	83 fe 05             	cmp    $0x5,%esi
      2c:	7e 09                	jle    37 <deflate+0x37>
      2e:	48 c7 c0 fe ff ff ff 	mov    $0xfffffffffffffffe,%rax
      35:	c9                   	leaveq 
      36:	c3                   	retq   
      37:	85 f6                	test   %esi,%esi
      39:	79 09                	jns    44 <deflate+0x44>
      3b:	48 c7 c0 fe ff ff ff 	mov    $0xfffffffffffffffe,%rax
      42:	c9                   	leaveq 
      43:	c3                   	retq   
      44:	48 8b 7d 88          	mov    -0x78(%rbp),%rdi
      48:	4c 8b 47 38          	mov    0x38(%rdi),%r8
      4c:	48 8b 15 00 00 00 00 	mov    0x0(%rip),%rdx        # 53 <deflate+0x53>
      53:	48 8b 47 18          	mov    0x18(%rdi),%rax
      57:	48 85 c0             	test   %rax,%rax
      5a:	74 63                	je     bf <deflate+0xbf>
      5c:	8b 47 08             	mov    0x8(%rdi),%eax
      5f:	85 c0                	test   %eax,%eax
      61:	75 54                	jne    b7 <deflate+0xb7>
      63:	49 63 40 08          	movslq 0x8(%r8),%rax
      67:	3d 9a 02 00 00       	cmp    $0x29a,%eax
      6c:	74 62                	je     d0 <deflate+0xd0>
      6e:	48 c7 c1 fb ff ff ff 	mov    $0xfffffffffffffffb,%rcx
      75:	8b 47 20             	mov    0x20(%rdi),%eax
      78:	85 c0                	test   %eax,%eax
      7a:	74 5b                	je     d7 <deflate+0xd7>
      7c:	4d 63 48 4c          	movslq 0x4c(%r8),%r9
      80:	41 89 70 4c          	mov    %esi,0x4c(%r8)
      84:	31 c0                	xor    %eax,%eax
      86:	48 89 45 90          	mov    %rax,-0x70(%rbp)
      8a:	4d 8b 50 28          	mov    0x28(%r8),%r10
      8e:	4d 85 d2             	test   %r10,%r10
      91:	75 51                	jne    e4 <deflate+0xe4>
      93:	44 8b 57 08          	mov    0x8(%rdi),%r10d
      97:	45 85 d2             	test   %r10d,%r10d
      9a:	0f 85 8c 00 00 00    	jne    12c <deflate+0x12c>
      a0:	41 ba 09 00 00 00    	mov    $0x9,%r10d
      a6:	83 fe 04             	cmp    $0x4,%esi
      a9:	0f 8f 46 01 00 00    	jg     1f5 <deflate+0x1f5>
      af:	49 89 c3             	mov    %rax,%r11
      b2:	e9 41 01 00 00       	jmpq   1f8 <deflate+0x1f8>
      b7:	48 8b 07             	mov    (%rdi),%rax
      ba:	48 85 c0             	test   %rax,%rax
      bd:	75 a4                	jne    63 <deflate+0x63>
      bf:	48 8b 42 20          	mov    0x20(%rdx),%rax
      c3:	48 89 47 30          	mov    %rax,0x30(%rdi)
      c7:	48 c7 c0 fe ff ff ff 	mov    $0xfffffffffffffffe,%rax
      ce:	c9                   	leaveq 
      cf:	c3                   	retq   
      d0:	83 fe 04             	cmp    $0x4,%esi
      d3:	75 ea                	jne    bf <deflate+0xbf>
      d5:	eb 97                	jmp    6e <deflate+0x6e>
      d7:	48 8b 42 38          	mov    0x38(%rdx),%rax
      db:	48 89 47 30          	mov    %rax,0x30(%rdi)
      df:	48 89 c8             	mov    %rcx,%rax
      e2:	c9                   	leaveq 
      e3:	c3                   	retq   
      e4:	48 89 f8             	mov    %rdi,%rax
      e7:	4c 89 75 b8          	mov    %r14,-0x48(%rbp)
      eb:	4c 89 7d 98          	mov    %r15,-0x68(%rbp)
      ef:	48 89 55 f0          	mov    %rdx,-0x10(%rbp)
      f3:	4d 89 c6             	mov    %r8,%r14
      f6:	49 89 ff             	mov    %rdi,%r15
      f9:	48 89 c7             	mov    %rax,%rdi
      fc:	e8 ef 40 00 00       	callq  41f0 <flush_pending>
     101:	41 8b 47 20          	mov    0x20(%r15),%eax
     105:	85 c0                	test   %eax,%eax
     107:	0f 84 20 01 00 00    	je     22d <deflate+0x22d>
     10d:	4c 89 ff             	mov    %r15,%rdi
     110:	4d 89 f0             	mov    %r14,%r8
     113:	48 c7 c1 fb ff ff ff 	mov    $0xfffffffffffffffb,%rcx
     11a:	31 c0                	xor    %eax,%eax
     11c:	48 8b 55 f0          	mov    -0x10(%rbp),%rdx
     120:	4c 8b 7d 98          	mov    -0x68(%rbp),%r15
     124:	4c 8b 75 b8          	mov    -0x48(%rbp),%r14
     128:	48 8b 75 80          	mov    -0x80(%rbp),%rsi
     12c:	4d 63 48 08          	movslq 0x8(%r8),%r9
     130:	41 81 f9 9a 02 00 00 	cmp    $0x29a,%r9d
     137:	0f 84 04 01 00 00    	je     241 <deflate+0x241>
     13d:	49 63 48 08          	movslq 0x8(%r8),%rcx
     141:	83 f9 2a             	cmp    $0x2a,%ecx
     144:	0f 84 11 01 00 00    	je     25b <deflate+0x25b>
     14a:	b9 01 00 00 00       	mov    $0x1,%ecx
     14f:	48 89 4d 98          	mov    %rcx,-0x68(%rbp)
     153:	49 63 50 08          	movslq 0x8(%r8),%rdx
     157:	83 fa 39             	cmp    $0x39,%edx
     15a:	0f 84 2e 01 00 00    	je     28e <deflate+0x28e>
     160:	49 63 50 08          	movslq 0x8(%r8),%rdx
     164:	83 fa 45             	cmp    $0x45,%edx
     167:	0f 84 c5 01 00 00    	je     332 <deflate+0x332>
     16d:	49 63 50 08          	movslq 0x8(%r8),%rdx
     171:	83 fa 49             	cmp    $0x49,%edx
     174:	0f 84 d6 01 00 00    	je     350 <deflate+0x350>
     17a:	49 63 50 08          	movslq 0x8(%r8),%rdx
     17e:	83 fa 5b             	cmp    $0x5b,%edx
     181:	0f 84 e7 01 00 00    	je     36e <deflate+0x36e>
     187:	49 63 50 08          	movslq 0x8(%r8),%rdx
     18b:	83 fa 67             	cmp    $0x67,%edx
     18e:	0f 84 f8 01 00 00    	je     38c <deflate+0x38c>
     194:	8b 57 08             	mov    0x8(%rdi),%edx
     197:	85 d2                	test   %edx,%edx
     199:	0f 84 49 02 00 00    	je     3e8 <deflate+0x3e8>
     19f:	49 63 80 c4 00 00 00 	movslq 0xc4(%r8),%rax
     1a6:	85 c0                	test   %eax,%eax
     1a8:	0f 84 5c 02 00 00    	je     40a <deflate+0x40a>
     1ae:	49 63 88 c8 00 00 00 	movslq 0xc8(%r8),%rcx
     1b5:	83 f9 02             	cmp    $0x2,%ecx
     1b8:	0f 84 ac 02 00 00    	je     46a <deflate+0x46a>
     1be:	83 f9 03             	cmp    $0x3,%ecx
     1c1:	0f 84 c4 02 00 00    	je     48b <deflate+0x48b>
     1c7:	48 8d 0d 00 00 00 00 	lea    0x0(%rip),%rcx        # 1ce <deflate+0x1ce>
     1ce:	48 c1 e0 04          	shl    $0x4,%rax
     1d2:	4c 89 c2             	mov    %r8,%rdx
     1d5:	4c 89 75 d8          	mov    %r14,-0x28(%rbp)
     1d9:	4c 89 7d b8          	mov    %r15,-0x48(%rbp)
     1dd:	4d 89 c6             	mov    %r8,%r14
     1e0:	49 89 ff             	mov    %rdi,%r15
     1e3:	48 89 d7             	mov    %rdx,%rdi
     1e6:	ff 54 01 08          	callq  *0x8(%rcx,%rax,1)
     1ea:	4c 89 ff             	mov    %r15,%rdi
     1ed:	4d 89 f0             	mov    %r14,%r8
     1f0:	e9 34 02 00 00       	jmpq   429 <deflate+0x429>
     1f5:	4d 89 d3             	mov    %r10,%r11
     1f8:	41 83 f9 04          	cmp    $0x4,%r9d
     1fc:	7f 03                	jg     201 <deflate+0x201>
     1fe:	49 89 c2             	mov    %rax,%r10
     201:	45 01 c9             	add    %r9d,%r9d
     204:	45 29 d1             	sub    %r10d,%r9d
     207:	44 8d 14 36          	lea    (%rsi,%rsi,1),%r10d
     20b:	45 29 da             	sub    %r11d,%r10d
     20e:	45 39 d1             	cmp    %r10d,%r9d
     211:	0f 8c 15 ff ff ff    	jl     12c <deflate+0x12c>
     217:	83 fe 04             	cmp    $0x4,%esi
     21a:	0f 84 0c ff ff ff    	je     12c <deflate+0x12c>
     220:	48 8b 42 38          	mov    0x38(%rdx),%rax
     224:	48 89 47 30          	mov    %rax,0x30(%rdi)
     228:	48 89 c8             	mov    %rcx,%rax
     22b:	c9                   	leaveq 
     22c:	c3                   	retq   
     22d:	41 c7 46 4c ff ff ff 	movl   $0xffffffff,0x4c(%r14)
     234:	ff 
     235:	31 c0                	xor    %eax,%eax
     237:	4c 8b 7d 98          	mov    -0x68(%rbp),%r15
     23b:	4c 8b 75 b8          	mov    -0x48(%rbp),%r14
     23f:	c9                   	leaveq 
     240:	c3                   	retq   
     241:	44 8b 4f 08          	mov    0x8(%rdi),%r9d
     245:	45 85 c9             	test   %r9d,%r9d
     248:	0f 84 ef fe ff ff    	je     13d <deflate+0x13d>
     24e:	48 8b 42 38          	mov    0x38(%rdx),%rax
     252:	48 89 47 30          	mov    %rax,0x30(%rdi)
     256:	48 89 c8             	mov    %rcx,%rax
     259:	c9                   	leaveq 
     25a:	c3                   	retq   
     25b:	41 8b 48 54          	mov    0x54(%r8),%ecx
     25f:	49 63 90 c8 00 00 00 	movslq 0xc8(%r8),%rdx
     266:	83 fa 01             	cmp    $0x1,%edx
     269:	0f 8e 40 02 00 00    	jle    4af <deflate+0x4af>
     26f:	c1 e1 0c             	shl    $0xc,%ecx
     272:	01 c1                	add    %eax,%ecx
     274:	41 8b 80 ac 00 00 00 	mov    0xac(%r8),%eax
     27b:	85 c0                	test   %eax,%eax
     27d:	0f 85 4f 02 00 00    	jne    4d2 <deflate+0x4d2>
     283:	81 c1 00 88 ff ff    	add    $0xffff8800,%ecx
     289:	e9 4a 02 00 00       	jmpq   4d8 <deflate+0x4d8>
     28e:	48 89 c6             	mov    %rax,%rsi
     291:	48 89 c2             	mov    %rax,%rdx
     294:	4c 89 75 c0          	mov    %r14,-0x40(%rbp)
     298:	4c 89 7d a0          	mov    %r15,-0x60(%rbp)
     29c:	49 89 fe             	mov    %rdi,%r14
     29f:	48 89 c7             	mov    %rax,%rdi
     2a2:	4d 89 c7             	mov    %r8,%r15
     2a5:	e8 00 00 00 00       	callq  2aa <deflate+0x2aa>
     2aa:	49 89 46 60          	mov    %rax,0x60(%r14)
     2ae:	49 8b 4f 28          	mov    0x28(%r15),%rcx
     2b2:	48 8d 41 01          	lea    0x1(%rcx),%rax
     2b6:	49 89 47 28          	mov    %rax,0x28(%r15)
     2ba:	49 8b 47 10          	mov    0x10(%r15),%rax
     2be:	c6 04 01 1f          	movb   $0x1f,(%rcx,%rax,1)
     2c2:	49 8b 4f 28          	mov    0x28(%r15),%rcx
     2c6:	48 8d 41 01          	lea    0x1(%rcx),%rax
     2ca:	49 89 47 28          	mov    %rax,0x28(%r15)
     2ce:	49 8b 47 10          	mov    0x10(%r15),%rax
     2d2:	c6 04 01 8b          	movb   $0x8b,(%rcx,%rax,1)
     2d6:	49 8b 4f 28          	mov    0x28(%r15),%rcx
     2da:	48 8d 41 01          	lea    0x1(%rcx),%rax
     2de:	49 89 47 28          	mov    %rax,0x28(%r15)
     2e2:	49 8b 47 10          	mov    0x10(%r15),%rax
     2e6:	c6 04 01 08          	movb   $0x8,(%rcx,%rax,1)
     2ea:	b8 02 00 00 00       	mov    $0x2,%eax
     2ef:	41 bb 04 00 00 00    	mov    $0x4,%r11d
     2f5:	4d 8b 57 38          	mov    0x38(%r15),%r10
     2f9:	4d 85 d2             	test   %r10,%r10
     2fc:	0f 84 7f 02 00 00    	je     581 <deflate+0x581>
     302:	4d 8b 47 28          	mov    0x28(%r15),%r8
     306:	49 8d 48 01          	lea    0x1(%r8),%rcx
     30a:	49 89 4f 28          	mov    %rcx,0x28(%r15)
     30e:	4d 8b 4f 10          	mov    0x10(%r15),%r9
     312:	49 63 0a             	movslq (%r10),%rcx
     315:	85 c9                	test   %ecx,%ecx
     317:	74 06                	je     31f <deflate+0x31f>
     319:	ff 75 98             	pushq  -0x68(%rbp)
     31c:	8f 45 90             	popq   -0x70(%rbp)
     31f:	49 63 4a 44          	movslq 0x44(%r10),%rcx
     323:	85 c9                	test   %ecx,%ecx
     325:	0f 85 2c 03 00 00    	jne    657 <deflate+0x657>
     32b:	31 ff                	xor    %edi,%edi
     32d:	e9 28 03 00 00       	jmpq   65a <deflate+0x65a>
     332:	4d 8b 48 38          	mov    0x38(%r8),%r9
     336:	49 8b 51 18          	mov    0x18(%r9),%rdx
     33a:	48 85 d2             	test   %rdx,%rdx
     33d:	0f 85 2c 03 00 00    	jne    66f <deflate+0x66f>
     343:	41 c7 40 08 49 00 00 	movl   $0x49,0x8(%r8)
     34a:	00 
     34b:	e9 1d fe ff ff       	jmpq   16d <deflate+0x16d>
     350:	49 8b 50 38          	mov    0x38(%r8),%rdx
     354:	48 8b 52 28          	mov    0x28(%rdx),%rdx
     358:	48 85 d2             	test   %rdx,%rdx
     35b:	0f 85 3a 03 00 00    	jne    69b <deflate+0x69b>
     361:	41 c7 40 08 5b 00 00 	movl   $0x5b,0x8(%r8)
     368:	00 
     369:	e9 0c fe ff ff       	jmpq   17a <deflate+0x17a>
     36e:	49 8b 50 38          	mov    0x38(%r8),%rdx
     372:	48 8b 52 38          	mov    0x38(%rdx),%rdx
     376:	48 85 d2             	test   %rdx,%rdx
     379:	0f 85 30 04 00 00    	jne    7af <deflate+0x7af>
     37f:	41 c7 40 08 67 00 00 	movl   $0x67,0x8(%r8)
     386:	00 
     387:	e9 fb fd ff ff       	jmpq   187 <deflate+0x187>
     38c:	49 8b 48 38          	mov    0x38(%r8),%rcx
     390:	48 63 49 44          	movslq 0x44(%rcx),%rcx
     394:	85 c9                	test   %ecx,%ecx
     396:	0f 85 f1 04 00 00    	jne    88d <deflate+0x88d>
     39c:	41 c7 40 08 71 00 00 	movl   $0x71,0x8(%r8)
     3a3:	00 
     3a4:	48 89 f8             	mov    %rdi,%rax
     3a7:	4c 89 75 d8          	mov    %r14,-0x28(%rbp)
     3ab:	4c 89 7d b8          	mov    %r15,-0x48(%rbp)
     3af:	4d 89 c6             	mov    %r8,%r14
     3b2:	49 89 ff             	mov    %rdi,%r15
     3b5:	48 89 c7             	mov    %rax,%rdi
     3b8:	e8 33 3e 00 00       	callq  41f0 <flush_pending>
     3bd:	49 8b 46 28          	mov    0x28(%r14),%rax
     3c1:	48 85 c0             	test   %rax,%rax
     3c4:	0f 85 3d 05 00 00    	jne    907 <deflate+0x907>
     3ca:	4c 89 ff             	mov    %r15,%rdi
     3cd:	4d 89 f0             	mov    %r14,%r8
     3d0:	b9 01 00 00 00       	mov    $0x1,%ecx
     3d5:	31 c0                	xor    %eax,%eax
     3d7:	4c 8b 7d b8          	mov    -0x48(%rbp),%r15
     3db:	4c 8b 75 d8          	mov    -0x28(%rbp),%r14
     3df:	48 8b 75 80          	mov    -0x80(%rbp),%rsi
     3e3:	e9 ac fd ff ff       	jmpq   194 <deflate+0x194>
     3e8:	41 8b 90 b4 00 00 00 	mov    0xb4(%r8),%edx
     3ef:	85 d2                	test   %edx,%edx
     3f1:	0f 85 a8 fd ff ff    	jne    19f <deflate+0x19f>
     3f7:	85 f6                	test   %esi,%esi
     3f9:	0f 8f 1c 05 00 00    	jg     91b <deflate+0x91b>
     3ff:	83 fe 04             	cmp    $0x4,%esi
     402:	0f 84 28 05 00 00    	je     930 <deflate+0x930>
     408:	c9                   	leaveq 
     409:	c3                   	retq   
     40a:	4c 89 c0             	mov    %r8,%rax
     40d:	4c 89 75 d8          	mov    %r14,-0x28(%rbp)
     411:	4c 89 7d b8          	mov    %r15,-0x48(%rbp)
     415:	49 89 fe             	mov    %rdi,%r14
     418:	48 89 c7             	mov    %rax,%rdi
     41b:	4d 89 c7             	mov    %r8,%r15
     41e:	e8 bd 20 00 00       	callq  24e0 <deflate_stored>
     423:	4c 89 f7             	mov    %r14,%rdi
     426:	4d 89 f8             	mov    %r15,%r8
     429:	83 f8 02             	cmp    $0x2,%eax
     42c:	74 05                	je     433 <deflate+0x433>
     42e:	83 f8 03             	cmp    $0x3,%eax
     431:	75 08                	jne    43b <deflate+0x43b>
     433:	41 c7 40 08 9a 02 00 	movl   $0x29a,0x8(%r8)
     43a:	00 
     43b:	85 c0                	test   %eax,%eax
     43d:	0f 84 fe 04 00 00    	je     941 <deflate+0x941>
     443:	83 f8 02             	cmp    $0x2,%eax
     446:	0f 84 f5 04 00 00    	je     941 <deflate+0x941>
     44c:	83 f8 01             	cmp    $0x1,%eax
     44f:	0f 84 03 05 00 00    	je     958 <deflate+0x958>
     455:	b9 01 00 00 00       	mov    $0x1,%ecx
     45a:	31 c0                	xor    %eax,%eax
     45c:	4c 8b 7d b8          	mov    -0x48(%rbp),%r15
     460:	4c 8b 75 d8          	mov    -0x28(%rbp),%r14
     464:	48 8b 75 80          	mov    -0x80(%rbp),%rsi
     468:	eb 95                	jmp    3ff <deflate+0x3ff>
     46a:	4c 89 c0             	mov    %r8,%rax
     46d:	4c 89 75 d8          	mov    %r14,-0x28(%rbp)
     471:	4c 89 7d b8          	mov    %r15,-0x48(%rbp)
     475:	4d 89 c6             	mov    %r8,%r14
     478:	49 89 ff             	mov    %rdi,%r15
     47b:	48 89 c7             	mov    %rax,%rdi
     47e:	e8 ad 39 00 00       	callq  3e30 <deflate_huff>
     483:	4c 89 ff             	mov    %r15,%rdi
     486:	4d 89 f0             	mov    %r14,%r8
     489:	eb 9e                	jmp    429 <deflate+0x429>
     48b:	4c 89 c0             	mov    %r8,%rax
     48e:	4c 89 75 d8          	mov    %r14,-0x28(%rbp)
     492:	4c 89 7d b8          	mov    %r15,-0x48(%rbp)
     496:	4d 89 c6             	mov    %r8,%r14
     499:	49 89 ff             	mov    %rdi,%r15
     49c:	48 89 c7             	mov    %rax,%rdi
     49f:	e8 4c 34 00 00       	callq  38f0 <deflate_rle>
     4a4:	4c 89 ff             	mov    %r15,%rdi
     4a7:	4d 89 f0             	mov    %r14,%r8
     4aa:	e9 7a ff ff ff       	jmpq   429 <deflate+0x429>
     4af:	49 63 90 c4 00 00 00 	movslq 0xc4(%r8),%rdx
     4b6:	83 fa 01             	cmp    $0x1,%edx
     4b9:	0f 8e b0 fd ff ff    	jle    26f <deflate+0x26f>
     4bf:	83 fa 05             	cmp    $0x5,%edx
     4c2:	0f 8f e1 04 00 00    	jg     9a9 <deflate+0x9a9>
     4c8:	b8 40 00 00 00       	mov    $0x40,%eax
     4cd:	e9 9d fd ff ff       	jmpq   26f <deflate+0x26f>
     4d2:	81 c1 20 88 ff ff    	add    $0xffff8820,%ecx
     4d8:	8d 51 01             	lea    0x1(%rcx),%edx
     4db:	b8 21 84 10 42       	mov    $0x42108421,%eax
     4e0:	f7 e2                	mul    %edx
     4e2:	c1 ea 03             	shr    $0x3,%edx
     4e5:	48 89 d0             	mov    %rdx,%rax
     4e8:	c1 e0 05             	shl    $0x5,%eax
     4eb:	29 c2                	sub    %eax,%edx
     4ed:	01 ca                	add    %ecx,%edx
     4ef:	b8 1f 00 00 00       	mov    $0x1f,%eax
     4f4:	29 d0                	sub    %edx,%eax
     4f6:	8d 34 08             	lea    (%rax,%rcx,1),%esi
     4f9:	4c 89 c0             	mov    %r8,%rax
     4fc:	4c 89 75 c0          	mov    %r14,-0x40(%rbp)
     500:	4c 89 7d a0          	mov    %r15,-0x60(%rbp)
     504:	49 89 fe             	mov    %rdi,%r14
     507:	48 89 c7             	mov    %rax,%rdi
     50a:	4d 89 c7             	mov    %r8,%r15
     50d:	e8 9e 3c 00 00       	callq  41b0 <putShortMSB>
     512:	41 8b 87 ac 00 00 00 	mov    0xac(%r15),%eax
     519:	85 c0                	test   %eax,%eax
     51b:	74 1d                	je     53a <deflate+0x53a>
     51d:	49 8b 76 60          	mov    0x60(%r14),%rsi
     521:	48 c1 ee 10          	shr    $0x10,%rsi
     525:	4c 89 ff             	mov    %r15,%rdi
     528:	e8 83 3c 00 00       	callq  41b0 <putShortMSB>
     52d:	41 0f b7 76 60       	movzwl 0x60(%r14),%esi
     532:	4c 89 ff             	mov    %r15,%rdi
     535:	e8 76 3c 00 00       	callq  41b0 <putShortMSB>
     53a:	31 ff                	xor    %edi,%edi
     53c:	48 89 fe             	mov    %rdi,%rsi
     53f:	48 89 fa             	mov    %rdi,%rdx
     542:	e8 00 00 00 00       	callq  547 <deflate+0x547>
     547:	49 89 46 60          	mov    %rax,0x60(%r14)
     54b:	41 c7 47 08 71 00 00 	movl   $0x71,0x8(%r15)
     552:	00 
     553:	4c 89 f7             	mov    %r14,%rdi
     556:	e8 95 3c 00 00       	callq  41f0 <flush_pending>
     55b:	49 8b 47 28          	mov    0x28(%r15),%rax
     55f:	48 85 c0             	test   %rax,%rax
     562:	0f 85 54 04 00 00    	jne    9bc <deflate+0x9bc>
     568:	4c 89 f7             	mov    %r14,%rdi
     56b:	4d 89 f8             	mov    %r15,%r8
     56e:	31 c0                	xor    %eax,%eax
     570:	4c 8b 7d a0          	mov    -0x60(%rbp),%r15
     574:	4c 8b 75 c0          	mov    -0x40(%rbp),%r14
     578:	48 8b 75 80          	mov    -0x80(%rbp),%rsi
     57c:	e9 c9 fb ff ff       	jmpq   14a <deflate+0x14a>
     581:	49 8b 4f 28          	mov    0x28(%r15),%rcx
     585:	48 8d 51 01          	lea    0x1(%rcx),%rdx
     589:	49 89 57 28          	mov    %rdx,0x28(%r15)
     58d:	49 8b 57 10          	mov    0x10(%r15),%rdx
     591:	c6 04 11 00          	movb   $0x0,(%rcx,%rdx,1)
     595:	49 8b 57 28          	mov    0x28(%r15),%rdx
     599:	48 8d 4a 01          	lea    0x1(%rdx),%rcx
     59d:	49 89 4f 28          	mov    %rcx,0x28(%r15)
     5a1:	49 8b 4f 10          	mov    0x10(%r15),%rcx
     5a5:	c6 04 0a 00          	movb   $0x0,(%rdx,%rcx,1)
     5a9:	49 8b 57 28          	mov    0x28(%r15),%rdx
     5ad:	48 8d 4a 01          	lea    0x1(%rdx),%rcx
     5b1:	49 89 4f 28          	mov    %rcx,0x28(%r15)
     5b5:	49 8b 4f 10          	mov    0x10(%r15),%rcx
     5b9:	c6 04 0a 00          	movb   $0x0,(%rdx,%rcx,1)
     5bd:	49 8b 57 28          	mov    0x28(%r15),%rdx
     5c1:	48 8d 4a 01          	lea    0x1(%rdx),%rcx
     5c5:	49 89 4f 28          	mov    %rcx,0x28(%r15)
     5c9:	49 8b 4f 10          	mov    0x10(%r15),%rcx
     5cd:	c6 04 0a 00          	movb   $0x0,(%rdx,%rcx,1)
     5d1:	49 8b 57 28          	mov    0x28(%r15),%rdx
     5d5:	48 8d 4a 01          	lea    0x1(%rdx),%rcx
     5d9:	49 89 4f 28          	mov    %rcx,0x28(%r15)
     5dd:	49 8b 4f 10          	mov    0x10(%r15),%rcx
     5e1:	c6 04 0a 00          	movb   $0x0,(%rdx,%rcx,1)
     5e5:	49 8b 77 10          	mov    0x10(%r15),%rsi
     5e9:	49 8b 57 28          	mov    0x28(%r15),%rdx
     5ed:	48 8d 4a 01          	lea    0x1(%rdx),%rcx
     5f1:	49 89 4f 28          	mov    %rcx,0x28(%r15)
     5f5:	49 63 8f c4 00 00 00 	movslq 0xc4(%r15),%rcx
     5fc:	83 f9 09             	cmp    $0x9,%ecx
     5ff:	0f 85 cb 03 00 00    	jne    9d0 <deflate+0x9d0>
     605:	88 04 16             	mov    %al,(%rsi,%rdx,1)
     608:	49 8b 4f 28          	mov    0x28(%r15),%rcx
     60c:	48 8d 41 01          	lea    0x1(%rcx),%rax
     610:	49 89 47 28          	mov    %rax,0x28(%r15)
     614:	49 8b 47 10          	mov    0x10(%r15),%rax
     618:	c6 04 01 03          	movb   $0x3,(%rcx,%rax,1)
     61c:	41 c7 47 08 71 00 00 	movl   $0x71,0x8(%r15)
     623:	00 
     624:	4c 89 f7             	mov    %r14,%rdi
     627:	e8 c4 3b 00 00       	callq  41f0 <flush_pending>
     62c:	49 8b 47 28          	mov    0x28(%r15),%rax
     630:	48 85 c0             	test   %rax,%rax
     633:	0f 85 af 03 00 00    	jne    9e8 <deflate+0x9e8>
     639:	4c 89 f7             	mov    %r14,%rdi
     63c:	4d 89 f8             	mov    %r15,%r8
     63f:	b9 01 00 00 00       	mov    $0x1,%ecx
     644:	31 c0                	xor    %eax,%eax
     646:	4c 8b 7d a0          	mov    -0x60(%rbp),%r15
     64a:	4c 8b 75 c0          	mov    -0x40(%rbp),%r14
     64e:	48 8b 75 80          	mov    -0x80(%rbp),%rsi
     652:	e9 09 fb ff ff       	jmpq   160 <deflate+0x160>
     657:	48 89 c7             	mov    %rax,%rdi
     65a:	49 8b 4a 18          	mov    0x18(%r10),%rcx
     65e:	48 85 c9             	test   %rcx,%rcx
     661:	0f 84 95 03 00 00    	je     9fc <deflate+0x9fc>
     667:	4c 89 de             	mov    %r11,%rsi
     66a:	e9 8f 03 00 00       	jmpq   9fe <deflate+0x9fe>
     66f:	49 8b 50 28          	mov    0x28(%r8),%rdx
     673:	45 0f b7 49 20       	movzwl 0x20(%r9),%r9d
     678:	41 8b 48 40          	mov    0x40(%r8),%ecx
     67c:	41 29 c9             	sub    %ecx,%r9d
     67f:	4c 89 75 c8          	mov    %r14,-0x38(%rbp)
     683:	4c 89 7d a8          	mov    %r15,-0x58(%rbp)
     687:	48 89 5d f8          	mov    %rbx,-0x8(%rbp)
     68b:	4c 89 65 f0          	mov    %r12,-0x10(%rbp)
     68f:	4c 89 6d e0          	mov    %r13,-0x20(%rbp)
     693:	49 89 d7             	mov    %rdx,%r15
     696:	e9 04 04 00 00       	jmpq   a9f <deflate+0xa9f>
     69b:	49 8b 48 28          	mov    0x28(%r8),%rcx
     69f:	4c 89 75 c8          	mov    %r14,-0x38(%rbp)
     6a3:	4c 89 7d a8          	mov    %r15,-0x58(%rbp)
     6a7:	4c 89 6d e0          	mov    %r13,-0x20(%rbp)
     6ab:	49 8b 50 28          	mov    0x28(%r8),%rdx
     6af:	49 8b 70 18          	mov    0x18(%r8),%rsi
     6b3:	48 39 d6             	cmp    %rdx,%rsi
     6b6:	75 61                	jne    719 <deflate+0x719>
     6b8:	49 8b 70 38          	mov    0x38(%r8),%rsi
     6bc:	48 63 76 44          	movslq 0x44(%rsi),%rsi
     6c0:	85 f6                	test   %esi,%esi
     6c2:	74 2e                	je     6f2 <deflate+0x6f2>
     6c4:	48 39 d1             	cmp    %rdx,%rcx
     6c7:	73 29                	jae    6f2 <deflate+0x6f2>
     6c9:	48 89 ce             	mov    %rcx,%rsi
     6cc:	49 03 70 10          	add    0x10(%r8),%rsi
     6d0:	48 29 ca             	sub    %rcx,%rdx
     6d3:	49 89 c5             	mov    %rax,%r13
     6d6:	4d 89 c6             	mov    %r8,%r14
     6d9:	49 89 ff             	mov    %rdi,%r15
     6dc:	49 8b 7f 60          	mov    0x60(%r15),%rdi
     6e0:	e8 00 00 00 00       	callq  6e5 <deflate+0x6e5>
     6e5:	49 89 47 60          	mov    %rax,0x60(%r15)
     6e9:	4c 89 e8             	mov    %r13,%rax
     6ec:	4c 89 ff             	mov    %r15,%rdi
     6ef:	4d 89 f0             	mov    %r14,%r8
     6f2:	49 89 c5             	mov    %rax,%r13
     6f5:	4d 89 c6             	mov    %r8,%r14
     6f8:	49 89 ff             	mov    %rdi,%r15
     6fb:	e8 f0 3a 00 00       	callq  41f0 <flush_pending>
     700:	49 8b 46 28          	mov    0x28(%r14),%rax
     704:	48 85 c0             	test   %rax,%rax
     707:	0f 85 19 04 00 00    	jne    b26 <deflate+0xb26>
     70d:	4c 89 e9             	mov    %r13,%rcx
     710:	4c 89 ff             	mov    %r15,%rdi
     713:	4d 89 f0             	mov    %r14,%r8
     716:	48 89 c8             	mov    %rcx,%rax
     719:	4d 8b 58 40          	mov    0x40(%r8),%r11
     71d:	4d 8d 4b 01          	lea    0x1(%r11),%r9
     721:	49 8b 70 28          	mov    0x28(%r8),%rsi
     725:	48 8d 56 01          	lea    0x1(%rsi),%rdx
     729:	4d 8b 50 38          	mov    0x38(%r8),%r10
     72d:	4d 8b 52 28          	mov    0x28(%r10),%r10
     731:	4d 89 48 40          	mov    %r9,0x40(%r8)
     735:	47 0f b6 0c 13       	movzbl (%r11,%r10,1),%r9d
     73a:	49 89 50 28          	mov    %rdx,0x28(%r8)
     73e:	49 8b 50 10          	mov    0x10(%r8),%rdx
     742:	44 88 0c 16          	mov    %r9b,(%rsi,%rdx,1)
     746:	45 84 c9             	test   %r9b,%r9b
     749:	0f 85 5c ff ff ff    	jne    6ab <deflate+0x6ab>
     74f:	49 8b 50 38          	mov    0x38(%r8),%rdx
     753:	48 63 52 44          	movslq 0x44(%rdx),%rdx
     757:	85 d2                	test   %edx,%edx
     759:	74 32                	je     78d <deflate+0x78d>
     75b:	49 8b 50 28          	mov    0x28(%r8),%rdx
     75f:	48 39 d1             	cmp    %rdx,%rcx
     762:	73 29                	jae    78d <deflate+0x78d>
     764:	48 89 ce             	mov    %rcx,%rsi
     767:	49 03 70 10          	add    0x10(%r8),%rsi
     76b:	48 29 ca             	sub    %rcx,%rdx
     76e:	49 89 c5             	mov    %rax,%r13
     771:	4d 89 c6             	mov    %r8,%r14
     774:	49 89 ff             	mov    %rdi,%r15
     777:	49 8b 7f 60          	mov    0x60(%r15),%rdi
     77b:	e8 00 00 00 00       	callq  780 <deflate+0x780>
     780:	49 89 47 60          	mov    %rax,0x60(%r15)
     784:	4c 89 e8             	mov    %r13,%rax
     787:	4c 89 ff             	mov    %r15,%rdi
     78a:	4d 89 f0             	mov    %r14,%r8
     78d:	49 c7 40 40 00 00 00 	movq   $0x0,0x40(%r8)
     794:	00 
     795:	4c 8b 6d e0          	mov    -0x20(%rbp),%r13
     799:	b9 01 00 00 00       	mov    $0x1,%ecx
     79e:	4c 8b 7d a8          	mov    -0x58(%rbp),%r15
     7a2:	4c 8b 75 c8          	mov    -0x38(%rbp),%r14
     7a6:	48 8b 75 80          	mov    -0x80(%rbp),%rsi
     7aa:	e9 b2 fb ff ff       	jmpq   361 <deflate+0x361>
     7af:	49 8b 48 28          	mov    0x28(%r8),%rcx
     7b3:	4c 89 75 d0          	mov    %r14,-0x30(%rbp)
     7b7:	4c 89 7d b0          	mov    %r15,-0x50(%rbp)
     7bb:	4c 89 6d e8          	mov    %r13,-0x18(%rbp)
     7bf:	49 8b 50 28          	mov    0x28(%r8),%rdx
     7c3:	49 8b 70 18          	mov    0x18(%r8),%rsi
     7c7:	48 39 d6             	cmp    %rdx,%rsi
     7ca:	75 61                	jne    82d <deflate+0x82d>
     7cc:	49 8b 70 38          	mov    0x38(%r8),%rsi
     7d0:	48 63 76 44          	movslq 0x44(%rsi),%rsi
     7d4:	85 f6                	test   %esi,%esi
     7d6:	74 2e                	je     806 <deflate+0x806>
     7d8:	48 39 d1             	cmp    %rdx,%rcx
     7db:	73 29                	jae    806 <deflate+0x806>
     7dd:	48 89 ce             	mov    %rcx,%rsi
     7e0:	49 03 70 10          	add    0x10(%r8),%rsi
     7e4:	48 29 ca             	sub    %rcx,%rdx
     7e7:	49 89 c5             	mov    %rax,%r13
     7ea:	4d 89 c6             	mov    %r8,%r14
     7ed:	49 89 ff             	mov    %rdi,%r15
     7f0:	49 8b 7f 60          	mov    0x60(%r15),%rdi
     7f4:	e8 00 00 00 00       	callq  7f9 <deflate+0x7f9>
     7f9:	49 89 47 60          	mov    %rax,0x60(%r15)
     7fd:	4c 89 e8             	mov    %r13,%rax
     800:	4c 89 ff             	mov    %r15,%rdi
     803:	4d 89 f0             	mov    %r14,%r8
     806:	4d 89 c5             	mov    %r8,%r13
     809:	49 89 c6             	mov    %rax,%r14
     80c:	49 89 ff             	mov    %rdi,%r15
     80f:	e8 dc 39 00 00       	callq  41f0 <flush_pending>
     814:	49 8b 45 28          	mov    0x28(%r13),%rax
     818:	48 85 c0             	test   %rax,%rax
     81b:	0f 85 1e 03 00 00    	jne    b3f <deflate+0xb3f>
     821:	4c 89 f1             	mov    %r14,%rcx
     824:	4c 89 ff             	mov    %r15,%rdi
     827:	4d 89 e8             	mov    %r13,%r8
     82a:	48 89 c8             	mov    %rcx,%rax
     82d:	4d 8b 58 40          	mov    0x40(%r8),%r11
     831:	4d 8d 4b 01          	lea    0x1(%r11),%r9
     835:	49 8b 70 28          	mov    0x28(%r8),%rsi
     839:	48 8d 56 01          	lea    0x1(%rsi),%rdx
     83d:	4d 8b 50 38          	mov    0x38(%r8),%r10
     841:	4d 8b 52 38          	mov    0x38(%r10),%r10
     845:	4d 89 48 40          	mov    %r9,0x40(%r8)
     849:	47 0f b6 0c 13       	movzbl (%r11,%r10,1),%r9d
     84e:	49 89 50 28          	mov    %rdx,0x28(%r8)
     852:	49 8b 50 10          	mov    0x10(%r8),%rdx
     856:	44 88 0c 16          	mov    %r9b,(%rsi,%rdx,1)
     85a:	45 84 c9             	test   %r9b,%r9b
     85d:	0f 85 5c ff ff ff    	jne    7bf <deflate+0x7bf>
     863:	49 8b 50 38          	mov    0x38(%r8),%rdx
     867:	48 63 52 44          	movslq 0x44(%rdx),%rdx
     86b:	85 d2                	test   %edx,%edx
     86d:	0f 85 e5 02 00 00    	jne    b58 <deflate+0xb58>
     873:	4c 8b 6d e8          	mov    -0x18(%rbp),%r13
     877:	b9 01 00 00 00       	mov    $0x1,%ecx
     87c:	4c 8b 7d b0          	mov    -0x50(%rbp),%r15
     880:	4c 8b 75 d0          	mov    -0x30(%rbp),%r14
     884:	48 8b 75 80          	mov    -0x80(%rbp),%rsi
     888:	e9 f2 fa ff ff       	jmpq   37f <deflate+0x37f>
     88d:	49 8b 50 18          	mov    0x18(%r8),%rdx
     891:	49 8b 48 28          	mov    0x28(%r8),%rcx
     895:	48 83 c1 02          	add    $0x2,%rcx
     899:	48 39 ca             	cmp    %rcx,%rdx
     89c:	0f 82 dd 02 00 00    	jb     b7f <deflate+0xb7f>
     8a2:	49 8b 70 28          	mov    0x28(%r8),%rsi
     8a6:	48 8d 4e 01          	lea    0x1(%rsi),%rcx
     8aa:	49 89 48 28          	mov    %rcx,0x28(%r8)
     8ae:	0f b6 57 60          	movzbl 0x60(%rdi),%edx
     8b2:	49 8b 48 10          	mov    0x10(%r8),%rcx
     8b6:	88 14 0e             	mov    %dl,(%rsi,%rcx,1)
     8b9:	49 8b 70 28          	mov    0x28(%r8),%rsi
     8bd:	48 8d 4e 01          	lea    0x1(%rsi),%rcx
     8c1:	49 89 48 28          	mov    %rcx,0x28(%r8)
     8c5:	48 8b 4f 60          	mov    0x60(%rdi),%rcx
     8c9:	48 c1 e9 08          	shr    $0x8,%rcx
     8cd:	49 8b 50 10          	mov    0x10(%r8),%rdx
     8d1:	88 0c 16             	mov    %cl,(%rsi,%rdx,1)
     8d4:	48 89 c6             	mov    %rax,%rsi
     8d7:	48 89 c2             	mov    %rax,%rdx
     8da:	4c 89 75 d0          	mov    %r14,-0x30(%rbp)
     8de:	4c 89 7d 88          	mov    %r15,-0x78(%rbp)
     8e2:	4d 89 c6             	mov    %r8,%r14
     8e5:	49 89 ff             	mov    %rdi,%r15
     8e8:	48 89 c7             	mov    %rax,%rdi
     8eb:	e8 00 00 00 00       	callq  8f0 <deflate+0x8f0>
     8f0:	49 89 47 60          	mov    %rax,0x60(%r15)
     8f4:	4c 89 ff             	mov    %r15,%rdi
     8f7:	4d 89 f0             	mov    %r14,%r8
     8fa:	4c 8b 7d 88          	mov    -0x78(%rbp),%r15
     8fe:	4c 8b 75 d0          	mov    -0x30(%rbp),%r14
     902:	e9 95 fa ff ff       	jmpq   39c <deflate+0x39c>
     907:	41 c7 46 4c ff ff ff 	movl   $0xffffffff,0x4c(%r14)
     90e:	ff 
     90f:	31 c0                	xor    %eax,%eax
     911:	4c 8b 7d b8          	mov    -0x48(%rbp),%r15
     915:	4c 8b 75 d8          	mov    -0x28(%rbp),%r14
     919:	c9                   	leaveq 
     91a:	c3                   	retq   
     91b:	49 63 50 08          	movslq 0x8(%r8),%rdx
     91f:	81 fa 9a 02 00 00    	cmp    $0x29a,%edx
     925:	0f 85 74 f8 ff ff    	jne    19f <deflate+0x19f>
     92b:	e9 cf fa ff ff       	jmpq   3ff <deflate+0x3ff>
     930:	49 63 40 30          	movslq 0x30(%r8),%rax
     934:	85 c0                	test   %eax,%eax
     936:	0f 8f 6e 02 00 00    	jg     baa <deflate+0xbaa>
     93c:	48 89 c8             	mov    %rcx,%rax
     93f:	c9                   	leaveq 
     940:	c3                   	retq   
     941:	8b 47 20             	mov    0x20(%rdi),%eax
     944:	85 c0                	test   %eax,%eax
     946:	0f 84 a8 02 00 00    	je     bf4 <deflate+0xbf4>
     94c:	31 c0                	xor    %eax,%eax
     94e:	4c 8b 7d b8          	mov    -0x48(%rbp),%r15
     952:	4c 8b 75 d8          	mov    -0x28(%rbp),%r14
     956:	c9                   	leaveq 
     957:	c3                   	retq   
     958:	4c 8b 4d 80          	mov    -0x80(%rbp),%r9
     95c:	41 83 f9 01          	cmp    $0x1,%r9d
     960:	0f 84 a2 02 00 00    	je     c08 <deflate+0xc08>
     966:	41 83 f9 05          	cmp    $0x5,%r9d
     96a:	0f 84 ac 02 00 00    	je     c1c <deflate+0xc1c>
     970:	31 f6                	xor    %esi,%esi
     972:	48 89 f2             	mov    %rsi,%rdx
     975:	48 89 f1             	mov    %rsi,%rcx
     978:	4c 89 c0             	mov    %r8,%rax
     97b:	4c 89 6d e8          	mov    %r13,-0x18(%rbp)
     97f:	4d 89 cd             	mov    %r9,%r13
     982:	49 89 fe             	mov    %rdi,%r14
     985:	48 89 c7             	mov    %rax,%rdi
     988:	4d 89 c7             	mov    %r8,%r15
     98b:	e8 00 00 00 00       	callq  990 <deflate+0x990>
     990:	41 83 fd 03          	cmp    $0x3,%r13d
     994:	0f 84 b7 02 00 00    	je     c51 <deflate+0xc51>
     99a:	4c 89 f7             	mov    %r14,%rdi
     99d:	4d 89 f8             	mov    %r15,%r8
     9a0:	4c 8b 6d e8          	mov    -0x18(%rbp),%r13
     9a4:	e9 73 02 00 00       	jmpq   c1c <deflate+0xc1c>
     9a9:	83 fa 06             	cmp    $0x6,%edx
     9ac:	0f 84 ee 02 00 00    	je     ca0 <deflate+0xca0>
     9b2:	b8 c0 00 00 00       	mov    $0xc0,%eax
     9b7:	e9 b3 f8 ff ff       	jmpq   26f <deflate+0x26f>
     9bc:	41 c7 47 4c ff ff ff 	movl   $0xffffffff,0x4c(%r15)
     9c3:	ff 
     9c4:	31 c0                	xor    %eax,%eax
     9c6:	4c 8b 7d a0          	mov    -0x60(%rbp),%r15
     9ca:	4c 8b 75 c0          	mov    -0x40(%rbp),%r14
     9ce:	c9                   	leaveq 
     9cf:	c3                   	retq   
     9d0:	49 63 87 c8 00 00 00 	movslq 0xc8(%r15),%rax
     9d7:	83 f8 01             	cmp    $0x1,%eax
     9da:	0f 8e ca 02 00 00    	jle    caa <deflate+0xcaa>
     9e0:	4c 89 d8             	mov    %r11,%rax
     9e3:	e9 1d fc ff ff       	jmpq   605 <deflate+0x605>
     9e8:	41 c7 47 4c ff ff ff 	movl   $0xffffffff,0x4c(%r15)
     9ef:	ff 
     9f0:	31 c0                	xor    %eax,%eax
     9f2:	4c 8b 7d a0          	mov    -0x60(%rbp),%r15
     9f6:	4c 8b 75 c0          	mov    -0x40(%rbp),%r14
     9fa:	c9                   	leaveq 
     9fb:	c3                   	retq   
     9fc:	31 f6                	xor    %esi,%esi
     9fe:	49 8b 4a 28          	mov    0x28(%r10),%rcx
     a02:	48 85 c9             	test   %rcx,%rcx
     a05:	0f 84 af 02 00 00    	je     cba <deflate+0xcba>
     a0b:	ba 08 00 00 00       	mov    $0x8,%edx
     a10:	e9 a7 02 00 00       	jmpq   cbc <deflate+0xcbc>
     a15:	48 29 cb             	sub    %rcx,%rbx
     a18:	41 89 dc             	mov    %ebx,%r12d
     a1b:	49 03 48 10          	add    0x10(%r8),%rcx
     a1f:	49 8b 40 38          	mov    0x38(%r8),%rax
     a23:	49 8b 70 40          	mov    0x40(%r8),%rsi
     a27:	48 03 70 18          	add    0x18(%rax),%rsi
     a2b:	4c 89 e2             	mov    %r12,%rdx
     a2e:	4c 89 4d 90          	mov    %r9,-0x70(%rbp)
     a32:	49 89 fd             	mov    %rdi,%r13
     a35:	48 89 cf             	mov    %rcx,%rdi
     a38:	4d 89 c6             	mov    %r8,%r14
     a3b:	e8 00 00 00 00       	callq  a40 <deflate+0xa40>
     a40:	49 8b 56 18          	mov    0x18(%r14),%rdx
     a44:	49 89 56 28          	mov    %rdx,0x28(%r14)
     a48:	49 8b 46 38          	mov    0x38(%r14),%rax
     a4c:	48 63 40 44          	movslq 0x44(%rax),%rax
     a50:	85 c0                	test   %eax,%eax
     a52:	74 1c                	je     a70 <deflate+0xa70>
     a54:	4c 39 fa             	cmp    %r15,%rdx
     a57:	76 17                	jbe    a70 <deflate+0xa70>
     a59:	4c 89 fe             	mov    %r15,%rsi
     a5c:	49 03 76 10          	add    0x10(%r14),%rsi
     a60:	4c 29 fa             	sub    %r15,%rdx
     a63:	49 8b 7d 60          	mov    0x60(%r13),%rdi
     a67:	e8 00 00 00 00       	callq  a6c <deflate+0xa6c>
     a6c:	49 89 45 60          	mov    %rax,0x60(%r13)
     a70:	4d 03 66 40          	add    0x40(%r14),%r12
     a74:	4d 89 66 40          	mov    %r12,0x40(%r14)
     a78:	4c 89 ef             	mov    %r13,%rdi
     a7b:	e8 70 37 00 00       	callq  41f0 <flush_pending>
     a80:	49 8b 46 28          	mov    0x28(%r14),%rax
     a84:	48 85 c0             	test   %rax,%rax
     a87:	0f 85 46 02 00 00    	jne    cd3 <deflate+0xcd3>
     a8d:	4c 8b 4d 90          	mov    -0x70(%rbp),%r9
     a91:	41 29 d9             	sub    %ebx,%r9d
     a94:	4c 89 ef             	mov    %r13,%rdi
     a97:	4d 89 f0             	mov    %r14,%r8
     a9a:	31 c0                	xor    %eax,%eax
     a9c:	49 89 c7             	mov    %rax,%r15
     a9f:	49 8b 48 28          	mov    0x28(%r8),%rcx
     aa3:	45 89 cc             	mov    %r9d,%r12d
     aa6:	4a 8d 14 21          	lea    (%rcx,%r12,1),%rdx
     aaa:	49 8b 58 18          	mov    0x18(%r8),%rbx
     aae:	48 39 d3             	cmp    %rdx,%rbx
     ab1:	0f 82 5e ff ff ff    	jb     a15 <deflate+0xa15>
     ab7:	49 03 48 10          	add    0x10(%r8),%rcx
     abb:	49 8b 50 38          	mov    0x38(%r8),%rdx
     abf:	49 8b 70 40          	mov    0x40(%r8),%rsi
     ac3:	48 03 72 18          	add    0x18(%rdx),%rsi
     ac7:	48 89 fb             	mov    %rdi,%rbx
     aca:	48 89 cf             	mov    %rcx,%rdi
     acd:	4d 89 c5             	mov    %r8,%r13
     ad0:	49 89 c6             	mov    %rax,%r14
     ad3:	4c 89 e2             	mov    %r12,%rdx
     ad6:	e8 00 00 00 00       	callq  adb <deflate+0xadb>
     adb:	4d 03 65 28          	add    0x28(%r13),%r12
     adf:	4d 89 65 28          	mov    %r12,0x28(%r13)
     ae3:	49 8b 45 38          	mov    0x38(%r13),%rax
     ae7:	48 63 40 44          	movslq 0x44(%rax),%rax
     aeb:	85 c0                	test   %eax,%eax
     aed:	0f 85 00 02 00 00    	jne    cf3 <deflate+0xcf3>
     af3:	4c 89 f0             	mov    %r14,%rax
     af6:	48 89 df             	mov    %rbx,%rdi
     af9:	4d 89 e8             	mov    %r13,%r8
     afc:	49 c7 40 40 00 00 00 	movq   $0x0,0x40(%r8)
     b03:	00 
     b04:	4c 8b 6d e0          	mov    -0x20(%rbp),%r13
     b08:	4c 8b 65 f0          	mov    -0x10(%rbp),%r12
     b0c:	48 8b 5d f8          	mov    -0x8(%rbp),%rbx
     b10:	b9 01 00 00 00       	mov    $0x1,%ecx
     b15:	4c 8b 7d a8          	mov    -0x58(%rbp),%r15
     b19:	4c 8b 75 c8          	mov    -0x38(%rbp),%r14
     b1d:	48 8b 75 80          	mov    -0x80(%rbp),%rsi
     b21:	e9 1d f8 ff ff       	jmpq   343 <deflate+0x343>
     b26:	41 c7 46 4c ff ff ff 	movl   $0xffffffff,0x4c(%r14)
     b2d:	ff 
     b2e:	4c 89 e8             	mov    %r13,%rax
     b31:	4c 8b 6d e0          	mov    -0x20(%rbp),%r13
     b35:	4c 8b 7d a8          	mov    -0x58(%rbp),%r15
     b39:	4c 8b 75 c8          	mov    -0x38(%rbp),%r14
     b3d:	c9                   	leaveq 
     b3e:	c3                   	retq   
     b3f:	41 c7 45 4c ff ff ff 	movl   $0xffffffff,0x4c(%r13)
     b46:	ff 
     b47:	4c 89 f0             	mov    %r14,%rax
     b4a:	4c 8b 6d e8          	mov    -0x18(%rbp),%r13
     b4e:	4c 8b 7d b0          	mov    -0x50(%rbp),%r15
     b52:	4c 8b 75 d0          	mov    -0x30(%rbp),%r14
     b56:	c9                   	leaveq 
     b57:	c3                   	retq   
     b58:	49 8b 50 28          	mov    0x28(%r8),%rdx
     b5c:	48 39 d1             	cmp    %rdx,%rcx
     b5f:	0f 82 a5 01 00 00    	jb     d0a <deflate+0xd0a>
     b65:	4c 8b 6d e8          	mov    -0x18(%rbp),%r13
     b69:	b9 01 00 00 00       	mov    $0x1,%ecx
     b6e:	4c 8b 7d b0          	mov    -0x50(%rbp),%r15
     b72:	4c 8b 75 d0          	mov    -0x30(%rbp),%r14
     b76:	48 8b 75 80          	mov    -0x80(%rbp),%rsi
     b7a:	e9 00 f8 ff ff       	jmpq   37f <deflate+0x37f>
     b7f:	4c 89 7d b0          	mov    %r15,-0x50(%rbp)
     b83:	4d 89 c7             	mov    %r8,%r15
     b86:	e8 65 36 00 00       	callq  41f0 <flush_pending>
     b8b:	49 8b 47 28          	mov    0x28(%r15),%rax
     b8f:	48 85 c0             	test   %rax,%rax
     b92:	0f 85 b5 01 00 00    	jne    d4d <deflate+0xd4d>
     b98:	4d 89 f8             	mov    %r15,%r8
     b9b:	31 c0                	xor    %eax,%eax
     b9d:	4c 8b 7d b0          	mov    -0x50(%rbp),%r15
     ba1:	48 8b 7d 88          	mov    -0x78(%rbp),%rdi
     ba5:	e9 f8 fc ff ff       	jmpq   8a2 <deflate+0x8a2>
     baa:	83 f8 02             	cmp    $0x2,%eax
     bad:	0f 84 aa 01 00 00    	je     d5d <deflate+0xd5d>
     bb3:	48 8b 77 60          	mov    0x60(%rdi),%rsi
     bb7:	48 c1 ee 10          	shr    $0x10,%rsi
     bbb:	4c 89 c0             	mov    %r8,%rax
     bbe:	4c 89 75 d8          	mov    %r14,-0x28(%rbp)
     bc2:	4c 89 7d 80          	mov    %r15,-0x80(%rbp)
     bc6:	49 89 fe             	mov    %rdi,%r14
     bc9:	48 89 c7             	mov    %rax,%rdi
     bcc:	4d 89 c7             	mov    %r8,%r15
     bcf:	e8 dc 35 00 00       	callq  41b0 <putShortMSB>
     bd4:	41 0f b7 76 60       	movzwl 0x60(%r14),%esi
     bd9:	4c 89 ff             	mov    %r15,%rdi
     bdc:	e8 cf 35 00 00       	callq  41b0 <putShortMSB>
     be1:	4c 89 f7             	mov    %r14,%rdi
     be4:	4d 89 f8             	mov    %r15,%r8
     be7:	4c 8b 7d 80          	mov    -0x80(%rbp),%r15
     beb:	4c 8b 75 d8          	mov    -0x28(%rbp),%r14
     bef:	e9 39 02 00 00       	jmpq   e2d <deflate+0xe2d>
     bf4:	41 c7 40 4c ff ff ff 	movl   $0xffffffff,0x4c(%r8)
     bfb:	ff 
     bfc:	31 c0                	xor    %eax,%eax
     bfe:	4c 8b 7d b8          	mov    -0x48(%rbp),%r15
     c02:	4c 8b 75 d8          	mov    -0x28(%rbp),%r14
     c06:	c9                   	leaveq 
     c07:	c3                   	retq   
     c08:	4d 89 c6             	mov    %r8,%r14
     c0b:	49 89 ff             	mov    %rdi,%r15
     c0e:	4c 89 f7             	mov    %r14,%rdi
     c11:	e8 00 00 00 00       	callq  c16 <deflate+0xc16>
     c16:	4c 89 ff             	mov    %r15,%rdi
     c19:	4d 89 f0             	mov    %r14,%r8
     c1c:	4d 89 c6             	mov    %r8,%r14
     c1f:	49 89 ff             	mov    %rdi,%r15
     c22:	e8 c9 35 00 00       	callq  41f0 <flush_pending>
     c27:	41 8b 47 20          	mov    0x20(%r15),%eax
     c2b:	85 c0                	test   %eax,%eax
     c2d:	0f 84 29 02 00 00    	je     e5c <deflate+0xe5c>
     c33:	4c 89 ff             	mov    %r15,%rdi
     c36:	4d 89 f0             	mov    %r14,%r8
     c39:	b9 01 00 00 00       	mov    $0x1,%ecx
     c3e:	31 c0                	xor    %eax,%eax
     c40:	4c 8b 7d b8          	mov    -0x48(%rbp),%r15
     c44:	4c 8b 75 d8          	mov    -0x28(%rbp),%r14
     c48:	48 8b 75 80          	mov    -0x80(%rbp),%rsi
     c4c:	e9 ae f7 ff ff       	jmpq   3ff <deflate+0x3ff>
     c51:	49 8b 4f 78          	mov    0x78(%r15),%rcx
     c55:	41 8b 87 84 00 00 00 	mov    0x84(%r15),%eax
     c5c:	83 c0 ff             	add    $0xffffffff,%eax
     c5f:	89 c0                	mov    %eax,%eax
     c61:	66 c7 04 41 00 00    	movw   $0x0,(%rcx,%rax,2)
     c67:	49 8b 7f 78          	mov    0x78(%r15),%rdi
     c6b:	41 8b 87 84 00 00 00 	mov    0x84(%r15),%eax
     c72:	83 c0 ff             	add    $0xffffffff,%eax
     c75:	89 c0                	mov    %eax,%eax
     c77:	48 8d 14 00          	lea    (%rax,%rax,1),%rdx
     c7b:	31 f6                	xor    %esi,%esi
     c7d:	e8 00 00 00 00       	callq  c82 <deflate+0xc82>
     c82:	41 8b 87 b4 00 00 00 	mov    0xb4(%r15),%eax
     c89:	85 c0                	test   %eax,%eax
     c8b:	0f 84 df 01 00 00    	je     e70 <deflate+0xe70>
     c91:	4c 89 f7             	mov    %r14,%rdi
     c94:	4d 89 f8             	mov    %r15,%r8
     c97:	4c 8b 6d e8          	mov    -0x18(%rbp),%r13
     c9b:	e9 7c ff ff ff       	jmpq   c1c <deflate+0xc1c>
     ca0:	b8 80 00 00 00       	mov    $0x80,%eax
     ca5:	e9 c5 f5 ff ff       	jmpq   26f <deflate+0x26f>
     caa:	83 f9 01             	cmp    $0x1,%ecx
     cad:	0f 8e ed 01 00 00    	jle    ea0 <deflate+0xea0>
     cb3:	31 c0                	xor    %eax,%eax
     cb5:	e9 4b f9 ff ff       	jmpq   605 <deflate+0x605>
     cba:	31 d2                	xor    %edx,%edx
     cbc:	49 8b 4a 38          	mov    0x38(%r10),%rcx
     cc0:	48 85 c9             	test   %rcx,%rcx
     cc3:	0f 84 df 01 00 00    	je     ea8 <deflate+0xea8>
     cc9:	b9 10 00 00 00       	mov    $0x10,%ecx
     cce:	e9 d7 01 00 00       	jmpq   eaa <deflate+0xeaa>
     cd3:	41 c7 46 4c ff ff ff 	movl   $0xffffffff,0x4c(%r14)
     cda:	ff 
     cdb:	4c 8b 6d e0          	mov    -0x20(%rbp),%r13
     cdf:	4c 8b 65 f0          	mov    -0x10(%rbp),%r12
     ce3:	48 8b 5d f8          	mov    -0x8(%rbp),%rbx
     ce7:	31 c0                	xor    %eax,%eax
     ce9:	4c 8b 7d a8          	mov    -0x58(%rbp),%r15
     ced:	4c 8b 75 c8          	mov    -0x38(%rbp),%r14
     cf1:	c9                   	leaveq 
     cf2:	c3                   	retq   
     cf3:	4d 39 e7             	cmp    %r12,%r15
     cf6:	0f 82 ca 02 00 00    	jb     fc6 <deflate+0xfc6>
     cfc:	4c 89 f0             	mov    %r14,%rax
     cff:	48 89 df             	mov    %rbx,%rdi
     d02:	4d 89 e8             	mov    %r13,%r8
     d05:	e9 f2 fd ff ff       	jmpq   afc <deflate+0xafc>
     d0a:	48 89 ce             	mov    %rcx,%rsi
     d0d:	49 03 70 10          	add    0x10(%r8),%rsi
     d11:	48 29 ca             	sub    %rcx,%rdx
     d14:	49 89 c5             	mov    %rax,%r13
     d17:	4d 89 c6             	mov    %r8,%r14
     d1a:	49 89 ff             	mov    %rdi,%r15
     d1d:	49 8b 7f 60          	mov    0x60(%r15),%rdi
     d21:	e8 00 00 00 00       	callq  d26 <deflate+0xd26>
     d26:	49 89 47 60          	mov    %rax,0x60(%r15)
     d2a:	4c 89 e8             	mov    %r13,%rax
     d2d:	4c 89 ff             	mov    %r15,%rdi
     d30:	4d 89 f0             	mov    %r14,%r8
     d33:	4c 8b 6d e8          	mov    -0x18(%rbp),%r13
     d37:	b9 01 00 00 00       	mov    $0x1,%ecx
     d3c:	4c 8b 7d b0          	mov    -0x50(%rbp),%r15
     d40:	4c 8b 75 d0          	mov    -0x30(%rbp),%r14
     d44:	48 8b 75 80          	mov    -0x80(%rbp),%rsi
     d48:	e9 32 f6 ff ff       	jmpq   37f <deflate+0x37f>
     d4d:	41 c7 47 4c ff ff ff 	movl   $0xffffffff,0x4c(%r15)
     d54:	ff 
     d55:	31 c0                	xor    %eax,%eax
     d57:	4c 8b 7d b0          	mov    -0x50(%rbp),%r15
     d5b:	c9                   	leaveq 
     d5c:	c3                   	retq   
     d5d:	49 8b 50 28          	mov    0x28(%r8),%rdx
     d61:	48 8d 42 01          	lea    0x1(%rdx),%rax
     d65:	49 89 40 28          	mov    %rax,0x28(%r8)
     d69:	0f b6 4f 60          	movzbl 0x60(%rdi),%ecx
     d6d:	49 8b 40 10          	mov    0x10(%r8),%rax
     d71:	88 0c 02             	mov    %cl,(%rdx,%rax,1)
     d74:	49 8b 50 28          	mov    0x28(%r8),%rdx
     d78:	48 8d 42 01          	lea    0x1(%rdx),%rax
     d7c:	49 89 40 28          	mov    %rax,0x28(%r8)
     d80:	48 8b 47 60          	mov    0x60(%rdi),%rax
     d84:	48 c1 e8 08          	shr    $0x8,%rax
     d88:	49 8b 48 10          	mov    0x10(%r8),%rcx
     d8c:	88 04 0a             	mov    %al,(%rdx,%rcx,1)
     d8f:	49 8b 50 28          	mov    0x28(%r8),%rdx
     d93:	48 8d 42 01          	lea    0x1(%rdx),%rax
     d97:	49 89 40 28          	mov    %rax,0x28(%r8)
     d9b:	48 8b 47 60          	mov    0x60(%rdi),%rax
     d9f:	48 c1 e8 10          	shr    $0x10,%rax
     da3:	49 8b 48 10          	mov    0x10(%r8),%rcx
     da7:	88 04 0a             	mov    %al,(%rdx,%rcx,1)
     daa:	49 8b 50 28          	mov    0x28(%r8),%rdx
     dae:	48 8d 42 01          	lea    0x1(%rdx),%rax
     db2:	49 89 40 28          	mov    %rax,0x28(%r8)
     db6:	48 8b 47 60          	mov    0x60(%rdi),%rax
     dba:	48 c1 e8 18          	shr    $0x18,%rax
     dbe:	49 8b 48 10          	mov    0x10(%r8),%rcx
     dc2:	88 04 0a             	mov    %al,(%rdx,%rcx,1)
     dc5:	49 8b 50 28          	mov    0x28(%r8),%rdx
     dc9:	48 8d 42 01          	lea    0x1(%rdx),%rax
     dcd:	49 89 40 28          	mov    %rax,0x28(%r8)
     dd1:	0f b6 4f 10          	movzbl 0x10(%rdi),%ecx
     dd5:	49 8b 40 10          	mov    0x10(%r8),%rax
     dd9:	88 0c 02             	mov    %cl,(%rdx,%rax,1)
     ddc:	49 8b 50 28          	mov    0x28(%r8),%rdx
     de0:	48 8d 42 01          	lea    0x1(%rdx),%rax
     de4:	49 89 40 28          	mov    %rax,0x28(%r8)
     de8:	48 8b 47 10          	mov    0x10(%rdi),%rax
     dec:	48 c1 e8 08          	shr    $0x8,%rax
     df0:	49 8b 48 10          	mov    0x10(%r8),%rcx
     df4:	88 04 0a             	mov    %al,(%rdx,%rcx,1)
     df7:	49 8b 50 28          	mov    0x28(%r8),%rdx
     dfb:	48 8d 42 01          	lea    0x1(%rdx),%rax
     dff:	49 89 40 28          	mov    %rax,0x28(%r8)
     e03:	48 8b 47 10          	mov    0x10(%rdi),%rax
     e07:	48 c1 e8 10          	shr    $0x10,%rax
     e0b:	49 8b 48 10          	mov    0x10(%r8),%rcx
     e0f:	88 04 0a             	mov    %al,(%rdx,%rcx,1)
     e12:	49 8b 50 28          	mov    0x28(%r8),%rdx
     e16:	48 8d 42 01          	lea    0x1(%rdx),%rax
     e1a:	49 89 40 28          	mov    %rax,0x28(%r8)
     e1e:	48 8b 47 10          	mov    0x10(%rdi),%rax
     e22:	48 c1 e8 18          	shr    $0x18,%rax
     e26:	49 8b 48 10          	mov    0x10(%r8),%rcx
     e2a:	88 04 0a             	mov    %al,(%rdx,%rcx,1)
     e2d:	4c 89 7d 80          	mov    %r15,-0x80(%rbp)
     e31:	4d 89 c7             	mov    %r8,%r15
     e34:	e8 b7 33 00 00       	callq  41f0 <flush_pending>
     e39:	49 63 47 30          	movslq 0x30(%r15),%rax
     e3d:	85 c0                	test   %eax,%eax
     e3f:	7e 06                	jle    e47 <deflate+0xe47>
     e41:	f7 d8                	neg    %eax
     e43:	41 89 47 30          	mov    %eax,0x30(%r15)
     e47:	49 8b 47 28          	mov    0x28(%r15),%rax
     e4b:	48 85 c0             	test   %rax,%rax
     e4e:	0f 84 9a 01 00 00    	je     fee <deflate+0xfee>
     e54:	31 c0                	xor    %eax,%eax
     e56:	4c 8b 7d 80          	mov    -0x80(%rbp),%r15
     e5a:	c9                   	leaveq 
     e5b:	c3                   	retq   
     e5c:	41 c7 46 4c ff ff ff 	movl   $0xffffffff,0x4c(%r14)
     e63:	ff 
     e64:	31 c0                	xor    %eax,%eax
     e66:	4c 8b 7d b8          	mov    -0x48(%rbp),%r15
     e6a:	4c 8b 75 d8          	mov    -0x28(%rbp),%r14
     e6e:	c9                   	leaveq 
     e6f:	c3                   	retq   
     e70:	4c 89 f7             	mov    %r14,%rdi
     e73:	4d 89 f8             	mov    %r15,%r8
     e76:	41 c7 80 ac 00 00 00 	movl   $0x0,0xac(%r8)
     e7d:	00 00 00 00 
     e81:	49 c7 80 98 00 00 00 	movq   $0x0,0x98(%r8)
     e88:	00 00 00 00 
     e8c:	41 c7 80 2c 17 00 00 	movl   $0x0,0x172c(%r8)
     e93:	00 00 00 00 
     e97:	4c 8b 6d e8          	mov    -0x18(%rbp),%r13
     e9b:	e9 7c fd ff ff       	jmpq   c1c <deflate+0xc1c>
     ea0:	4c 89 d8             	mov    %r11,%rax
     ea3:	e9 5d f7 ff ff       	jmpq   605 <deflate+0x605>
     ea8:	31 c9                	xor    %ecx,%ecx
     eaa:	4c 8b 55 90          	mov    -0x70(%rbp),%r10
     eae:	44 01 d7             	add    %r10d,%edi
     eb1:	01 fe                	add    %edi,%esi
     eb3:	01 f2                	add    %esi,%edx
     eb5:	01 d1                	add    %edx,%ecx
     eb7:	43 88 0c 01          	mov    %cl,(%r9,%r8,1)
     ebb:	49 8b 77 28          	mov    0x28(%r15),%rsi
     ebf:	48 8d 4e 01          	lea    0x1(%rsi),%rcx
     ec3:	49 89 4f 28          	mov    %rcx,0x28(%r15)
     ec7:	49 8b 4f 38          	mov    0x38(%r15),%rcx
     ecb:	0f b6 51 08          	movzbl 0x8(%rcx),%edx
     ecf:	49 8b 4f 10          	mov    0x10(%r15),%rcx
     ed3:	88 14 0e             	mov    %dl,(%rsi,%rcx,1)
     ed6:	49 8b 77 28          	mov    0x28(%r15),%rsi
     eda:	48 8d 4e 01          	lea    0x1(%rsi),%rcx
     ede:	49 89 4f 28          	mov    %rcx,0x28(%r15)
     ee2:	49 8b 4f 38          	mov    0x38(%r15),%rcx
     ee6:	48 8b 49 08          	mov    0x8(%rcx),%rcx
     eea:	48 c1 e9 08          	shr    $0x8,%rcx
     eee:	49 8b 57 10          	mov    0x10(%r15),%rdx
     ef2:	88 0c 16             	mov    %cl,(%rsi,%rdx,1)
     ef5:	49 8b 77 28          	mov    0x28(%r15),%rsi
     ef9:	48 8d 4e 01          	lea    0x1(%rsi),%rcx
     efd:	49 89 4f 28          	mov    %rcx,0x28(%r15)
     f01:	49 8b 4f 38          	mov    0x38(%r15),%rcx
     f05:	48 8b 49 08          	mov    0x8(%rcx),%rcx
     f09:	48 c1 e9 10          	shr    $0x10,%rcx
     f0d:	49 8b 57 10          	mov    0x10(%r15),%rdx
     f11:	88 0c 16             	mov    %cl,(%rsi,%rdx,1)
     f14:	49 8b 77 28          	mov    0x28(%r15),%rsi
     f18:	48 8d 4e 01          	lea    0x1(%rsi),%rcx
     f1c:	49 89 4f 28          	mov    %rcx,0x28(%r15)
     f20:	49 8b 4f 38          	mov    0x38(%r15),%rcx
     f24:	48 8b 49 08          	mov    0x8(%rcx),%rcx
     f28:	48 c1 e9 18          	shr    $0x18,%rcx
     f2c:	49 8b 57 10          	mov    0x10(%r15),%rdx
     f30:	88 0c 16             	mov    %cl,(%rsi,%rdx,1)
     f33:	49 8b 4f 10          	mov    0x10(%r15),%rcx
     f37:	49 8b 77 28          	mov    0x28(%r15),%rsi
     f3b:	48 8d 56 01          	lea    0x1(%rsi),%rdx
     f3f:	49 89 57 28          	mov    %rdx,0x28(%r15)
     f43:	49 63 97 c4 00 00 00 	movslq 0xc4(%r15),%rdx
     f4a:	83 fa 09             	cmp    $0x9,%edx
     f4d:	0f 85 a6 00 00 00    	jne    ff9 <deflate+0xff9>
     f53:	88 04 31             	mov    %al,(%rcx,%rsi,1)
     f56:	49 8b 57 28          	mov    0x28(%r15),%rdx
     f5a:	48 8d 42 01          	lea    0x1(%rdx),%rax
     f5e:	49 89 47 28          	mov    %rax,0x28(%r15)
     f62:	49 8b 47 38          	mov    0x38(%r15),%rax
     f66:	0f b6 48 14          	movzbl 0x14(%rax),%ecx
     f6a:	49 8b 47 10          	mov    0x10(%r15),%rax
     f6e:	88 0c 02             	mov    %cl,(%rdx,%rax,1)
     f71:	49 8b 4f 38          	mov    0x38(%r15),%rcx
     f75:	48 8b 41 18          	mov    0x18(%rcx),%rax
     f79:	48 85 c0             	test   %rax,%rax
     f7c:	74 34                	je     fb2 <deflate+0xfb2>
     f7e:	49 8b 57 28          	mov    0x28(%r15),%rdx
     f82:	48 8d 42 01          	lea    0x1(%rdx),%rax
     f86:	49 89 47 28          	mov    %rax,0x28(%r15)
     f8a:	0f b6 49 20          	movzbl 0x20(%rcx),%ecx
     f8e:	49 8b 47 10          	mov    0x10(%r15),%rax
     f92:	88 0c 02             	mov    %cl,(%rdx,%rax,1)
     f95:	49 8b 57 28          	mov    0x28(%r15),%rdx
     f99:	48 8d 42 01          	lea    0x1(%rdx),%rax
     f9d:	49 89 47 28          	mov    %rax,0x28(%r15)
     fa1:	49 8b 47 38          	mov    0x38(%r15),%rax
     fa5:	8b 40 20             	mov    0x20(%rax),%eax
     fa8:	c1 e8 08             	shr    $0x8,%eax
     fab:	49 8b 4f 10          	mov    0x10(%r15),%rcx
     faf:	88 04 0a             	mov    %al,(%rdx,%rcx,1)
     fb2:	49 8b 47 38          	mov    0x38(%r15),%rax
     fb6:	48 63 40 44          	movslq 0x44(%rax),%rax
     fba:	85 c0                	test   %eax,%eax
     fbc:	75 4f                	jne    100d <deflate+0x100d>
     fbe:	4c 89 f7             	mov    %r14,%rdi
     fc1:	4d 89 f8             	mov    %r15,%r8
     fc4:	eb 62                	jmp    1028 <deflate+0x1028>
     fc6:	4c 89 fe             	mov    %r15,%rsi
     fc9:	49 03 75 10          	add    0x10(%r13),%rsi
     fcd:	4d 29 fc             	sub    %r15,%r12
     fd0:	4c 89 e2             	mov    %r12,%rdx
     fd3:	48 8b 7b 60          	mov    0x60(%rbx),%rdi
     fd7:	e8 00 00 00 00       	callq  fdc <deflate+0xfdc>
     fdc:	48 89 43 60          	mov    %rax,0x60(%rbx)
     fe0:	4c 89 f0             	mov    %r14,%rax
     fe3:	48 89 df             	mov    %rbx,%rdi
     fe6:	4d 89 e8             	mov    %r13,%r8
     fe9:	e9 0e fb ff ff       	jmpq   afc <deflate+0xafc>
     fee:	b8 01 00 00 00       	mov    $0x1,%eax
     ff3:	4c 8b 7d 80          	mov    -0x80(%rbp),%r15
     ff7:	c9                   	leaveq 
     ff8:	c3                   	retq   
     ff9:	49 63 87 c8 00 00 00 	movslq 0xc8(%r15),%rax
    1000:	83 f8 01             	cmp    $0x1,%eax
    1003:	7e 4b                	jle    1050 <deflate+0x1050>
    1005:	4c 89 d8             	mov    %r11,%rax
    1008:	e9 46 ff ff ff       	jmpq   f53 <deflate+0xf53>
    100d:	49 8b 7e 60          	mov    0x60(%r14),%rdi
    1011:	49 8b 77 10          	mov    0x10(%r15),%rsi
    1015:	41 8b 57 28          	mov    0x28(%r15),%edx
    1019:	e8 00 00 00 00       	callq  101e <deflate+0x101e>
    101e:	49 89 46 60          	mov    %rax,0x60(%r14)
    1022:	4c 89 f7             	mov    %r14,%rdi
    1025:	4d 89 f8             	mov    %r15,%r8
    1028:	49 c7 40 40 00 00 00 	movq   $0x0,0x40(%r8)
    102f:	00 
    1030:	41 c7 40 08 45 00 00 	movl   $0x45,0x8(%r8)
    1037:	00 
    1038:	b9 01 00 00 00       	mov    $0x1,%ecx
    103d:	31 c0                	xor    %eax,%eax
    103f:	4c 8b 7d a0          	mov    -0x60(%rbp),%r15
    1043:	4c 8b 75 c0          	mov    -0x40(%rbp),%r14
    1047:	48 8b 75 80          	mov    -0x80(%rbp),%rsi
    104b:	e9 10 f1 ff ff       	jmpq   160 <deflate+0x160>
    1050:	83 fa 01             	cmp    $0x1,%edx
    1053:	7e 07                	jle    105c <deflate+0x105c>
    1055:	31 c0                	xor    %eax,%eax
    1057:	e9 f7 fe ff ff       	jmpq   f53 <deflate+0xf53>
    105c:	4c 89 d8             	mov    %r11,%rax
    105f:	e9 ef fe ff ff       	jmpq   f53 <deflate+0xf53>
    1064:	66 66 2e 0f 1f 84 00 	data16 nopw %cs:0x0(%rax,%rax,1)
    106b:	00 00 00 00 
    106f:	90                   	nop

0000000000001070 <deflateEnd>:
    1070:	55                   	push   %rbp
    1071:	48 89 e5             	mov    %rsp,%rbp
    1074:	48 83 ec 10          	sub    $0x10,%rsp
    1078:	4c 89 7d f0          	mov    %r15,-0x10(%rbp)
    107c:	4d 89 f7             	mov    %r14,%r15
    107f:	4c 89 7d f8          	mov    %r15,-0x8(%rbp)
    1083:	49 89 fe             	mov    %rdi,%r14
    1086:	e8 95 10 00 00       	callq  2120 <deflateStateCheck>
    108b:	85 c0                	test   %eax,%eax
    108d:	74 10                	je     109f <deflateEnd+0x2f>
    108f:	4d 89 fe             	mov    %r15,%r14
    1092:	48 c7 c0 fe ff ff ff 	mov    $0xfffffffffffffffe,%rax
    1099:	4c 8b 7d f0          	mov    -0x10(%rbp),%r15
    109d:	c9                   	leaveq 
    109e:	c3                   	retq   
    109f:	49 8b 46 38          	mov    0x38(%r14),%rax
    10a3:	4c 63 78 08          	movslq 0x8(%rax),%r15
    10a7:	48 8b 70 10          	mov    0x10(%rax),%rsi
    10ab:	48 85 f6             	test   %rsi,%rsi
    10ae:	74 0a                	je     10ba <deflateEnd+0x4a>
    10b0:	49 8b 46 48          	mov    0x48(%r14),%rax
    10b4:	49 8b 7e 50          	mov    0x50(%r14),%rdi
    10b8:	ff d0                	callq  *%rax
    10ba:	49 8b 46 38          	mov    0x38(%r14),%rax
    10be:	48 8b 70 78          	mov    0x78(%rax),%rsi
    10c2:	48 85 f6             	test   %rsi,%rsi
    10c5:	74 0a                	je     10d1 <deflateEnd+0x61>
    10c7:	49 8b 46 48          	mov    0x48(%r14),%rax
    10cb:	49 8b 7e 50          	mov    0x50(%r14),%rdi
    10cf:	ff d0                	callq  *%rax
    10d1:	49 8b 46 38          	mov    0x38(%r14),%rax
    10d5:	48 8b 70 70          	mov    0x70(%rax),%rsi
    10d9:	48 85 f6             	test   %rsi,%rsi
    10dc:	74 0a                	je     10e8 <deflateEnd+0x78>
    10de:	49 8b 46 48          	mov    0x48(%r14),%rax
    10e2:	49 8b 7e 50          	mov    0x50(%r14),%rdi
    10e6:	ff d0                	callq  *%rax
    10e8:	49 8b 46 38          	mov    0x38(%r14),%rax
    10ec:	48 8b 70 60          	mov    0x60(%rax),%rsi
    10f0:	48 85 f6             	test   %rsi,%rsi
    10f3:	74 0a                	je     10ff <deflateEnd+0x8f>
    10f5:	49 8b 46 48          	mov    0x48(%r14),%rax
    10f9:	49 8b 7e 50          	mov    0x50(%r14),%rdi
    10fd:	ff d0                	callq  *%rax
    10ff:	49 8b 46 48          	mov    0x48(%r14),%rax
    1103:	49 8b 7e 50          	mov    0x50(%r14),%rdi
    1107:	49 8b 76 38          	mov    0x38(%r14),%rsi
    110b:	ff d0                	callq  *%rax
    110d:	49 c7 46 38 00 00 00 	movq   $0x0,0x38(%r14)
    1114:	00 
    1115:	41 83 ff 71          	cmp    $0x71,%r15d
    1119:	75 11                	jne    112c <deflateEnd+0xbc>
    111b:	48 c7 c0 fd ff ff ff 	mov    $0xfffffffffffffffd,%rax
    1122:	4c 8b 75 f8          	mov    -0x8(%rbp),%r14
    1126:	4c 8b 7d f0          	mov    -0x10(%rbp),%r15
    112a:	c9                   	leaveq 
    112b:	c3                   	retq   
    112c:	31 c0                	xor    %eax,%eax
    112e:	4c 8b 75 f8          	mov    -0x8(%rbp),%r14
    1132:	4c 8b 7d f0          	mov    -0x10(%rbp),%r15
    1136:	c9                   	leaveq 
    1137:	c3                   	retq   
    1138:	0f 1f 84 00 00 00 00 	nopl   0x0(%rax,%rax,1)
    113f:	00 

0000000000001140 <deflateSetDictionary>:
    1140:	55                   	push   %rbp
    1141:	48 89 e5             	mov    %rsp,%rbp
    1144:	48 83 ec 40          	sub    $0x40,%rsp
    1148:	48 89 75 c0          	mov    %rsi,-0x40(%rbp)
    114c:	48 89 7d c8          	mov    %rdi,-0x38(%rbp)
    1150:	48 89 55 d0          	mov    %rdx,-0x30(%rbp)
    1154:	e8 c7 0f 00 00       	callq  2120 <deflateStateCheck>
    1159:	85 c0                	test   %eax,%eax
    115b:	74 09                	je     1166 <deflateSetDictionary+0x26>
    115d:	48 c7 c0 fe ff ff ff 	mov    $0xfffffffffffffffe,%rax
    1164:	c9                   	leaveq 
    1165:	c3                   	retq   
    1166:	48 8b 45 c0          	mov    -0x40(%rbp),%rax
    116a:	48 85 c0             	test   %rax,%rax
    116d:	75 09                	jne    1178 <deflateSetDictionary+0x38>
    116f:	48 c7 c0 fe ff ff ff 	mov    $0xfffffffffffffffe,%rax
    1176:	c9                   	leaveq 
    1177:	c3                   	retq   
    1178:	4c 8b 55 c8          	mov    -0x38(%rbp),%r10
    117c:	4d 8b 42 38          	mov    0x38(%r10),%r8
    1180:	4d 63 48 30          	movslq 0x30(%r8),%r9
    1184:	41 83 f9 02          	cmp    $0x2,%r9d
    1188:	75 09                	jne    1193 <deflateSetDictionary+0x53>
    118a:	48 c7 c0 fe ff ff ff 	mov    $0xfffffffffffffffe,%rax
    1191:	c9                   	leaveq 
    1192:	c3                   	retq   
    1193:	41 83 f9 01          	cmp    $0x1,%r9d
    1197:	75 12                	jne    11ab <deflateSetDictionary+0x6b>
    1199:	49 63 48 08          	movslq 0x8(%r8),%rcx
    119d:	83 f9 2a             	cmp    $0x2a,%ecx
    11a0:	74 09                	je     11ab <deflateSetDictionary+0x6b>
    11a2:	48 c7 c0 fe ff ff ff 	mov    $0xfffffffffffffffe,%rax
    11a9:	c9                   	leaveq 
    11aa:	c3                   	retq   
    11ab:	41 8b 88 b4 00 00 00 	mov    0xb4(%r8),%ecx
    11b2:	85 c9                	test   %ecx,%ecx
    11b4:	74 09                	je     11bf <deflateSetDictionary+0x7f>
    11b6:	48 c7 c0 fe ff ff ff 	mov    $0xfffffffffffffffe,%rax
    11bd:	c9                   	leaveq 
    11be:	c3                   	retq   
    11bf:	41 83 f9 01          	cmp    $0x1,%r9d
    11c3:	74 21                	je     11e6 <deflateSetDictionary+0xa6>
    11c5:	4c 89 c1             	mov    %r8,%rcx
    11c8:	49 89 d8             	mov    %rbx,%r8
    11cb:	48 89 cb             	mov    %rcx,%rbx
    11ce:	4c 89 e1             	mov    %r12,%rcx
    11d1:	4d 89 cc             	mov    %r9,%r12
    11d4:	49 89 c9             	mov    %rcx,%r9
    11d7:	4c 89 e9             	mov    %r13,%rcx
    11da:	4d 89 d5             	mov    %r10,%r13
    11dd:	49 89 ca             	mov    %rcx,%r10
    11e0:	48 8b 4d d0          	mov    -0x30(%rbp),%rcx
    11e4:	eb 54                	jmp    123a <deflateSetDictionary+0xfa>
    11e6:	49 8b 7a 60          	mov    0x60(%r10),%rdi
    11ea:	48 89 c6             	mov    %rax,%rsi
    11ed:	48 8b 4d d0          	mov    -0x30(%rbp),%rcx
    11f1:	48 89 ca             	mov    %rcx,%rdx
    11f4:	48 89 5d f0          	mov    %rbx,-0x10(%rbp)
    11f8:	4c 89 65 e8          	mov    %r12,-0x18(%rbp)
    11fc:	4c 89 6d d8          	mov    %r13,-0x28(%rbp)
    1200:	4c 89 75 c8          	mov    %r14,-0x38(%rbp)
    1204:	4c 89 7d c0          	mov    %r15,-0x40(%rbp)
    1208:	4c 89 c3             	mov    %r8,%rbx
    120b:	4d 89 cc             	mov    %r9,%r12
    120e:	4d 89 d5             	mov    %r10,%r13
    1211:	49 89 ce             	mov    %rcx,%r14
    1214:	49 89 c7             	mov    %rax,%r15
    1217:	e8 00 00 00 00       	callq  121c <deflateSetDictionary+0xdc>
    121c:	49 89 45 60          	mov    %rax,0x60(%r13)
    1220:	4c 89 f8             	mov    %r15,%rax
    1223:	4c 89 f1             	mov    %r14,%rcx
    1226:	4c 8b 7d c0          	mov    -0x40(%rbp),%r15
    122a:	4c 8b 75 c8          	mov    -0x38(%rbp),%r14
    122e:	4c 8b 55 d8          	mov    -0x28(%rbp),%r10
    1232:	4c 8b 4d e8          	mov    -0x18(%rbp),%r9
    1236:	4c 8b 45 f0          	mov    -0x10(%rbp),%r8
    123a:	c7 43 30 00 00 00 00 	movl   $0x0,0x30(%rbx)
    1241:	31 f6                	xor    %esi,%esi
    1243:	8b 53 50             	mov    0x50(%rbx),%edx
    1246:	39 ca                	cmp    %ecx,%edx
    1248:	76 0b                	jbe    1255 <deflateSetDictionary+0x115>
    124a:	4c 89 f2             	mov    %r14,%rdx
    124d:	4c 89 fe             	mov    %r15,%rsi
    1250:	e9 9b 00 00 00       	jmpq   12f0 <deflateSetDictionary+0x1b0>
    1255:	45 85 e4             	test   %r12d,%r12d
    1258:	74 05                	je     125f <deflateSetDictionary+0x11f>
    125a:	49 89 cb             	mov    %rcx,%r11
    125d:	eb 7f                	jmp    12de <deflateSetDictionary+0x19e>
    125f:	48 8b 7b 78          	mov    0x78(%rbx),%rdi
    1263:	8b 93 84 00 00 00    	mov    0x84(%rbx),%edx
    1269:	83 c2 ff             	add    $0xffffffff,%edx
    126c:	89 d2                	mov    %edx,%edx
    126e:	66 c7 04 57 00 00    	movw   $0x0,(%rdi,%rdx,2)
    1274:	48 8b 7b 78          	mov    0x78(%rbx),%rdi
    1278:	8b 93 84 00 00 00    	mov    0x84(%rbx),%edx
    127e:	83 c2 ff             	add    $0xffffffff,%edx
    1281:	89 d2                	mov    %edx,%edx
    1283:	48 01 d2             	add    %rdx,%rdx
    1286:	4c 89 45 f8          	mov    %r8,-0x8(%rbp)
    128a:	4c 89 4d e8          	mov    %r9,-0x18(%rbp)
    128e:	4c 89 55 e0          	mov    %r10,-0x20(%rbp)
    1292:	4c 89 75 d0          	mov    %r14,-0x30(%rbp)
    1296:	4c 89 7d c0          	mov    %r15,-0x40(%rbp)
    129a:	49 89 c6             	mov    %rax,%r14
    129d:	49 89 cf             	mov    %rcx,%r15
    12a0:	e8 00 00 00 00       	callq  12a5 <deflateSetDictionary+0x165>
    12a5:	c7 83 ac 00 00 00 00 	movl   $0x0,0xac(%rbx)
    12ac:	00 00 00 
    12af:	48 c7 83 98 00 00 00 	movq   $0x0,0x98(%rbx)
    12b6:	00 00 00 00 
    12ba:	c7 83 2c 17 00 00 00 	movl   $0x0,0x172c(%rbx)
    12c1:	00 00 00 
    12c4:	4c 89 f0             	mov    %r14,%rax
    12c7:	4d 89 fb             	mov    %r15,%r11
    12ca:	4c 8b 7d c0          	mov    -0x40(%rbp),%r15
    12ce:	4c 8b 75 d0          	mov    -0x30(%rbp),%r14
    12d2:	4c 8b 55 e0          	mov    -0x20(%rbp),%r10
    12d6:	4c 8b 4d e8          	mov    -0x18(%rbp),%r9
    12da:	4c 8b 45 f8          	mov    -0x8(%rbp),%r8
    12de:	8b 4b 50             	mov    0x50(%rbx),%ecx
    12e1:	41 29 cb             	sub    %ecx,%r11d
    12e4:	44 89 da             	mov    %r11d,%edx
    12e7:	48 01 d0             	add    %rdx,%rax
    12ea:	4c 89 f2             	mov    %r14,%rdx
    12ed:	4c 89 fe             	mov    %r15,%rsi
    12f0:	4d 8b 75 00          	mov    0x0(%r13),%r14
    12f4:	45 8b 7d 08          	mov    0x8(%r13),%r15d
    12f8:	41 89 4d 08          	mov    %ecx,0x8(%r13)
    12fc:	49 89 45 00          	mov    %rax,0x0(%r13)
    1300:	48 89 df             	mov    %rbx,%rdi
    1303:	4c 89 45 f8          	mov    %r8,-0x8(%rbp)
    1307:	4c 89 4d f0          	mov    %r9,-0x10(%rbp)
    130b:	4c 89 55 e0          	mov    %r10,-0x20(%rbp)
    130f:	48 89 55 d8          	mov    %rdx,-0x28(%rbp)
    1313:	48 89 75 c0          	mov    %rsi,-0x40(%rbp)
    1317:	e8 14 0f 00 00       	callq  2230 <fill_window>
    131c:	eb 7c                	jmp    139a <deflateSetDictionary+0x25a>
    131e:	8b b3 ac 00 00 00    	mov    0xac(%rbx),%esi
    1324:	8d 79 fe             	lea    -0x2(%rcx),%edi
    1327:	8d 46 02             	lea    0x2(%rsi),%eax
    132a:	89 c0                	mov    %eax,%eax
    132c:	48 8b 4b 60          	mov    0x60(%rbx),%rcx
    1330:	0f b6 04 08          	movzbl (%rax,%rcx,1),%eax
    1334:	8b 93 80 00 00 00    	mov    0x80(%rbx),%edx
    133a:	8b 8b 90 00 00 00    	mov    0x90(%rbx),%ecx
    1340:	d3 e2                	shl    %cl,%edx
    1342:	31 d0                	xor    %edx,%eax
    1344:	23 83 8c 00 00 00    	and    0x8c(%rbx),%eax
    134a:	89 83 80 00 00 00    	mov    %eax,0x80(%rbx)
    1350:	89 c1                	mov    %eax,%ecx
    1352:	48 8b 43 78          	mov    0x78(%rbx),%rax
    1356:	0f b7 14 48          	movzwl (%rax,%rcx,2),%edx
    135a:	48 89 f0             	mov    %rsi,%rax
    135d:	23 43 58             	and    0x58(%rbx),%eax
    1360:	89 c0                	mov    %eax,%eax
    1362:	48 8b 4b 70          	mov    0x70(%rbx),%rcx
    1366:	66 89 14 41          	mov    %dx,(%rcx,%rax,2)
    136a:	48 8b 4b 78          	mov    0x78(%rbx),%rcx
    136e:	8b 83 80 00 00 00    	mov    0x80(%rbx),%eax
    1374:	66 89 34 41          	mov    %si,(%rcx,%rax,2)
    1378:	83 c6 01             	add    $0x1,%esi
    137b:	83 c7 ff             	add    $0xffffffff,%edi
    137e:	85 ff                	test   %edi,%edi
    1380:	75 a5                	jne    1327 <deflateSetDictionary+0x1e7>
    1382:	89 b3 ac 00 00 00    	mov    %esi,0xac(%rbx)
    1388:	c7 83 b4 00 00 00 02 	movl   $0x2,0xb4(%rbx)
    138f:	00 00 00 
    1392:	48 89 df             	mov    %rbx,%rdi
    1395:	e8 96 0e 00 00       	callq  2230 <fill_window>
    139a:	8b 8b b4 00 00 00    	mov    0xb4(%rbx),%ecx
    13a0:	83 f9 02             	cmp    $0x2,%ecx
    13a3:	0f 87 75 ff ff ff    	ja     131e <deflateSetDictionary+0x1de>
    13a9:	48 89 c8             	mov    %rcx,%rax
    13ac:	03 83 ac 00 00 00    	add    0xac(%rbx),%eax
    13b2:	89 83 ac 00 00 00    	mov    %eax,0xac(%rbx)
    13b8:	89 c0                	mov    %eax,%eax
    13ba:	48 89 83 98 00 00 00 	mov    %rax,0x98(%rbx)
    13c1:	89 8b 2c 17 00 00    	mov    %ecx,0x172c(%rbx)
    13c7:	c7 83 b4 00 00 00 00 	movl   $0x0,0xb4(%rbx)
    13ce:	00 00 00 
    13d1:	c7 83 b8 00 00 00 02 	movl   $0x2,0xb8(%rbx)
    13d8:	00 00 00 
    13db:	c7 83 a0 00 00 00 02 	movl   $0x2,0xa0(%rbx)
    13e2:	00 00 00 
    13e5:	c7 83 a8 00 00 00 00 	movl   $0x0,0xa8(%rbx)
    13ec:	00 00 00 
    13ef:	4d 89 75 00          	mov    %r14,0x0(%r13)
    13f3:	45 89 7d 08          	mov    %r15d,0x8(%r13)
    13f7:	44 89 63 30          	mov    %r12d,0x30(%rbx)
    13fb:	31 c0                	xor    %eax,%eax
    13fd:	4c 8b 7d c0          	mov    -0x40(%rbp),%r15
    1401:	4c 8b 75 d8          	mov    -0x28(%rbp),%r14
    1405:	4c 8b 6d e0          	mov    -0x20(%rbp),%r13
    1409:	4c 8b 65 f0          	mov    -0x10(%rbp),%r12
    140d:	48 8b 5d f8          	mov    -0x8(%rbp),%rbx
    1411:	c9                   	leaveq 
    1412:	c3                   	retq   
    1413:	66 66 2e 0f 1f 84 00 	data16 nopw %cs:0x0(%rax,%rax,1)
    141a:	00 00 00 00 
    141e:	66 90                	xchg   %ax,%ax

0000000000001420 <deflateGetDictionary>:
    1420:	55                   	push   %rbp
    1421:	48 89 e5             	mov    %rsp,%rbp
    1424:	48 83 ec 20          	sub    $0x20,%rsp
    1428:	4c 89 7d f8          	mov    %r15,-0x8(%rbp)
    142c:	48 89 75 e8          	mov    %rsi,-0x18(%rbp)
    1430:	48 89 55 f0          	mov    %rdx,-0x10(%rbp)
    1434:	49 89 ff             	mov    %rdi,%r15
    1437:	e8 e4 0c 00 00       	callq  2120 <deflateStateCheck>
    143c:	85 c0                	test   %eax,%eax
    143e:	74 0d                	je     144d <deflateGetDictionary+0x2d>
    1440:	48 c7 c0 fe ff ff ff 	mov    $0xfffffffffffffffe,%rax
    1447:	4c 8b 7d f8          	mov    -0x8(%rbp),%r15
    144b:	c9                   	leaveq 
    144c:	c3                   	retq   
    144d:	49 8b 77 38          	mov    0x38(%r15),%rsi
    1451:	8b 8e b4 00 00 00    	mov    0xb4(%rsi),%ecx
    1457:	8b 86 ac 00 00 00    	mov    0xac(%rsi),%eax
    145d:	44 8d 3c 01          	lea    (%rcx,%rax,1),%r15d
    1461:	8b 56 50             	mov    0x50(%rsi),%edx
    1464:	44 39 fa             	cmp    %r15d,%edx
    1467:	73 03                	jae    146c <deflateGetDictionary+0x4c>
    1469:	49 89 d7             	mov    %rdx,%r15
    146c:	48 8b 7d e8          	mov    -0x18(%rbp),%rdi
    1470:	48 85 ff             	test   %rdi,%rdi
    1473:	75 11                	jne    1486 <deflateGetDictionary+0x66>
    1475:	31 c0                	xor    %eax,%eax
    1477:	48 8b 4d f0          	mov    -0x10(%rbp),%rcx
    147b:	48 85 c9             	test   %rcx,%rcx
    147e:	75 20                	jne    14a0 <deflateGetDictionary+0x80>
    1480:	4c 8b 7d f8          	mov    -0x8(%rbp),%r15
    1484:	c9                   	leaveq 
    1485:	c3                   	retq   
    1486:	45 85 ff             	test   %r15d,%r15d
    1489:	74 ea                	je     1475 <deflateGetDictionary+0x55>
    148b:	48 03 46 60          	add    0x60(%rsi),%rax
    148f:	48 8d 34 01          	lea    (%rcx,%rax,1),%rsi
    1493:	44 89 fa             	mov    %r15d,%edx
    1496:	48 29 d6             	sub    %rdx,%rsi
    1499:	e8 00 00 00 00       	callq  149e <deflateGetDictionary+0x7e>
    149e:	eb d5                	jmp    1475 <deflateGetDictionary+0x55>
    14a0:	44 89 39             	mov    %r15d,(%rcx)
    14a3:	4c 8b 7d f8          	mov    -0x8(%rbp),%r15
    14a7:	c9                   	leaveq 
    14a8:	c3                   	retq   
    14a9:	0f 1f 80 00 00 00 00 	nopl   0x0(%rax)

00000000000014b0 <deflateCopy>:
    14b0:	55                   	push   %rbp
    14b1:	48 89 e5             	mov    %rsp,%rbp
    14b4:	48 83 ec 20          	sub    $0x20,%rsp
    14b8:	48 89 7d e8          	mov    %rdi,-0x18(%rbp)
    14bc:	48 89 f7             	mov    %rsi,%rdi
    14bf:	48 89 7d f0          	mov    %rdi,-0x10(%rbp)
    14c3:	e8 58 0c 00 00       	callq  2120 <deflateStateCheck>
    14c8:	85 c0                	test   %eax,%eax
    14ca:	74 09                	je     14d5 <deflateCopy+0x25>
    14cc:	48 c7 c0 fe ff ff ff 	mov    $0xfffffffffffffffe,%rax
    14d3:	c9                   	leaveq 
    14d4:	c3                   	retq   
    14d5:	48 8b 4d e8          	mov    -0x18(%rbp),%rcx
    14d9:	48 85 c9             	test   %rcx,%rcx
    14dc:	75 09                	jne    14e7 <deflateCopy+0x37>
    14de:	48 c7 c0 fe ff ff ff 	mov    $0xfffffffffffffffe,%rax
    14e5:	c9                   	leaveq 
    14e6:	c3                   	retq   
    14e7:	48 8b 75 f0          	mov    -0x10(%rbp),%rsi
    14eb:	48 8b 46 38          	mov    0x38(%rsi),%rax
    14ef:	48 89 45 e8          	mov    %rax,-0x18(%rbp)
    14f3:	ba 70 00 00 00       	mov    $0x70,%edx
    14f8:	48 89 cf             	mov    %rcx,%rdi
    14fb:	4c 89 7d f0          	mov    %r15,-0x10(%rbp)
    14ff:	49 89 cf             	mov    %rcx,%r15
    1502:	e8 00 00 00 00       	callq  1507 <deflateCopy+0x57>
    1507:	49 8b 47 40          	mov    0x40(%r15),%rax
    150b:	49 8b 7f 50          	mov    0x50(%r15),%rdi
    150f:	be 01 00 00 00       	mov    $0x1,%esi
    1514:	ba 40 17 00 00       	mov    $0x1740,%edx
    1519:	ff d0                	callq  *%rax
    151b:	48 85 c0             	test   %rax,%rax
    151e:	75 0d                	jne    152d <deflateCopy+0x7d>
    1520:	48 c7 c0 fc ff ff ff 	mov    $0xfffffffffffffffc,%rax
    1527:	4c 8b 7d f0          	mov    -0x10(%rbp),%r15
    152b:	c9                   	leaveq 
    152c:	c3                   	retq   
    152d:	49 89 47 38          	mov    %rax,0x38(%r15)
    1531:	48 89 c7             	mov    %rax,%rdi
    1534:	48 8b 75 e8          	mov    -0x18(%rbp),%rsi
    1538:	4c 89 75 f8          	mov    %r14,-0x8(%rbp)
    153c:	49 89 c6             	mov    %rax,%r14
    153f:	ba 40 17 00 00       	mov    $0x1740,%edx
    1544:	e8 00 00 00 00       	callq  1549 <deflateCopy+0x99>
    1549:	4d 89 3e             	mov    %r15,(%r14)
    154c:	49 8b 47 40          	mov    0x40(%r15),%rax
    1550:	49 8b 7f 50          	mov    0x50(%r15),%rdi
    1554:	41 8b 76 50          	mov    0x50(%r14),%esi
    1558:	ba 02 00 00 00       	mov    $0x2,%edx
    155d:	ff d0                	callq  *%rax
    155f:	49 89 46 60          	mov    %rax,0x60(%r14)
    1563:	49 8b 47 40          	mov    0x40(%r15),%rax
    1567:	49 8b 7f 50          	mov    0x50(%r15),%rdi
    156b:	41 8b 76 50          	mov    0x50(%r14),%esi
    156f:	ba 02 00 00 00       	mov    $0x2,%edx
    1574:	ff d0                	callq  *%rax
    1576:	49 89 46 70          	mov    %rax,0x70(%r14)
    157a:	49 8b 47 40          	mov    0x40(%r15),%rax
    157e:	49 8b 7f 50          	mov    0x50(%r15),%rdi
    1582:	41 8b b6 84 00 00 00 	mov    0x84(%r14),%esi
    1589:	ba 02 00 00 00       	mov    $0x2,%edx
    158e:	ff d0                	callq  *%rax
    1590:	49 89 46 78          	mov    %rax,0x78(%r14)
    1594:	49 8b 47 40          	mov    0x40(%r15),%rax
    1598:	49 8b 7f 50          	mov    0x50(%r15),%rdi
    159c:	41 8b b6 08 17 00 00 	mov    0x1708(%r14),%esi
    15a3:	ba 04 00 00 00       	mov    $0x4,%edx
    15a8:	ff d0                	callq  *%rax
    15aa:	49 89 46 10          	mov    %rax,0x10(%r14)
    15ae:	49 8b 7e 60          	mov    0x60(%r14),%rdi
    15b2:	48 85 ff             	test   %rdi,%rdi
    15b5:	0f 84 f5 00 00 00    	je     16b0 <deflateCopy+0x200>
    15bb:	49 8b 4e 70          	mov    0x70(%r14),%rcx
    15bf:	48 85 c9             	test   %rcx,%rcx
    15c2:	0f 84 e8 00 00 00    	je     16b0 <deflateCopy+0x200>
    15c8:	49 8b 4e 78          	mov    0x78(%r14),%rcx
    15cc:	48 85 c9             	test   %rcx,%rcx
    15cf:	0f 84 db 00 00 00    	je     16b0 <deflateCopy+0x200>
    15d5:	48 85 c0             	test   %rax,%rax
    15d8:	0f 84 d2 00 00 00    	je     16b0 <deflateCopy+0x200>
    15de:	4c 8b 7d e8          	mov    -0x18(%rbp),%r15
    15e2:	49 8b 77 60          	mov    0x60(%r15),%rsi
    15e6:	41 8b 4e 50          	mov    0x50(%r14),%ecx
    15ea:	01 c9                	add    %ecx,%ecx
    15ec:	89 ca                	mov    %ecx,%edx
    15ee:	4c 89 6d e8          	mov    %r13,-0x18(%rbp)
    15f2:	49 89 c5             	mov    %rax,%r13
    15f5:	e8 00 00 00 00       	callq  15fa <deflateCopy+0x14a>
    15fa:	49 8b 7e 70          	mov    0x70(%r14),%rdi
    15fe:	49 8b 77 70          	mov    0x70(%r15),%rsi
    1602:	41 8b 46 50          	mov    0x50(%r14),%eax
    1606:	48 8d 14 00          	lea    (%rax,%rax,1),%rdx
    160a:	e8 00 00 00 00       	callq  160f <deflateCopy+0x15f>
    160f:	49 8b 7e 78          	mov    0x78(%r14),%rdi
    1613:	49 8b 77 78          	mov    0x78(%r15),%rsi
    1617:	41 8b 86 84 00 00 00 	mov    0x84(%r14),%eax
    161e:	48 8d 14 00          	lea    (%rax,%rax,1),%rdx
    1622:	e8 00 00 00 00       	callq  1627 <deflateCopy+0x177>
    1627:	49 8b 7e 10          	mov    0x10(%r14),%rdi
    162b:	49 8b 77 10          	mov    0x10(%r15),%rsi
    162f:	41 8b 56 18          	mov    0x18(%r14),%edx
    1633:	e8 00 00 00 00       	callq  1638 <deflateCopy+0x188>
    1638:	49 8b 47 20          	mov    0x20(%r15),%rax
    163c:	49 8b 4f 10          	mov    0x10(%r15),%rcx
    1640:	48 29 c8             	sub    %rcx,%rax
    1643:	49 03 46 10          	add    0x10(%r14),%rax
    1647:	49 89 46 20          	mov    %rax,0x20(%r14)
    164b:	41 8b 86 08 17 00 00 	mov    0x1708(%r14),%eax
    1652:	48 83 e0 fe          	and    $0xfffffffffffffffe,%rax
    1656:	4c 01 e8             	add    %r13,%rax
    1659:	49 89 86 10 17 00 00 	mov    %rax,0x1710(%r14)
    1660:	41 8b 86 08 17 00 00 	mov    0x1708(%r14),%eax
    1667:	48 8d 04 40          	lea    (%rax,%rax,2),%rax
    166b:	49 03 46 10          	add    0x10(%r14),%rax
    166f:	49 89 86 00 17 00 00 	mov    %rax,0x1700(%r14)
    1676:	49 8d 86 d4 00 00 00 	lea    0xd4(%r14),%rax
    167d:	49 89 86 58 0b 00 00 	mov    %rax,0xb58(%r14)
    1684:	49 8d 86 c8 09 00 00 	lea    0x9c8(%r14),%rax
    168b:	49 89 86 70 0b 00 00 	mov    %rax,0xb70(%r14)
    1692:	49 8d 86 bc 0a 00 00 	lea    0xabc(%r14),%rax
    1699:	49 89 86 88 0b 00 00 	mov    %rax,0xb88(%r14)
    16a0:	31 c0                	xor    %eax,%eax
    16a2:	4c 8b 6d e8          	mov    -0x18(%rbp),%r13
    16a6:	4c 8b 75 f8          	mov    -0x8(%rbp),%r14
    16aa:	4c 8b 7d f0          	mov    -0x10(%rbp),%r15
    16ae:	c9                   	leaveq 
    16af:	c3                   	retq   
    16b0:	4c 89 ff             	mov    %r15,%rdi
    16b3:	e8 00 00 00 00       	callq  16b8 <deflateCopy+0x208>
    16b8:	4c 8b 75 f8          	mov    -0x8(%rbp),%r14
    16bc:	48 c7 c0 fc ff ff ff 	mov    $0xfffffffffffffffc,%rax
    16c3:	4c 8b 7d f0          	mov    -0x10(%rbp),%r15
    16c7:	c9                   	leaveq 
    16c8:	c3                   	retq   
    16c9:	0f 1f 80 00 00 00 00 	nopl   0x0(%rax)

00000000000016d0 <deflateReset>:
    16d0:	55                   	push   %rbp
    16d1:	48 89 e5             	mov    %rsp,%rbp
    16d4:	48 83 ec 10          	sub    $0x10,%rsp
    16d8:	48 89 7d f8          	mov    %rdi,-0x8(%rbp)
    16dc:	e8 00 00 00 00       	callq  16e1 <deflateReset+0x11>
    16e1:	85 c0                	test   %eax,%eax
    16e3:	74 02                	je     16e7 <deflateReset+0x17>
    16e5:	c9                   	leaveq 
    16e6:	c3                   	retq   
    16e7:	48 8b 4d f8          	mov    -0x8(%rbp),%rcx
    16eb:	48 8b 79 38          	mov    0x38(%rcx),%rdi
    16ef:	4c 89 7d f8          	mov    %r15,-0x8(%rbp)
    16f3:	49 89 c7             	mov    %rax,%r15
    16f6:	e8 c5 29 00 00       	callq  40c0 <lm_init>
    16fb:	4c 89 f8             	mov    %r15,%rax
    16fe:	4c 8b 7d f8          	mov    -0x8(%rbp),%r15
    1702:	c9                   	leaveq 
    1703:	c3                   	retq   
    1704:	66 66 2e 0f 1f 84 00 	data16 nopw %cs:0x0(%rax,%rax,1)
    170b:	00 00 00 00 
    170f:	90                   	nop

0000000000001710 <deflateParams>:
    1710:	55                   	push   %rbp
    1711:	48 89 e5             	mov    %rsp,%rbp
    1714:	48 83 ec 30          	sub    $0x30,%rsp
    1718:	4c 89 7d e8          	mov    %r15,-0x18(%rbp)
    171c:	48 89 75 d0          	mov    %rsi,-0x30(%rbp)
    1720:	48 89 55 d8          	mov    %rdx,-0x28(%rbp)
    1724:	49 89 ff             	mov    %rdi,%r15
    1727:	e8 f4 09 00 00       	callq  2120 <deflateStateCheck>
    172c:	85 c0                	test   %eax,%eax
    172e:	74 0d                	je     173d <deflateParams+0x2d>
    1730:	48 c7 c0 fe ff ff ff 	mov    $0xfffffffffffffffe,%rax
    1737:	4c 8b 7d e8          	mov    -0x18(%rbp),%r15
    173b:	c9                   	leaveq 
    173c:	c3                   	retq   
    173d:	4d 8b 47 38          	mov    0x38(%r15),%r8
    1741:	48 8b 4d d0          	mov    -0x30(%rbp),%rcx
    1745:	83 f9 ff             	cmp    $0xffffffff,%ecx
    1748:	75 05                	jne    174f <deflateParams+0x3f>
    174a:	b9 06 00 00 00       	mov    $0x6,%ecx
    174f:	85 c9                	test   %ecx,%ecx
    1751:	79 0d                	jns    1760 <deflateParams+0x50>
    1753:	48 c7 c0 fe ff ff ff 	mov    $0xfffffffffffffffe,%rax
    175a:	4c 8b 7d e8          	mov    -0x18(%rbp),%r15
    175e:	c9                   	leaveq 
    175f:	c3                   	retq   
    1760:	83 f9 09             	cmp    $0x9,%ecx
    1763:	7e 0d                	jle    1772 <deflateParams+0x62>
    1765:	48 c7 c0 fe ff ff ff 	mov    $0xfffffffffffffffe,%rax
    176c:	4c 8b 7d e8          	mov    -0x18(%rbp),%r15
    1770:	c9                   	leaveq 
    1771:	c3                   	retq   
    1772:	4c 8b 4d d8          	mov    -0x28(%rbp),%r9
    1776:	45 85 c9             	test   %r9d,%r9d
    1779:	79 0d                	jns    1788 <deflateParams+0x78>
    177b:	48 c7 c0 fe ff ff ff 	mov    $0xfffffffffffffffe,%rax
    1782:	4c 8b 7d e8          	mov    -0x18(%rbp),%r15
    1786:	c9                   	leaveq 
    1787:	c3                   	retq   
    1788:	41 83 f9 04          	cmp    $0x4,%r9d
    178c:	7e 0d                	jle    179b <deflateParams+0x8b>
    178e:	48 c7 c0 fe ff ff ff 	mov    $0xfffffffffffffffe,%rax
    1795:	4c 8b 7d e8          	mov    -0x18(%rbp),%r15
    1799:	c9                   	leaveq 
    179a:	c3                   	retq   
    179b:	48 8d 15 00 00 00 00 	lea    0x0(%rip),%rdx        # 17a2 <deflateParams+0x92>
    17a2:	49 63 80 c4 00 00 00 	movslq 0xc4(%r8),%rax
    17a9:	48 c1 e0 04          	shl    $0x4,%rax
    17ad:	48 8b 44 02 08       	mov    0x8(%rdx,%rax,1),%rax
    17b2:	4c 63 d1             	movslq %ecx,%r10
    17b5:	45 3b 88 c8 00 00 00 	cmp    0xc8(%r8),%r9d
    17bc:	75 11                	jne    17cf <deflateParams+0xbf>
    17be:	4c 89 d6             	mov    %r10,%rsi
    17c1:	48 c1 e6 04          	shl    $0x4,%rsi
    17c5:	48 8b 74 32 08       	mov    0x8(%rdx,%rsi,1),%rsi
    17ca:	48 39 c6             	cmp    %rax,%rsi
    17cd:	74 0c                	je     17db <deflateParams+0xcb>
    17cf:	49 8b 80 38 17 00 00 	mov    0x1738(%r8),%rax
    17d6:	48 85 c0             	test   %rax,%rax
    17d9:	75 5c                	jne    1837 <deflateParams+0x127>
    17db:	31 c0                	xor    %eax,%eax
    17dd:	49 63 b0 c4 00 00 00 	movslq 0xc4(%r8),%rsi
    17e4:	39 f1                	cmp    %esi,%ecx
    17e6:	74 42                	je     182a <deflateParams+0x11a>
    17e8:	85 f6                	test   %esi,%esi
    17ea:	74 76                	je     1862 <deflateParams+0x152>
    17ec:	41 89 88 c4 00 00 00 	mov    %ecx,0xc4(%r8)
    17f3:	49 c1 e2 04          	shl    $0x4,%r10
    17f7:	42 0f b7 4c 12 02    	movzwl 0x2(%rdx,%r10,1),%ecx
    17fd:	41 89 88 c0 00 00 00 	mov    %ecx,0xc0(%r8)
    1804:	41 0f b7 0c 12       	movzwl (%r10,%rdx,1),%ecx
    1809:	41 89 88 cc 00 00 00 	mov    %ecx,0xcc(%r8)
    1810:	42 0f b7 4c 12 04    	movzwl 0x4(%rdx,%r10,1),%ecx
    1816:	41 89 88 d0 00 00 00 	mov    %ecx,0xd0(%r8)
    181d:	42 0f b7 4c 12 06    	movzwl 0x6(%rdx,%r10,1),%ecx
    1823:	41 89 88 bc 00 00 00 	mov    %ecx,0xbc(%r8)
    182a:	45 89 88 c8 00 00 00 	mov    %r9d,0xc8(%r8)
    1831:	4c 8b 7d e8          	mov    -0x18(%rbp),%r15
    1835:	c9                   	leaveq 
    1836:	c3                   	retq   
    1837:	be 05 00 00 00       	mov    $0x5,%esi
    183c:	4c 89 ff             	mov    %r15,%rdi
    183f:	4c 89 45 d0          	mov    %r8,-0x30(%rbp)
    1843:	48 89 4d e0          	mov    %rcx,-0x20(%rbp)
    1847:	4c 89 55 f8          	mov    %r10,-0x8(%rbp)
    184b:	e8 00 00 00 00       	callq  1850 <deflateParams+0x140>
    1850:	83 f8 fe             	cmp    $0xfffffffe,%eax
    1853:	75 39                	jne    188e <deflateParams+0x17e>
    1855:	48 c7 c0 fe ff ff ff 	mov    $0xfffffffffffffffe,%rax
    185c:	4c 8b 7d e8          	mov    -0x18(%rbp),%r15
    1860:	c9                   	leaveq 
    1861:	c3                   	retq   
    1862:	41 8b b0 28 17 00 00 	mov    0x1728(%r8),%esi
    1869:	85 f6                	test   %esi,%esi
    186b:	0f 84 7b ff ff ff    	je     17ec <deflateParams+0xdc>
    1871:	83 fe 01             	cmp    $0x1,%esi
    1874:	74 40                	je     18b6 <deflateParams+0x1a6>
    1876:	49 8b 70 78          	mov    0x78(%r8),%rsi
    187a:	41 8b 90 84 00 00 00 	mov    0x84(%r8),%edx
    1881:	83 c2 ff             	add    $0xffffffff,%edx
    1884:	89 d2                	mov    %edx,%edx
    1886:	66 c7 04 56 00 00    	movw   $0x0,(%rsi,%rdx,2)
    188c:	eb 62                	jmp    18f0 <deflateParams+0x1e0>
    188e:	41 8b 47 20          	mov    0x20(%r15),%eax
    1892:	85 c0                	test   %eax,%eax
    1894:	0f 84 ba 00 00 00    	je     1954 <deflateParams+0x244>
    189a:	48 8d 15 00 00 00 00 	lea    0x0(%rip),%rdx        # 18a1 <deflateParams+0x191>
    18a1:	4c 8b 55 f8          	mov    -0x8(%rbp),%r10
    18a5:	48 8b 4d e0          	mov    -0x20(%rbp),%rcx
    18a9:	4c 8b 45 d0          	mov    -0x30(%rbp),%r8
    18ad:	4c 8b 4d d8          	mov    -0x28(%rbp),%r9
    18b1:	e9 25 ff ff ff       	jmpq   17db <deflateParams+0xcb>
    18b6:	4c 89 c7             	mov    %r8,%rdi
    18b9:	4c 89 65 f0          	mov    %r12,-0x10(%rbp)
    18bd:	4c 89 6d d8          	mov    %r13,-0x28(%rbp)
    18c1:	4c 89 75 d0          	mov    %r14,-0x30(%rbp)
    18c5:	49 89 cc             	mov    %rcx,%r12
    18c8:	4d 89 d5             	mov    %r10,%r13
    18cb:	4d 89 ce             	mov    %r9,%r14
    18ce:	4d 89 c7             	mov    %r8,%r15
    18d1:	e8 ea 08 00 00       	callq  21c0 <slide_hash>
    18d6:	4c 89 e1             	mov    %r12,%rcx
    18d9:	4d 89 f8             	mov    %r15,%r8
    18dc:	4d 89 f1             	mov    %r14,%r9
    18df:	4d 89 ea             	mov    %r13,%r10
    18e2:	31 c0                	xor    %eax,%eax
    18e4:	4c 8b 75 d0          	mov    -0x30(%rbp),%r14
    18e8:	4c 8b 6d d8          	mov    -0x28(%rbp),%r13
    18ec:	4c 8b 65 f0          	mov    -0x10(%rbp),%r12
    18f0:	49 8b 78 78          	mov    0x78(%r8),%rdi
    18f4:	41 8b 90 84 00 00 00 	mov    0x84(%r8),%edx
    18fb:	83 c2 ff             	add    $0xffffffff,%edx
    18fe:	89 d2                	mov    %edx,%edx
    1900:	48 01 d2             	add    %rdx,%rdx
    1903:	4c 89 65 f0          	mov    %r12,-0x10(%rbp)
    1907:	4c 89 6d e0          	mov    %r13,-0x20(%rbp)
    190b:	4c 89 75 d0          	mov    %r14,-0x30(%rbp)
    190f:	48 89 c6             	mov    %rax,%rsi
    1912:	49 89 cc             	mov    %rcx,%r12
    1915:	4d 89 c5             	mov    %r8,%r13
    1918:	4d 89 ce             	mov    %r9,%r14
    191b:	4d 89 d7             	mov    %r10,%r15
    191e:	e8 00 00 00 00       	callq  1923 <deflateParams+0x213>
    1923:	4c 89 e1             	mov    %r12,%rcx
    1926:	4d 89 e8             	mov    %r13,%r8
    1929:	4d 89 f1             	mov    %r14,%r9
    192c:	4d 89 fa             	mov    %r15,%r10
    192f:	41 c7 80 28 17 00 00 	movl   $0x0,0x1728(%r8)
    1936:	00 00 00 00 
    193a:	31 c0                	xor    %eax,%eax
    193c:	4c 8b 75 d0          	mov    -0x30(%rbp),%r14
    1940:	4c 8b 6d e0          	mov    -0x20(%rbp),%r13
    1944:	4c 8b 65 f0          	mov    -0x10(%rbp),%r12
    1948:	48 8d 15 00 00 00 00 	lea    0x0(%rip),%rdx        # 194f <deflateParams+0x23f>
    194f:	e9 98 fe ff ff       	jmpq   17ec <deflateParams+0xdc>
    1954:	48 c7 c0 fb ff ff ff 	mov    $0xfffffffffffffffb,%rax
    195b:	4c 8b 7d e8          	mov    -0x18(%rbp),%r15
    195f:	c9                   	leaveq 
    1960:	c3                   	retq   
    1961:	66 66 2e 0f 1f 84 00 	data16 nopw %cs:0x0(%rax,%rax,1)
    1968:	00 00 00 00 
    196c:	0f 1f 40 00          	nopl   0x0(%rax)

0000000000001970 <deflateTune>:
    1970:	55                   	push   %rbp
    1971:	48 89 e5             	mov    %rsp,%rbp
    1974:	48 83 ec 30          	sub    $0x30,%rsp
    1978:	4c 89 7d d8          	mov    %r15,-0x28(%rbp)
    197c:	48 89 75 f8          	mov    %rsi,-0x8(%rbp)
    1980:	48 89 55 f0          	mov    %rdx,-0x10(%rbp)
    1984:	48 89 4d e8          	mov    %rcx,-0x18(%rbp)
    1988:	4c 89 45 e0          	mov    %r8,-0x20(%rbp)
    198c:	49 89 ff             	mov    %rdi,%r15
    198f:	e8 8c 07 00 00       	callq  2120 <deflateStateCheck>
    1994:	85 c0                	test   %eax,%eax
    1996:	74 0d                	je     19a5 <deflateTune+0x35>
    1998:	48 c7 c0 fe ff ff ff 	mov    $0xfffffffffffffffe,%rax
    199f:	4c 8b 7d d8          	mov    -0x28(%rbp),%r15
    19a3:	c9                   	leaveq 
    19a4:	c3                   	retq   
    19a5:	49 8b 47 38          	mov    0x38(%r15),%rax
    19a9:	48 8b 4d f8          	mov    -0x8(%rbp),%rcx
    19ad:	89 88 cc 00 00 00    	mov    %ecx,0xcc(%rax)
    19b3:	48 8b 4d f0          	mov    -0x10(%rbp),%rcx
    19b7:	89 88 c0 00 00 00    	mov    %ecx,0xc0(%rax)
    19bd:	48 8b 4d e8          	mov    -0x18(%rbp),%rcx
    19c1:	89 88 d0 00 00 00    	mov    %ecx,0xd0(%rax)
    19c7:	48 8b 4d e0          	mov    -0x20(%rbp),%rcx
    19cb:	89 88 bc 00 00 00    	mov    %ecx,0xbc(%rax)
    19d1:	31 c0                	xor    %eax,%eax
    19d3:	4c 8b 7d d8          	mov    -0x28(%rbp),%r15
    19d7:	c9                   	leaveq 
    19d8:	c3                   	retq   
    19d9:	0f 1f 80 00 00 00 00 	nopl   0x0(%rax)

00000000000019e0 <deflateBound>:
    19e0:	55                   	push   %rbp
    19e1:	48 89 e5             	mov    %rsp,%rbp
    19e4:	48 83 ec 20          	sub    $0x20,%rsp
    19e8:	4c 89 75 f0          	mov    %r14,-0x10(%rbp)
    19ec:	4c 89 7d e8          	mov    %r15,-0x18(%rbp)
    19f0:	48 89 75 f8          	mov    %rsi,-0x8(%rbp)
    19f4:	48 8d 46 07          	lea    0x7(%rsi),%rax
    19f8:	48 c1 e8 03          	shr    $0x3,%rax
    19fc:	48 8d 0c 06          	lea    (%rsi,%rax,1),%rcx
    1a00:	48 8d 46 3f          	lea    0x3f(%rsi),%rax
    1a04:	48 c1 e8 06          	shr    $0x6,%rax
    1a08:	4c 8d 34 08          	lea    (%rax,%rcx,1),%r14
    1a0c:	49 89 ff             	mov    %rdi,%r15
    1a0f:	e8 0c 07 00 00       	callq  2120 <deflateStateCheck>
    1a14:	85 c0                	test   %eax,%eax
    1a16:	75 76                	jne    1a8e <deflateBound+0xae>
    1a18:	b8 06 00 00 00       	mov    $0x6,%eax
    1a1d:	49 8b 57 38          	mov    0x38(%r15),%rdx
    1a21:	48 63 4a 30          	movslq 0x30(%rdx),%rcx
    1a25:	85 c9                	test   %ecx,%ecx
    1a27:	7e 73                	jle    1a9c <deflateBound+0xbc>
    1a29:	83 f9 01             	cmp    $0x1,%ecx
    1a2c:	0f 84 b1 00 00 00    	je     1ae3 <deflateBound+0x103>
    1a32:	83 f9 02             	cmp    $0x2,%ecx
    1a35:	75 6b                	jne    1aa2 <deflateBound+0xc2>
    1a37:	b8 12 00 00 00       	mov    $0x12,%eax
    1a3c:	48 8b 72 38          	mov    0x38(%rdx),%rsi
    1a40:	48 85 f6             	test   %rsi,%rsi
    1a43:	74 5d                	je     1aa2 <deflateBound+0xc2>
    1a45:	48 8b 4e 18          	mov    0x18(%rsi),%rcx
    1a49:	48 85 c9             	test   %rcx,%rcx
    1a4c:	74 0c                	je     1a5a <deflateBound+0x7a>
    1a4e:	8b 46 20             	mov    0x20(%rsi),%eax
    1a51:	83 c0 02             	add    $0x2,%eax
    1a54:	89 c0                	mov    %eax,%eax
    1a56:	48 83 c0 12          	add    $0x12,%rax
    1a5a:	48 8b 4a 38          	mov    0x38(%rdx),%rcx
    1a5e:	48 8b 49 28          	mov    0x28(%rcx),%rcx
    1a62:	48 85 c9             	test   %rcx,%rcx
    1a65:	0f 85 8d 00 00 00    	jne    1af8 <deflateBound+0x118>
    1a6b:	48 8b 4a 38          	mov    0x38(%rdx),%rcx
    1a6f:	48 8b 49 38          	mov    0x38(%rcx),%rcx
    1a73:	48 85 c9             	test   %rcx,%rcx
    1a76:	0f 85 91 00 00 00    	jne    1b0d <deflateBound+0x12d>
    1a7c:	48 8b 4a 38          	mov    0x38(%rdx),%rcx
    1a80:	48 63 49 44          	movslq 0x44(%rcx),%rcx
    1a84:	85 c9                	test   %ecx,%ecx
    1a86:	74 1a                	je     1aa2 <deflateBound+0xc2>
    1a88:	48 83 c0 02          	add    $0x2,%rax
    1a8c:	eb 14                	jmp    1aa2 <deflateBound+0xc2>
    1a8e:	49 8d 46 0b          	lea    0xb(%r14),%rax
    1a92:	4c 8b 7d e8          	mov    -0x18(%rbp),%r15
    1a96:	4c 8b 75 f0          	mov    -0x10(%rbp),%r14
    1a9a:	c9                   	leaveq 
    1a9b:	c3                   	retq   
    1a9c:	85 c9                	test   %ecx,%ecx
    1a9e:	75 02                	jne    1aa2 <deflateBound+0xc2>
    1aa0:	31 c0                	xor    %eax,%eax
    1aa2:	8b 4a 54             	mov    0x54(%rdx),%ecx
    1aa5:	83 f9 0f             	cmp    $0xf,%ecx
    1aa8:	75 74                	jne    1b1e <deflateBound+0x13e>
    1aaa:	8b 8a 88 00 00 00    	mov    0x88(%rdx),%ecx
    1ab0:	83 f9 0f             	cmp    $0xf,%ecx
    1ab3:	75 69                	jne    1b1e <deflateBound+0x13e>
    1ab5:	48 8b 4d f8          	mov    -0x8(%rbp),%rcx
    1ab9:	48 89 ca             	mov    %rcx,%rdx
    1abc:	48 c1 ea 0c          	shr    $0xc,%rdx
    1ac0:	48 01 ca             	add    %rcx,%rdx
    1ac3:	48 89 ce             	mov    %rcx,%rsi
    1ac6:	48 c1 ee 0e          	shr    $0xe,%rsi
    1aca:	48 01 f2             	add    %rsi,%rdx
    1acd:	48 c1 e9 19          	shr    $0x19,%rcx
    1ad1:	48 01 d1             	add    %rdx,%rcx
    1ad4:	48 8d 44 08 07       	lea    0x7(%rax,%rcx,1),%rax
    1ad9:	4c 8b 7d e8          	mov    -0x18(%rbp),%r15
    1add:	4c 8b 75 f0          	mov    -0x10(%rbp),%r14
    1ae1:	c9                   	leaveq 
    1ae2:	c3                   	retq   
    1ae3:	8b 8a ac 00 00 00    	mov    0xac(%rdx),%ecx
    1ae9:	85 c9                	test   %ecx,%ecx
    1aeb:	74 b5                	je     1aa2 <deflateBound+0xc2>
    1aed:	b8 0a 00 00 00       	mov    $0xa,%eax
    1af2:	eb ae                	jmp    1aa2 <deflateBound+0xc2>
    1af4:	48 83 c1 01          	add    $0x1,%rcx
    1af8:	48 83 c0 01          	add    $0x1,%rax
    1afc:	0f b6 31             	movzbl (%rcx),%esi
    1aff:	40 84 f6             	test   %sil,%sil
    1b02:	75 f0                	jne    1af4 <deflateBound+0x114>
    1b04:	e9 62 ff ff ff       	jmpq   1a6b <deflateBound+0x8b>
    1b09:	48 83 c1 01          	add    $0x1,%rcx
    1b0d:	48 83 c0 01          	add    $0x1,%rax
    1b11:	0f b6 31             	movzbl (%rcx),%esi
    1b14:	40 84 f6             	test   %sil,%sil
    1b17:	75 f0                	jne    1b09 <deflateBound+0x129>
    1b19:	e9 5e ff ff ff       	jmpq   1a7c <deflateBound+0x9c>
    1b1e:	49 8d 44 06 05       	lea    0x5(%r14,%rax,1),%rax
    1b23:	4c 8b 7d e8          	mov    -0x18(%rbp),%r15
    1b27:	4c 8b 75 f0          	mov    -0x10(%rbp),%r14
    1b2b:	c9                   	leaveq 
    1b2c:	c3                   	retq   
    1b2d:	0f 1f 00             	nopl   (%rax)

0000000000001b30 <deflatePending>:
    1b30:	55                   	push   %rbp
    1b31:	48 89 e5             	mov    %rsp,%rbp
    1b34:	48 83 ec 20          	sub    $0x20,%rsp
    1b38:	4c 89 7d f0          	mov    %r15,-0x10(%rbp)
    1b3c:	48 89 7d f8          	mov    %rdi,-0x8(%rbp)
    1b40:	48 89 55 e8          	mov    %rdx,-0x18(%rbp)
    1b44:	49 89 f7             	mov    %rsi,%r15
    1b47:	e8 d4 05 00 00       	callq  2120 <deflateStateCheck>
    1b4c:	85 c0                	test   %eax,%eax
    1b4e:	74 0d                	je     1b5d <deflatePending+0x2d>
    1b50:	48 c7 c0 fe ff ff ff 	mov    $0xfffffffffffffffe,%rax
    1b57:	4c 8b 7d f0          	mov    -0x10(%rbp),%r15
    1b5b:	c9                   	leaveq 
    1b5c:	c3                   	retq   
    1b5d:	4d 85 ff             	test   %r15,%r15
    1b60:	75 06                	jne    1b68 <deflatePending+0x38>
    1b62:	48 8b 4d f8          	mov    -0x8(%rbp),%rcx
    1b66:	eb 0e                	jmp    1b76 <deflatePending+0x46>
    1b68:	48 8b 4d f8          	mov    -0x8(%rbp),%rcx
    1b6c:	48 8b 41 38          	mov    0x38(%rcx),%rax
    1b70:	8b 40 28             	mov    0x28(%rax),%eax
    1b73:	41 89 07             	mov    %eax,(%r15)
    1b76:	31 c0                	xor    %eax,%eax
    1b78:	48 8b 55 e8          	mov    -0x18(%rbp),%rdx
    1b7c:	48 85 d2             	test   %rdx,%rdx
    1b7f:	75 06                	jne    1b87 <deflatePending+0x57>
    1b81:	4c 8b 7d f0          	mov    -0x10(%rbp),%r15
    1b85:	c9                   	leaveq 
    1b86:	c3                   	retq   
    1b87:	48 8b 49 38          	mov    0x38(%rcx),%rcx
    1b8b:	48 63 89 34 17 00 00 	movslq 0x1734(%rcx),%rcx
    1b92:	89 0a                	mov    %ecx,(%rdx)
    1b94:	4c 8b 7d f0          	mov    -0x10(%rbp),%r15
    1b98:	c9                   	leaveq 
    1b99:	c3                   	retq   
    1b9a:	66 0f 1f 44 00 00    	nopw   0x0(%rax,%rax,1)

0000000000001ba0 <deflatePrime>:
    1ba0:	55                   	push   %rbp
    1ba1:	48 89 e5             	mov    %rsp,%rbp
    1ba4:	48 83 ec 40          	sub    $0x40,%rsp
    1ba8:	4c 89 7d d8          	mov    %r15,-0x28(%rbp)
    1bac:	48 89 55 c8          	mov    %rdx,-0x38(%rbp)
    1bb0:	48 89 75 d0          	mov    %rsi,-0x30(%rbp)
    1bb4:	49 89 ff             	mov    %rdi,%r15
    1bb7:	e8 64 05 00 00       	callq  2120 <deflateStateCheck>
    1bbc:	85 c0                	test   %eax,%eax
    1bbe:	74 0d                	je     1bcd <deflatePrime+0x2d>
    1bc0:	48 c7 c0 fe ff ff ff 	mov    $0xfffffffffffffffe,%rax
    1bc7:	4c 8b 7d d8          	mov    -0x28(%rbp),%r15
    1bcb:	c9                   	leaveq 
    1bcc:	c3                   	retq   
    1bcd:	4d 8b 7f 38          	mov    0x38(%r15),%r15
    1bd1:	49 8b 47 20          	mov    0x20(%r15),%rax
    1bd5:	48 83 c0 02          	add    $0x2,%rax
    1bd9:	49 3b 87 10 17 00 00 	cmp    0x1710(%r15),%rax
    1be0:	76 0d                	jbe    1bef <deflatePrime+0x4f>
    1be2:	48 c7 c0 fb ff ff ff 	mov    $0xfffffffffffffffb,%rax
    1be9:	4c 8b 7d d8          	mov    -0x28(%rbp),%r15
    1bed:	c9                   	leaveq 
    1bee:	c3                   	retq   
    1bef:	b8 01 00 00 00       	mov    $0x1,%eax
    1bf4:	b9 10 00 00 00       	mov    $0x10,%ecx
    1bf9:	48 89 5d f8          	mov    %rbx,-0x8(%rbp)
    1bfd:	4c 89 65 f0          	mov    %r12,-0x10(%rbp)
    1c01:	4c 89 6d e8          	mov    %r13,-0x18(%rbp)
    1c05:	4c 89 75 e0          	mov    %r14,-0x20(%rbp)
    1c09:	49 89 cd             	mov    %rcx,%r13
    1c0c:	4c 8b 65 d0          	mov    -0x30(%rbp),%r12
    1c10:	48 8b 5d c8          	mov    -0x38(%rbp),%rbx
    1c14:	eb 0d                	jmp    1c23 <deflatePrime+0x83>
    1c16:	4c 89 f1             	mov    %r14,%rcx
    1c19:	d3 fb                	sar    %cl,%ebx
    1c1b:	41 29 cc             	sub    %ecx,%r12d
    1c1e:	b8 01 00 00 00       	mov    $0x1,%eax
    1c23:	49 63 97 34 17 00 00 	movslq 0x1734(%r15),%rdx
    1c2a:	4c 89 e9             	mov    %r13,%rcx
    1c2d:	29 d1                	sub    %edx,%ecx
    1c2f:	44 39 e1             	cmp    %r12d,%ecx
    1c32:	7e 03                	jle    1c37 <deflatePrime+0x97>
    1c34:	4c 89 e1             	mov    %r12,%rcx
    1c37:	d3 e0                	shl    %cl,%eax
    1c39:	05 ff ff 00 00       	add    $0xffff,%eax
    1c3e:	66 21 d8             	and    %bx,%ax
    1c41:	49 89 ce             	mov    %rcx,%r14
    1c44:	48 89 d1             	mov    %rdx,%rcx
    1c47:	d3 e0                	shl    %cl,%eax
    1c49:	41 0f b7 97 30 17 00 	movzwl 0x1730(%r15),%edx
    1c50:	00 
    1c51:	66 09 d0             	or     %dx,%ax
    1c54:	66 41 89 87 30 17 00 	mov    %ax,0x1730(%r15)
    1c5b:	00 
    1c5c:	41 8d 04 0e          	lea    (%r14,%rcx,1),%eax
    1c60:	41 89 87 34 17 00 00 	mov    %eax,0x1734(%r15)
    1c67:	4c 89 ff             	mov    %r15,%rdi
    1c6a:	e8 00 00 00 00       	callq  1c6f <deflatePrime+0xcf>
    1c6f:	45 39 e6             	cmp    %r12d,%r14d
    1c72:	75 a2                	jne    1c16 <deflatePrime+0x76>
    1c74:	31 c0                	xor    %eax,%eax
    1c76:	4c 8b 75 e0          	mov    -0x20(%rbp),%r14
    1c7a:	4c 8b 6d e8          	mov    -0x18(%rbp),%r13
    1c7e:	4c 8b 65 f0          	mov    -0x10(%rbp),%r12
    1c82:	48 8b 5d f8          	mov    -0x8(%rbp),%rbx
    1c86:	4c 8b 7d d8          	mov    -0x28(%rbp),%r15
    1c8a:	c9                   	leaveq 
    1c8b:	c3                   	retq   
    1c8c:	0f 1f 40 00          	nopl   0x0(%rax)

0000000000001c90 <deflateSetHeader>:
    1c90:	55                   	push   %rbp
    1c91:	48 89 e5             	mov    %rsp,%rbp
    1c94:	48 83 ec 10          	sub    $0x10,%rsp
    1c98:	4c 89 7d f0          	mov    %r15,-0x10(%rbp)
    1c9c:	48 89 75 f8          	mov    %rsi,-0x8(%rbp)
    1ca0:	49 89 ff             	mov    %rdi,%r15
    1ca3:	e8 78 04 00 00       	callq  2120 <deflateStateCheck>
    1ca8:	85 c0                	test   %eax,%eax
    1caa:	74 0d                	je     1cb9 <deflateSetHeader+0x29>
    1cac:	48 c7 c0 fe ff ff ff 	mov    $0xfffffffffffffffe,%rax
    1cb3:	4c 8b 7d f0          	mov    -0x10(%rbp),%r15
    1cb7:	c9                   	leaveq 
    1cb8:	c3                   	retq   
    1cb9:	49 8b 4f 38          	mov    0x38(%r15),%rcx
    1cbd:	48 63 41 30          	movslq 0x30(%rcx),%rax
    1cc1:	83 f8 02             	cmp    $0x2,%eax
    1cc4:	74 0d                	je     1cd3 <deflateSetHeader+0x43>
    1cc6:	48 c7 c0 fe ff ff ff 	mov    $0xfffffffffffffffe,%rax
    1ccd:	4c 8b 7d f0          	mov    -0x10(%rbp),%r15
    1cd1:	c9                   	leaveq 
    1cd2:	c3                   	retq   
    1cd3:	48 8b 45 f8          	mov    -0x8(%rbp),%rax
    1cd7:	48 89 41 38          	mov    %rax,0x38(%rcx)
    1cdb:	31 c0                	xor    %eax,%eax
    1cdd:	4c 8b 7d f0          	mov    -0x10(%rbp),%r15
    1ce1:	c9                   	leaveq 
    1ce2:	c3                   	retq   
    1ce3:	66 66 2e 0f 1f 84 00 	data16 nopw %cs:0x0(%rax,%rax,1)
    1cea:	00 00 00 00 
    1cee:	66 90                	xchg   %ax,%ax

0000000000001cf0 <deflateInit_>:
    1cf0:	55                   	push   %rbp
    1cf1:	48 89 e5             	mov    %rsp,%rbp
    1cf4:	48 83 ec 10          	sub    $0x10,%rsp
    1cf8:	48 89 14 24          	mov    %rdx,(%rsp)
    1cfc:	89 4c 24 08          	mov    %ecx,0x8(%rsp)
    1d00:	ba 08 00 00 00       	mov    $0x8,%edx
    1d05:	b9 0f 00 00 00       	mov    $0xf,%ecx
    1d0a:	45 31 c9             	xor    %r9d,%r9d
    1d0d:	49 89 d0             	mov    %rdx,%r8
    1d10:	e8 00 00 00 00       	callq  1d15 <deflateInit_+0x25>
    1d15:	c9                   	leaveq 
    1d16:	c3                   	retq   
    1d17:	66 0f 1f 84 00 00 00 	nopw   0x0(%rax,%rax,1)
    1d1e:	00 00 

0000000000001d20 <deflateInit2_>:
    1d20:	55                   	push   %rbp
    1d21:	48 89 e5             	mov    %rsp,%rbp
    1d24:	48 83 ec 30          	sub    $0x30,%rsp
    1d28:	48 c7 c0 fa ff ff ff 	mov    $0xfffffffffffffffa,%rax
    1d2f:	4c 8b 55 10          	mov    0x10(%rbp),%r10
    1d33:	4d 85 d2             	test   %r10,%r10
    1d36:	75 02                	jne    1d3a <deflateInit2_+0x1a>
    1d38:	c9                   	leaveq 
    1d39:	c3                   	retq   
    1d3a:	4d 0f be 12          	movsbq (%r10),%r10
    1d3e:	41 80 fa 31          	cmp    $0x31,%r10b
    1d42:	74 02                	je     1d46 <deflateInit2_+0x26>
    1d44:	c9                   	leaveq 
    1d45:	c3                   	retq   
    1d46:	4c 63 55 18          	movslq 0x18(%rbp),%r10
    1d4a:	49 83 fa 70          	cmp    $0x70,%r10
    1d4e:	74 02                	je     1d52 <deflateInit2_+0x32>
    1d50:	c9                   	leaveq 
    1d51:	c3                   	retq   
    1d52:	48 c7 c0 fe ff ff ff 	mov    $0xfffffffffffffffe,%rax
    1d59:	48 85 ff             	test   %rdi,%rdi
    1d5c:	75 02                	jne    1d60 <deflateInit2_+0x40>
    1d5e:	c9                   	leaveq 
    1d5f:	c3                   	retq   
    1d60:	48 c7 47 30 00 00 00 	movq   $0x0,0x30(%rdi)
    1d67:	00 
    1d68:	4c 8b 57 40          	mov    0x40(%rdi),%r10
    1d6c:	4d 85 d2             	test   %r10,%r10
    1d6f:	75 13                	jne    1d84 <deflateInit2_+0x64>
    1d71:	4c 8b 15 00 00 00 00 	mov    0x0(%rip),%r10        # 1d78 <deflateInit2_+0x58>
    1d78:	4c 89 57 40          	mov    %r10,0x40(%rdi)
    1d7c:	48 c7 47 50 00 00 00 	movq   $0x0,0x50(%rdi)
    1d83:	00 
    1d84:	4c 8b 57 48          	mov    0x48(%rdi),%r10
    1d88:	4d 85 d2             	test   %r10,%r10
    1d8b:	75 0b                	jne    1d98 <deflateInit2_+0x78>
    1d8d:	4c 8b 15 00 00 00 00 	mov    0x0(%rip),%r10        # 1d94 <deflateInit2_+0x74>
    1d94:	4c 89 57 48          	mov    %r10,0x48(%rdi)
    1d98:	83 fe ff             	cmp    $0xffffffff,%esi
    1d9b:	75 05                	jne    1da2 <deflateInit2_+0x82>
    1d9d:	be 06 00 00 00       	mov    $0x6,%esi
    1da2:	41 bb 01 00 00 00    	mov    $0x1,%r11d
    1da8:	45 31 d2             	xor    %r10d,%r10d
    1dab:	85 c9                	test   %ecx,%ecx
    1dad:	78 0e                	js     1dbd <deflateInit2_+0x9d>
    1daf:	83 f9 0f             	cmp    $0xf,%ecx
    1db2:	7f 19                	jg     1dcd <deflateInit2_+0xad>
    1db4:	48 89 7d d0          	mov    %rdi,-0x30(%rbp)
    1db8:	4c 89 df             	mov    %r11,%rdi
    1dbb:	eb 09                	jmp    1dc6 <deflateInit2_+0xa6>
    1dbd:	f7 d9                	neg    %ecx
    1dbf:	48 89 7d d0          	mov    %rdi,-0x30(%rbp)
    1dc3:	4c 89 d7             	mov    %r10,%rdi
    1dc6:	45 85 c0             	test   %r8d,%r8d
    1dc9:	7f 10                	jg     1ddb <deflateInit2_+0xbb>
    1dcb:	c9                   	leaveq 
    1dcc:	c3                   	retq   
    1dcd:	83 c1 f0             	add    $0xfffffff0,%ecx
    1dd0:	48 89 7d d0          	mov    %rdi,-0x30(%rbp)
    1dd4:	bf 02 00 00 00       	mov    $0x2,%edi
    1dd9:	eb eb                	jmp    1dc6 <deflateInit2_+0xa6>
    1ddb:	41 83 f8 09          	cmp    $0x9,%r8d
    1ddf:	7e 02                	jle    1de3 <deflateInit2_+0xc3>
    1de1:	c9                   	leaveq 
    1de2:	c3                   	retq   
    1de3:	83 fa 08             	cmp    $0x8,%edx
    1de6:	74 02                	je     1dea <deflateInit2_+0xca>
    1de8:	c9                   	leaveq 
    1de9:	c3                   	retq   
    1dea:	83 f9 07             	cmp    $0x7,%ecx
    1ded:	7f 02                	jg     1df1 <deflateInit2_+0xd1>
    1def:	c9                   	leaveq 
    1df0:	c3                   	retq   
    1df1:	83 f9 0f             	cmp    $0xf,%ecx
    1df4:	7e 02                	jle    1df8 <deflateInit2_+0xd8>
    1df6:	c9                   	leaveq 
    1df7:	c3                   	retq   
    1df8:	85 f6                	test   %esi,%esi
    1dfa:	79 02                	jns    1dfe <deflateInit2_+0xde>
    1dfc:	c9                   	leaveq 
    1dfd:	c3                   	retq   
    1dfe:	83 fe 09             	cmp    $0x9,%esi
    1e01:	7e 02                	jle    1e05 <deflateInit2_+0xe5>
    1e03:	c9                   	leaveq 
    1e04:	c3                   	retq   
    1e05:	45 85 c9             	test   %r9d,%r9d
    1e08:	79 02                	jns    1e0c <deflateInit2_+0xec>
    1e0a:	c9                   	leaveq 
    1e0b:	c3                   	retq   
    1e0c:	41 83 f9 04          	cmp    $0x4,%r9d
    1e10:	7e 02                	jle    1e14 <deflateInit2_+0xf4>
    1e12:	c9                   	leaveq 
    1e13:	c3                   	retq   
    1e14:	83 f9 08             	cmp    $0x8,%ecx
    1e17:	74 49                	je     1e62 <deflateInit2_+0x142>
    1e19:	4d 85 d2             	test   %r10,%r10
    1e1c:	74 05                	je     1e23 <deflateInit2_+0x103>
    1e1e:	b9 09 00 00 00       	mov    $0x9,%ecx
    1e23:	48 89 4d e0          	mov    %rcx,-0x20(%rbp)
    1e27:	48 8b 4d d0          	mov    -0x30(%rbp),%rcx
    1e2b:	48 8b 41 40          	mov    0x40(%rcx),%rax
    1e2f:	4c 89 4d f0          	mov    %r9,-0x10(%rbp)
    1e33:	4c 8b 49 50          	mov    0x50(%rcx),%r9
    1e37:	48 89 75 f8          	mov    %rsi,-0x8(%rbp)
    1e3b:	ba 40 17 00 00       	mov    $0x1740,%edx
    1e40:	4c 89 de             	mov    %r11,%rsi
    1e43:	48 89 4d d0          	mov    %rcx,-0x30(%rbp)
    1e47:	48 89 7d e8          	mov    %rdi,-0x18(%rbp)
    1e4b:	4c 89 45 d8          	mov    %r8,-0x28(%rbp)
    1e4f:	4c 89 cf             	mov    %r9,%rdi
    1e52:	ff d0                	callq  *%rax
    1e54:	48 85 c0             	test   %rax,%rax
    1e57:	75 17                	jne    1e70 <deflateInit2_+0x150>
    1e59:	48 c7 c0 fc ff ff ff 	mov    $0xfffffffffffffffc,%rax
    1e60:	c9                   	leaveq 
    1e61:	c3                   	retq   
    1e62:	83 ff 01             	cmp    $0x1,%edi
    1e65:	0f 85 8a 01 00 00    	jne    1ff5 <deflateInit2_+0x2d5>
    1e6b:	4d 89 da             	mov    %r11,%r10
    1e6e:	eb a9                	jmp    1e19 <deflateInit2_+0xf9>
    1e70:	4c 8b 45 d0          	mov    -0x30(%rbp),%r8
    1e74:	49 89 40 38          	mov    %rax,0x38(%r8)
    1e78:	4c 89 00             	mov    %r8,(%rax)
    1e7b:	c7 40 08 2a 00 00 00 	movl   $0x2a,0x8(%rax)
    1e82:	48 8b 4d e8          	mov    -0x18(%rbp),%rcx
    1e86:	89 48 30             	mov    %ecx,0x30(%rax)
    1e89:	48 c7 40 38 00 00 00 	movq   $0x0,0x38(%rax)
    1e90:	00 
    1e91:	48 8b 4d e0          	mov    -0x20(%rbp),%rcx
    1e95:	89 48 54             	mov    %ecx,0x54(%rax)
    1e98:	ba 01 00 00 00       	mov    $0x1,%edx
    1e9d:	48 89 d6             	mov    %rdx,%rsi
    1ea0:	d3 e6                	shl    %cl,%esi
    1ea2:	89 70 50             	mov    %esi,0x50(%rax)
    1ea5:	8d 4e ff             	lea    -0x1(%rsi),%ecx
    1ea8:	89 48 58             	mov    %ecx,0x58(%rax)
    1eab:	4c 8b 4d d8          	mov    -0x28(%rbp),%r9
    1eaf:	41 8d 49 07          	lea    0x7(%r9),%ecx
    1eb3:	89 88 88 00 00 00    	mov    %ecx,0x88(%rax)
    1eb9:	d3 e2                	shl    %cl,%edx
    1ebb:	89 90 84 00 00 00    	mov    %edx,0x84(%rax)
    1ec1:	8d 4a ff             	lea    -0x1(%rdx),%ecx
    1ec4:	89 88 8c 00 00 00    	mov    %ecx,0x8c(%rax)
    1eca:	49 89 c2             	mov    %rax,%r10
    1ecd:	41 8d 49 09          	lea    0x9(%r9),%ecx
    1ed1:	b8 ab aa aa aa       	mov    $0xaaaaaaab,%eax
    1ed6:	f7 e1                	mul    %ecx
    1ed8:	d1 ea                	shr    %edx
    1eda:	41 89 92 90 00 00 00 	mov    %edx,0x90(%r10)
    1ee1:	49 8b 40 40          	mov    0x40(%r8),%rax
    1ee5:	49 8b 78 50          	mov    0x50(%r8),%rdi
    1ee9:	41 8b 72 50          	mov    0x50(%r10),%esi
    1eed:	ba 02 00 00 00       	mov    $0x2,%edx
    1ef2:	4c 89 6d e0          	mov    %r13,-0x20(%rbp)
    1ef6:	4c 89 75 d8          	mov    %r14,-0x28(%rbp)
    1efa:	4c 89 7d d0          	mov    %r15,-0x30(%rbp)
    1efe:	4d 89 c5             	mov    %r8,%r13
    1f01:	4d 89 d6             	mov    %r10,%r14
    1f04:	4d 89 cf             	mov    %r9,%r15
    1f07:	ff d0                	callq  *%rax
    1f09:	49 89 46 60          	mov    %rax,0x60(%r14)
    1f0d:	49 8b 45 40          	mov    0x40(%r13),%rax
    1f11:	49 8b 7d 50          	mov    0x50(%r13),%rdi
    1f15:	41 8b 76 50          	mov    0x50(%r14),%esi
    1f19:	ba 02 00 00 00       	mov    $0x2,%edx
    1f1e:	ff d0                	callq  *%rax
    1f20:	49 89 46 70          	mov    %rax,0x70(%r14)
    1f24:	49 8b 45 40          	mov    0x40(%r13),%rax
    1f28:	49 8b 7d 50          	mov    0x50(%r13),%rdi
    1f2c:	41 8b b6 84 00 00 00 	mov    0x84(%r14),%esi
    1f33:	ba 02 00 00 00       	mov    $0x2,%edx
    1f38:	ff d0                	callq  *%rax
    1f3a:	49 89 46 78          	mov    %rax,0x78(%r14)
    1f3e:	49 c7 86 38 17 00 00 	movq   $0x0,0x1738(%r14)
    1f45:	00 00 00 00 
    1f49:	41 8d 4f 06          	lea    0x6(%r15),%ecx
    1f4d:	be 01 00 00 00       	mov    $0x1,%esi
    1f52:	d3 e6                	shl    %cl,%esi
    1f54:	41 89 b6 08 17 00 00 	mov    %esi,0x1708(%r14)
    1f5b:	49 8b 45 40          	mov    0x40(%r13),%rax
    1f5f:	49 8b 7d 50          	mov    0x50(%r13),%rdi
    1f63:	ba 04 00 00 00       	mov    $0x4,%edx
    1f68:	ff d0                	callq  *%rax
    1f6a:	49 89 46 10          	mov    %rax,0x10(%r14)
    1f6e:	41 8b 8e 08 17 00 00 	mov    0x1708(%r14),%ecx
    1f75:	48 89 ca             	mov    %rcx,%rdx
    1f78:	48 c1 e2 02          	shl    $0x2,%rdx
    1f7c:	49 89 56 18          	mov    %rdx,0x18(%r14)
    1f80:	49 8b 56 60          	mov    0x60(%r14),%rdx
    1f84:	48 85 d2             	test   %rdx,%rdx
    1f87:	74 6e                	je     1ff7 <deflateInit2_+0x2d7>
    1f89:	49 8b 56 70          	mov    0x70(%r14),%rdx
    1f8d:	48 85 d2             	test   %rdx,%rdx
    1f90:	74 65                	je     1ff7 <deflateInit2_+0x2d7>
    1f92:	49 8b 56 78          	mov    0x78(%r14),%rdx
    1f96:	48 85 d2             	test   %rdx,%rdx
    1f99:	74 5c                	je     1ff7 <deflateInit2_+0x2d7>
    1f9b:	48 85 c0             	test   %rax,%rax
    1f9e:	74 57                	je     1ff7 <deflateInit2_+0x2d7>
    1fa0:	48 83 e1 fe          	and    $0xfffffffffffffffe,%rcx
    1fa4:	48 01 c8             	add    %rcx,%rax
    1fa7:	49 89 86 10 17 00 00 	mov    %rax,0x1710(%r14)
    1fae:	41 8b 86 08 17 00 00 	mov    0x1708(%r14),%eax
    1fb5:	48 8d 04 40          	lea    (%rax,%rax,2),%rax
    1fb9:	49 03 46 10          	add    0x10(%r14),%rax
    1fbd:	49 89 86 00 17 00 00 	mov    %rax,0x1700(%r14)
    1fc4:	48 8b 45 f8          	mov    -0x8(%rbp),%rax
    1fc8:	41 89 86 c4 00 00 00 	mov    %eax,0xc4(%r14)
    1fcf:	48 8b 45 f0          	mov    -0x10(%rbp),%rax
    1fd3:	41 89 86 c8 00 00 00 	mov    %eax,0xc8(%r14)
    1fda:	41 c6 46 48 08       	movb   $0x8,0x48(%r14)
    1fdf:	4c 89 ef             	mov    %r13,%rdi
    1fe2:	e8 00 00 00 00       	callq  1fe7 <deflateInit2_+0x2c7>
    1fe7:	4c 8b 7d d0          	mov    -0x30(%rbp),%r15
    1feb:	4c 8b 75 d8          	mov    -0x28(%rbp),%r14
    1fef:	4c 8b 6d e0          	mov    -0x20(%rbp),%r13
    1ff3:	c9                   	leaveq 
    1ff4:	c3                   	retq   
    1ff5:	c9                   	leaveq 
    1ff6:	c3                   	retq   
    1ff7:	41 c7 46 08 9a 02 00 	movl   $0x29a,0x8(%r14)
    1ffe:	00 
    1fff:	48 8b 05 00 00 00 00 	mov    0x0(%rip),%rax        # 2006 <deflateInit2_+0x2e6>
    2006:	48 8b 40 30          	mov    0x30(%rax),%rax
    200a:	49 89 45 30          	mov    %rax,0x30(%r13)
    200e:	4c 89 ef             	mov    %r13,%rdi
    2011:	e8 00 00 00 00       	callq  2016 <deflateInit2_+0x2f6>
    2016:	4c 8b 7d d0          	mov    -0x30(%rbp),%r15
    201a:	4c 8b 75 d8          	mov    -0x28(%rbp),%r14
    201e:	4c 8b 6d e0          	mov    -0x20(%rbp),%r13
    2022:	48 c7 c0 fc ff ff ff 	mov    $0xfffffffffffffffc,%rax
    2029:	c9                   	leaveq 
    202a:	c3                   	retq   
    202b:	0f 1f 44 00 00       	nopl   0x0(%rax,%rax,1)

0000000000002030 <deflateResetKeep>:
    2030:	55                   	push   %rbp
    2031:	48 89 e5             	mov    %rsp,%rbp
    2034:	48 83 ec 10          	sub    $0x10,%rsp
    2038:	4c 89 7d f0          	mov    %r15,-0x10(%rbp)
    203c:	4d 89 f7             	mov    %r14,%r15
    203f:	49 89 fe             	mov    %rdi,%r14
    2042:	e8 d9 00 00 00       	callq  2120 <deflateStateCheck>
    2047:	85 c0                	test   %eax,%eax
    2049:	74 10                	je     205b <deflateResetKeep+0x2b>
    204b:	4d 89 fe             	mov    %r15,%r14
    204e:	48 c7 c0 fe ff ff ff 	mov    $0xfffffffffffffffe,%rax
    2055:	4c 8b 7d f0          	mov    -0x10(%rbp),%r15
    2059:	c9                   	leaveq 
    205a:	c3                   	retq   
    205b:	49 c7 46 28 00 00 00 	movq   $0x0,0x28(%r14)
    2062:	00 
    2063:	49 c7 46 10 00 00 00 	movq   $0x0,0x10(%r14)
    206a:	00 
    206b:	49 c7 46 30 00 00 00 	movq   $0x0,0x30(%r14)
    2072:	00 
    2073:	41 c7 46 58 02 00 00 	movl   $0x2,0x58(%r14)
    207a:	00 
    207b:	4d 8b 46 38          	mov    0x38(%r14),%r8
    207f:	49 c7 40 28 00 00 00 	movq   $0x0,0x28(%r8)
    2086:	00 
    2087:	49 8b 40 10          	mov    0x10(%r8),%rax
    208b:	49 89 40 20          	mov    %rax,0x20(%r8)
    208f:	49 63 40 30          	movslq 0x30(%r8),%rax
    2093:	85 c0                	test   %eax,%eax
    2095:	79 06                	jns    209d <deflateResetKeep+0x6d>
    2097:	f7 d8                	neg    %eax
    2099:	41 89 40 30          	mov    %eax,0x30(%r8)
    209d:	49 63 48 30          	movslq 0x30(%r8),%rcx
    20a1:	83 f9 02             	cmp    $0x2,%ecx
    20a4:	75 2a                	jne    20d0 <deflateResetKeep+0xa0>
    20a6:	b8 39 00 00 00       	mov    $0x39,%eax
    20ab:	83 f9 02             	cmp    $0x2,%ecx
    20ae:	41 89 40 08          	mov    %eax,0x8(%r8)
    20b2:	bf 00 00 00 00       	mov    $0x0,%edi
    20b7:	74 22                	je     20db <deflateResetKeep+0xab>
    20b9:	48 89 fe             	mov    %rdi,%rsi
    20bc:	48 89 fa             	mov    %rdi,%rdx
    20bf:	4c 89 7d f8          	mov    %r15,-0x8(%rbp)
    20c3:	4d 89 c7             	mov    %r8,%r15
    20c6:	e8 00 00 00 00       	callq  20cb <deflateResetKeep+0x9b>
    20cb:	4c 89 ff             	mov    %r15,%rdi
    20ce:	eb 20                	jmp    20f0 <deflateResetKeep+0xc0>
    20d0:	85 c9                	test   %ecx,%ecx
    20d2:	75 38                	jne    210c <deflateResetKeep+0xdc>
    20d4:	b8 71 00 00 00       	mov    $0x71,%eax
    20d9:	eb d0                	jmp    20ab <deflateResetKeep+0x7b>
    20db:	48 89 fe             	mov    %rdi,%rsi
    20de:	48 89 fa             	mov    %rdi,%rdx
    20e1:	4c 89 7d f8          	mov    %r15,-0x8(%rbp)
    20e5:	4d 89 c7             	mov    %r8,%r15
    20e8:	e8 00 00 00 00       	callq  20ed <deflateResetKeep+0xbd>
    20ed:	4c 89 ff             	mov    %r15,%rdi
    20f0:	49 89 46 60          	mov    %rax,0x60(%r14)
    20f4:	c7 47 4c 00 00 00 00 	movl   $0x0,0x4c(%rdi)
    20fb:	e8 00 00 00 00       	callq  2100 <deflateResetKeep+0xd0>
    2100:	31 c0                	xor    %eax,%eax
    2102:	4c 8b 75 f8          	mov    -0x8(%rbp),%r14
    2106:	4c 8b 7d f0          	mov    -0x10(%rbp),%r15
    210a:	c9                   	leaveq 
    210b:	c3                   	retq   
    210c:	b8 2a 00 00 00       	mov    $0x2a,%eax
    2111:	eb 98                	jmp    20ab <deflateResetKeep+0x7b>
    2113:	66 66 2e 0f 1f 84 00 	data16 nopw %cs:0x0(%rax,%rax,1)
    211a:	00 00 00 00 
    211e:	66 90                	xchg   %ax,%ax

0000000000002120 <deflateStateCheck>:
    2120:	55                   	push   %rbp
    2121:	48 89 e5             	mov    %rsp,%rbp
    2124:	b8 01 00 00 00       	mov    $0x1,%eax
    2129:	48 85 ff             	test   %rdi,%rdi
    212c:	75 02                	jne    2130 <deflateStateCheck+0x10>
    212e:	c9                   	leaveq 
    212f:	c3                   	retq   
    2130:	48 8b 4f 40          	mov    0x40(%rdi),%rcx
    2134:	48 85 c9             	test   %rcx,%rcx
    2137:	75 02                	jne    213b <deflateStateCheck+0x1b>
    2139:	c9                   	leaveq 
    213a:	c3                   	retq   
    213b:	48 8b 4f 48          	mov    0x48(%rdi),%rcx
    213f:	48 85 c9             	test   %rcx,%rcx
    2142:	75 02                	jne    2146 <deflateStateCheck+0x26>
    2144:	c9                   	leaveq 
    2145:	c3                   	retq   
    2146:	48 8b 57 38          	mov    0x38(%rdi),%rdx
    214a:	48 85 d2             	test   %rdx,%rdx
    214d:	75 02                	jne    2151 <deflateStateCheck+0x31>
    214f:	c9                   	leaveq 
    2150:	c3                   	retq   
    2151:	48 3b 3a             	cmp    (%rdx),%rdi
    2154:	74 02                	je     2158 <deflateStateCheck+0x38>
    2156:	c9                   	leaveq 
    2157:	c3                   	retq   
    2158:	31 c9                	xor    %ecx,%ecx
    215a:	48 63 52 08          	movslq 0x8(%rdx),%rdx
    215e:	83 fa 2a             	cmp    $0x2a,%edx
    2161:	75 05                	jne    2168 <deflateStateCheck+0x48>
    2163:	48 89 c8             	mov    %rcx,%rax
    2166:	c9                   	leaveq 
    2167:	c3                   	retq   
    2168:	83 fa 39             	cmp    $0x39,%edx
    216b:	75 05                	jne    2172 <deflateStateCheck+0x52>
    216d:	48 89 c8             	mov    %rcx,%rax
    2170:	c9                   	leaveq 
    2171:	c3                   	retq   
    2172:	83 fa 45             	cmp    $0x45,%edx
    2175:	75 05                	jne    217c <deflateStateCheck+0x5c>
    2177:	48 89 c8             	mov    %rcx,%rax
    217a:	c9                   	leaveq 
    217b:	c3                   	retq   
    217c:	83 fa 49             	cmp    $0x49,%edx
    217f:	75 05                	jne    2186 <deflateStateCheck+0x66>
    2181:	48 89 c8             	mov    %rcx,%rax
    2184:	c9                   	leaveq 
    2185:	c3                   	retq   
    2186:	83 fa 5b             	cmp    $0x5b,%edx
    2189:	75 05                	jne    2190 <deflateStateCheck+0x70>
    218b:	48 89 c8             	mov    %rcx,%rax
    218e:	c9                   	leaveq 
    218f:	c3                   	retq   
    2190:	83 fa 67             	cmp    $0x67,%edx
    2193:	75 05                	jne    219a <deflateStateCheck+0x7a>
    2195:	48 89 c8             	mov    %rcx,%rax
    2198:	c9                   	leaveq 
    2199:	c3                   	retq   
    219a:	83 fa 71             	cmp    $0x71,%edx
    219d:	75 05                	jne    21a4 <deflateStateCheck+0x84>
    219f:	48 89 c8             	mov    %rcx,%rax
    21a2:	c9                   	leaveq 
    21a3:	c3                   	retq   
    21a4:	81 fa 9a 02 00 00    	cmp    $0x29a,%edx
    21aa:	74 02                	je     21ae <deflateStateCheck+0x8e>
    21ac:	c9                   	leaveq 
    21ad:	c3                   	retq   
    21ae:	48 89 c8             	mov    %rcx,%rax
    21b1:	c9                   	leaveq 
    21b2:	c3                   	retq   
    21b3:	66 66 2e 0f 1f 84 00 	data16 nopw %cs:0x0(%rax,%rax,1)
    21ba:	00 00 00 00 
    21be:	66 90                	xchg   %ax,%ax

00000000000021c0 <slide_hash>:
    21c0:	55                   	push   %rbp
    21c1:	48 89 e5             	mov    %rsp,%rbp
    21c4:	44 8b 47 50          	mov    0x50(%rdi),%r8d
    21c8:	8b 8f 84 00 00 00    	mov    0x84(%rdi),%ecx
    21ce:	48 8d 04 09          	lea    (%rcx,%rcx,1),%rax
    21d2:	48 03 47 78          	add    0x78(%rdi),%rax
    21d6:	31 f6                	xor    %esi,%esi
    21d8:	48 83 c0 fe          	add    $0xfffffffffffffffe,%rax
    21dc:	0f b7 10             	movzwl (%rax),%edx
    21df:	41 39 d0             	cmp    %edx,%r8d
    21e2:	76 05                	jbe    21e9 <slide_hash+0x29>
    21e4:	48 89 f2             	mov    %rsi,%rdx
    21e7:	eb 04                	jmp    21ed <slide_hash+0x2d>
    21e9:	66 44 29 c2          	sub    %r8w,%dx
    21ed:	66 89 10             	mov    %dx,(%rax)
    21f0:	83 c1 ff             	add    $0xffffffff,%ecx
    21f3:	85 c9                	test   %ecx,%ecx
    21f5:	75 e1                	jne    21d8 <slide_hash+0x18>
    21f7:	4b 8d 04 00          	lea    (%r8,%r8,1),%rax
    21fb:	48 03 47 70          	add    0x70(%rdi),%rax
    21ff:	4c 89 c1             	mov    %r8,%rcx
    2202:	48 83 c0 fe          	add    $0xfffffffffffffffe,%rax
    2206:	0f b7 10             	movzwl (%rax),%edx
    2209:	41 39 d0             	cmp    %edx,%r8d
    220c:	76 05                	jbe    2213 <slide_hash+0x53>
    220e:	48 89 f2             	mov    %rsi,%rdx
    2211:	eb 04                	jmp    2217 <slide_hash+0x57>
    2213:	66 44 29 c2          	sub    %r8w,%dx
    2217:	66 89 10             	mov    %dx,(%rax)
    221a:	83 c1 ff             	add    $0xffffffff,%ecx
    221d:	85 c9                	test   %ecx,%ecx
    221f:	75 e1                	jne    2202 <slide_hash+0x42>
    2221:	c9                   	leaveq 
    2222:	c3                   	retq   
    2223:	66 66 2e 0f 1f 84 00 	data16 nopw %cs:0x0(%rax,%rax,1)
    222a:	00 00 00 00 
    222e:	66 90                	xchg   %ax,%ax

0000000000002230 <fill_window>:
    2230:	55                   	push   %rbp
    2231:	48 89 e5             	mov    %rsp,%rbp
    2234:	48 83 ec 20          	sub    $0x20,%rsp
    2238:	4c 89 6d f8          	mov    %r13,-0x8(%rbp)
    223c:	4c 89 75 f0          	mov    %r14,-0x10(%rbp)
    2240:	4c 89 7d e8          	mov    %r15,-0x18(%rbp)
    2244:	49 89 fd             	mov    %rdi,%r13
    2247:	45 8b 75 50          	mov    0x50(%r13),%r14d
    224b:	e9 b4 00 00 00       	jmpq   2304 <fill_window+0xd4>
    2250:	49 8b 7d 60          	mov    0x60(%r13),%rdi
    2254:	49 8d 34 3e          	lea    (%r14,%rdi,1),%rsi
    2258:	29 d0                	sub    %edx,%eax
    225a:	44 01 f0             	add    %r14d,%eax
    225d:	89 c2                	mov    %eax,%edx
    225f:	e8 00 00 00 00       	callq  2264 <fill_window+0x34>
    2264:	41 8b 85 b0 00 00 00 	mov    0xb0(%r13),%eax
    226b:	44 29 f0             	sub    %r14d,%eax
    226e:	41 89 85 b0 00 00 00 	mov    %eax,0xb0(%r13)
    2275:	41 8b 85 ac 00 00 00 	mov    0xac(%r13),%eax
    227c:	44 29 f0             	sub    %r14d,%eax
    227f:	41 89 85 ac 00 00 00 	mov    %eax,0xac(%r13)
    2286:	49 8b 85 98 00 00 00 	mov    0x98(%r13),%rax
    228d:	4c 29 f0             	sub    %r14,%rax
    2290:	49 89 85 98 00 00 00 	mov    %rax,0x98(%r13)
    2297:	4c 89 ef             	mov    %r13,%rdi
    229a:	e8 21 ff ff ff       	callq  21c0 <slide_hash>
    229f:	45 01 f7             	add    %r14d,%r15d
    22a2:	49 8b 7d 00          	mov    0x0(%r13),%rdi
    22a6:	8b 47 08             	mov    0x8(%rdi),%eax
    22a9:	85 c0                	test   %eax,%eax
    22ab:	0f 84 87 00 00 00    	je     2338 <fill_window+0x108>
    22b1:	41 8b 85 ac 00 00 00 	mov    0xac(%r13),%eax
    22b8:	49 03 45 60          	add    0x60(%r13),%rax
    22bc:	41 8b 8d b4 00 00 00 	mov    0xb4(%r13),%ecx
    22c3:	48 8d 34 01          	lea    (%rcx,%rax,1),%rsi
    22c7:	4c 89 fa             	mov    %r15,%rdx
    22ca:	e8 01 20 00 00       	callq  42d0 <read_buf>
    22cf:	41 03 85 b4 00 00 00 	add    0xb4(%r13),%eax
    22d6:	41 89 85 b4 00 00 00 	mov    %eax,0xb4(%r13)
    22dd:	41 8b 8d 2c 17 00 00 	mov    0x172c(%r13),%ecx
    22e4:	01 c8                	add    %ecx,%eax
    22e6:	83 f8 02             	cmp    $0x2,%eax
    22e9:	77 6b                	ja     2356 <fill_window+0x126>
    22eb:	41 8b 85 b4 00 00 00 	mov    0xb4(%r13),%eax
    22f2:	3d 05 01 00 00       	cmp    $0x105,%eax
    22f7:	77 3f                	ja     2338 <fill_window+0x108>
    22f9:	49 8b 45 00          	mov    0x0(%r13),%rax
    22fd:	8b 40 08             	mov    0x8(%rax),%eax
    2300:	85 c0                	test   %eax,%eax
    2302:	74 34                	je     2338 <fill_window+0x108>
    2304:	41 8b b5 ac 00 00 00 	mov    0xac(%r13),%esi
    230b:	48 89 f0             	mov    %rsi,%rax
    230e:	41 03 85 b4 00 00 00 	add    0xb4(%r13),%eax
    2315:	41 8b 55 68          	mov    0x68(%r13),%edx
    2319:	49 89 d7             	mov    %rdx,%r15
    231c:	41 29 c7             	sub    %eax,%r15d
    231f:	41 8b 4d 50          	mov    0x50(%r13),%ecx
    2323:	42 8d 8c 31 fa fe ff 	lea    -0x106(%rcx,%r14,1),%ecx
    232a:	ff 
    232b:	39 ce                	cmp    %ecx,%esi
    232d:	0f 83 1d ff ff ff    	jae    2250 <fill_window+0x20>
    2333:	e9 6a ff ff ff       	jmpq   22a2 <fill_window+0x72>
    2338:	49 8b bd 38 17 00 00 	mov    0x1738(%r13),%rdi
    233f:	4d 8b 75 68          	mov    0x68(%r13),%r14
    2343:	49 39 fe             	cmp    %rdi,%r14
    2346:	77 4f                	ja     2397 <fill_window+0x167>
    2348:	4c 8b 7d e8          	mov    -0x18(%rbp),%r15
    234c:	4c 8b 75 f0          	mov    -0x10(%rbp),%r14
    2350:	4c 8b 6d f8          	mov    -0x8(%rbp),%r13
    2354:	c9                   	leaveq 
    2355:	c3                   	retq   
    2356:	41 8b 95 ac 00 00 00 	mov    0xac(%r13),%edx
    235d:	29 ca                	sub    %ecx,%edx
    235f:	89 d0                	mov    %edx,%eax
    2361:	49 8b 4d 60          	mov    0x60(%r13),%rcx
    2365:	0f b6 34 01          	movzbl (%rcx,%rax,1),%esi
    2369:	41 89 b5 80 00 00 00 	mov    %esi,0x80(%r13)
    2370:	8d 42 01             	lea    0x1(%rdx),%eax
    2373:	89 c0                	mov    %eax,%eax
    2375:	0f b6 04 08          	movzbl (%rax,%rcx,1),%eax
    2379:	41 8b 8d 90 00 00 00 	mov    0x90(%r13),%ecx
    2380:	d3 e6                	shl    %cl,%esi
    2382:	31 f0                	xor    %esi,%eax
    2384:	41 23 85 8c 00 00 00 	and    0x8c(%r13),%eax
    238b:	41 89 85 80 00 00 00 	mov    %eax,0x80(%r13)
    2392:	e9 ba 00 00 00       	jmpq   2451 <fill_window+0x221>
    2397:	31 f6                	xor    %esi,%esi
    2399:	41 8b 8d b4 00 00 00 	mov    0xb4(%r13),%ecx
    23a0:	41 8b 85 ac 00 00 00 	mov    0xac(%r13),%eax
    23a7:	4c 8d 3c 01          	lea    (%rcx,%rax,1),%r15
    23ab:	4c 39 ff             	cmp    %r15,%rdi
    23ae:	0f 82 b1 00 00 00    	jb     2465 <fill_window+0x235>
    23b4:	49 81 c7 02 01 00 00 	add    $0x102,%r15
    23bb:	4c 39 ff             	cmp    %r15,%rdi
    23be:	0f 82 db 00 00 00    	jb     249f <fill_window+0x26f>
    23c4:	4c 8b 7d e8          	mov    -0x18(%rbp),%r15
    23c8:	4c 8b 75 f0          	mov    -0x10(%rbp),%r14
    23cc:	4c 8b 6d f8          	mov    -0x8(%rbp),%r13
    23d0:	c9                   	leaveq 
    23d1:	c3                   	retq   
    23d2:	8d 42 02             	lea    0x2(%rdx),%eax
    23d5:	89 c1                	mov    %eax,%ecx
    23d7:	49 8b 45 60          	mov    0x60(%r13),%rax
    23db:	0f b6 04 01          	movzbl (%rcx,%rax,1),%eax
    23df:	41 8b b5 80 00 00 00 	mov    0x80(%r13),%esi
    23e6:	41 8b 8d 90 00 00 00 	mov    0x90(%r13),%ecx
    23ed:	d3 e6                	shl    %cl,%esi
    23ef:	31 f0                	xor    %esi,%eax
    23f1:	41 23 85 8c 00 00 00 	and    0x8c(%r13),%eax
    23f8:	41 89 85 80 00 00 00 	mov    %eax,0x80(%r13)
    23ff:	89 c0                	mov    %eax,%eax
    2401:	49 8b 4d 78          	mov    0x78(%r13),%rcx
    2405:	0f b7 34 41          	movzwl (%rcx,%rax,2),%esi
    2409:	48 89 d0             	mov    %rdx,%rax
    240c:	41 23 45 58          	and    0x58(%r13),%eax
    2410:	89 c0                	mov    %eax,%eax
    2412:	49 8b 4d 70          	mov    0x70(%r13),%rcx
    2416:	66 89 34 41          	mov    %si,(%rcx,%rax,2)
    241a:	49 8b 4d 78          	mov    0x78(%r13),%rcx
    241e:	41 8b 85 80 00 00 00 	mov    0x80(%r13),%eax
    2425:	66 89 14 41          	mov    %dx,(%rcx,%rax,2)
    2429:	41 8b 8d 2c 17 00 00 	mov    0x172c(%r13),%ecx
    2430:	8d 41 ff             	lea    -0x1(%rcx),%eax
    2433:	41 89 85 2c 17 00 00 	mov    %eax,0x172c(%r13)
    243a:	41 8b 85 b4 00 00 00 	mov    0xb4(%r13),%eax
    2441:	8d 44 08 ff          	lea    -0x1(%rax,%rcx,1),%eax
    2445:	83 f8 02             	cmp    $0x2,%eax
    2448:	0f 86 9d fe ff ff    	jbe    22eb <fill_window+0xbb>
    244e:	83 c2 01             	add    $0x1,%edx
    2451:	41 8b 85 2c 17 00 00 	mov    0x172c(%r13),%eax
    2458:	85 c0                	test   %eax,%eax
    245a:	0f 85 72 ff ff ff    	jne    23d2 <fill_window+0x1a2>
    2460:	e9 86 fe ff ff       	jmpq   22eb <fill_window+0xbb>
    2465:	4d 29 fe             	sub    %r15,%r14
    2468:	49 81 fe 02 01 00 00 	cmp    $0x102,%r14
    246f:	76 06                	jbe    2477 <fill_window+0x247>
    2471:	41 be 02 01 00 00    	mov    $0x102,%r14d
    2477:	4c 89 ff             	mov    %r15,%rdi
    247a:	49 03 7d 60          	add    0x60(%r13),%rdi
    247e:	44 89 f2             	mov    %r14d,%edx
    2481:	e8 00 00 00 00       	callq  2486 <fill_window+0x256>
    2486:	4b 8d 04 37          	lea    (%r15,%r14,1),%rax
    248a:	49 89 85 38 17 00 00 	mov    %rax,0x1738(%r13)
    2491:	4c 8b 7d e8          	mov    -0x18(%rbp),%r15
    2495:	4c 8b 75 f0          	mov    -0x10(%rbp),%r14
    2499:	4c 8b 6d f8          	mov    -0x8(%rbp),%r13
    249d:	c9                   	leaveq 
    249e:	c3                   	retq   
    249f:	49 29 fe             	sub    %rdi,%r14
    24a2:	49 29 ff             	sub    %rdi,%r15
    24a5:	4d 39 fe             	cmp    %r15,%r14
    24a8:	73 03                	jae    24ad <fill_window+0x27d>
    24aa:	4d 89 f7             	mov    %r14,%r15
    24ad:	49 03 7d 60          	add    0x60(%r13),%rdi
    24b1:	44 89 fa             	mov    %r15d,%edx
    24b4:	e8 00 00 00 00       	callq  24b9 <fill_window+0x289>
    24b9:	4d 03 bd 38 17 00 00 	add    0x1738(%r13),%r15
    24c0:	4d 89 bd 38 17 00 00 	mov    %r15,0x1738(%r13)
    24c7:	4c 8b 7d e8          	mov    -0x18(%rbp),%r15
    24cb:	4c 8b 75 f0          	mov    -0x10(%rbp),%r14
    24cf:	4c 8b 6d f8          	mov    -0x8(%rbp),%r13
    24d3:	c9                   	leaveq 
    24d4:	c3                   	retq   
    24d5:	66 66 2e 0f 1f 84 00 	data16 nopw %cs:0x0(%rax,%rax,1)
    24dc:	00 00 00 00 

00000000000024e0 <deflate_stored>:
    24e0:	55                   	push   %rbp
    24e1:	48 89 e5             	mov    %rsp,%rbp
    24e4:	48 83 ec 50          	sub    $0x50,%rsp
    24e8:	48 89 75 b8          	mov    %rsi,-0x48(%rbp)
    24ec:	48 89 5d f8          	mov    %rbx,-0x8(%rbp)
    24f0:	4c 89 65 f0          	mov    %r12,-0x10(%rbp)
    24f4:	4c 89 6d e8          	mov    %r13,-0x18(%rbp)
    24f8:	4c 89 75 e0          	mov    %r14,-0x20(%rbp)
    24fc:	4c 89 7d d8          	mov    %r15,-0x28(%rbp)
    2500:	8b 47 50             	mov    0x50(%rdi),%eax
    2503:	48 8b 57 18          	mov    0x18(%rdi),%rdx
    2507:	48 83 c2 fb          	add    $0xfffffffffffffffb,%rdx
    250b:	48 39 d0             	cmp    %rdx,%rax
    250e:	73 03                	jae    2513 <deflate_stored+0x33>
    2510:	48 89 c2             	mov    %rax,%rdx
    2513:	48 89 55 c8          	mov    %rdx,-0x38(%rbp)
    2517:	48 8b 07             	mov    (%rdi),%rax
    251a:	8b 40 08             	mov    0x8(%rax),%eax
    251d:	48 89 45 d0          	mov    %rax,-0x30(%rbp)
    2521:	48 89 fb             	mov    %rdi,%rbx
    2524:	49 89 f6             	mov    %rsi,%r14
    2527:	b9 01 00 00 00       	mov    $0x1,%ecx
    252c:	31 f6                	xor    %esi,%esi
    252e:	41 bf ff ff 00 00    	mov    $0xffff,%r15d
    2534:	e9 62 01 00 00       	jmpq   269b <deflate_stored+0x1bb>
    2539:	47 8d 24 29          	lea    (%r9,%r13,1),%r12d
    253d:	29 c7                	sub    %eax,%edi
    253f:	41 39 fc             	cmp    %edi,%r12d
    2542:	76 03                	jbe    2547 <deflate_stored+0x67>
    2544:	49 89 fc             	mov    %rdi,%r12
    2547:	41 39 d4             	cmp    %edx,%r12d
    254a:	73 25                	jae    2571 <deflate_stored+0x91>
    254c:	45 85 e4             	test   %r12d,%r12d
    254f:	75 0a                	jne    255b <deflate_stored+0x7b>
    2551:	41 83 fe 04          	cmp    $0x4,%r14d
    2555:	0f 85 ca 01 00 00    	jne    2725 <deflate_stored+0x245>
    255b:	45 85 f6             	test   %r14d,%r14d
    255e:	0f 84 c6 01 00 00    	je     272a <deflate_stored+0x24a>
    2564:	43 8d 04 29          	lea    (%r9,%r13,1),%eax
    2568:	41 39 c4             	cmp    %eax,%r12d
    256b:	0f 85 be 01 00 00    	jne    272f <deflate_stored+0x24f>
    2571:	41 83 fe 04          	cmp    $0x4,%r14d
    2575:	0f 84 b9 01 00 00    	je     2734 <deflate_stored+0x254>
    257b:	48 89 f1             	mov    %rsi,%rcx
    257e:	4d 89 de             	mov    %r11,%r14
    2581:	4d 89 d7             	mov    %r10,%r15
    2584:	48 89 4d c0          	mov    %rcx,-0x40(%rbp)
    2588:	48 89 f2             	mov    %rsi,%rdx
    258b:	48 89 df             	mov    %rbx,%rdi
    258e:	e8 00 00 00 00       	callq  2593 <deflate_stored+0xb3>
    2593:	48 8b 4b 28          	mov    0x28(%rbx),%rcx
    2597:	48 8b 43 10          	mov    0x10(%rbx),%rax
    259b:	44 88 64 01 fc       	mov    %r12b,-0x4(%rcx,%rax,1)
    25a0:	4c 89 e2             	mov    %r12,%rdx
    25a3:	c1 ea 08             	shr    $0x8,%edx
    25a6:	48 8b 4b 28          	mov    0x28(%rbx),%rcx
    25aa:	48 8b 43 10          	mov    0x10(%rbx),%rax
    25ae:	88 54 01 fd          	mov    %dl,-0x3(%rcx,%rax,1)
    25b2:	4c 89 e0             	mov    %r12,%rax
    25b5:	f7 d0                	not    %eax
    25b7:	48 8b 53 28          	mov    0x28(%rbx),%rdx
    25bb:	48 8b 4b 10          	mov    0x10(%rbx),%rcx
    25bf:	88 44 0a fe          	mov    %al,-0x2(%rdx,%rcx,1)
    25c3:	c1 e8 08             	shr    $0x8,%eax
    25c6:	48 8b 53 28          	mov    0x28(%rbx),%rdx
    25ca:	48 8b 4b 10          	mov    0x10(%rbx),%rcx
    25ce:	88 44 0a ff          	mov    %al,-0x1(%rdx,%rcx,1)
    25d2:	48 8b 3b             	mov    (%rbx),%rdi
    25d5:	e8 16 1c 00 00       	callq  41f0 <flush_pending>
    25da:	45 39 f7             	cmp    %r14d,%r15d
    25dd:	74 5e                	je     263d <deflate_stored+0x15d>
    25df:	45 39 ec             	cmp    %r13d,%r12d
    25e2:	73 03                	jae    25e7 <deflate_stored+0x107>
    25e4:	4d 89 e5             	mov    %r12,%r13
    25e7:	48 8b b3 98 00 00 00 	mov    0x98(%rbx),%rsi
    25ee:	48 03 73 60          	add    0x60(%rbx),%rsi
    25f2:	45 89 ee             	mov    %r13d,%r14d
    25f5:	48 8b 03             	mov    (%rbx),%rax
    25f8:	48 8b 78 18          	mov    0x18(%rax),%rdi
    25fc:	4c 89 f2             	mov    %r14,%rdx
    25ff:	e8 00 00 00 00       	callq  2604 <deflate_stored+0x124>
    2604:	48 8b 0b             	mov    (%rbx),%rcx
    2607:	4c 89 f0             	mov    %r14,%rax
    260a:	48 03 41 18          	add    0x18(%rcx),%rax
    260e:	48 89 41 18          	mov    %rax,0x18(%rcx)
    2612:	48 8b 0b             	mov    (%rbx),%rcx
    2615:	8b 41 20             	mov    0x20(%rcx),%eax
    2618:	44 29 e8             	sub    %r13d,%eax
    261b:	89 41 20             	mov    %eax,0x20(%rcx)
    261e:	48 8b 0b             	mov    (%rbx),%rcx
    2621:	4c 89 f0             	mov    %r14,%rax
    2624:	48 03 41 28          	add    0x28(%rcx),%rax
    2628:	48 89 41 28          	mov    %rax,0x28(%rcx)
    262c:	45 29 ec             	sub    %r13d,%r12d
    262f:	4c 03 b3 98 00 00 00 	add    0x98(%rbx),%r14
    2636:	4c 89 b3 98 00 00 00 	mov    %r14,0x98(%rbx)
    263d:	45 85 e4             	test   %r12d,%r12d
    2640:	74 37                	je     2679 <deflate_stored+0x199>
    2642:	48 8b 3b             	mov    (%rbx),%rdi
    2645:	48 8b 77 18          	mov    0x18(%rdi),%rsi
    2649:	4c 89 e2             	mov    %r12,%rdx
    264c:	e8 7f 1c 00 00       	callq  42d0 <read_buf>
    2651:	44 89 e0             	mov    %r12d,%eax
    2654:	48 8b 13             	mov    (%rbx),%rdx
    2657:	48 89 c1             	mov    %rax,%rcx
    265a:	48 03 4a 18          	add    0x18(%rdx),%rcx
    265e:	48 89 4a 18          	mov    %rcx,0x18(%rdx)
    2662:	48 8b 13             	mov    (%rbx),%rdx
    2665:	8b 4a 20             	mov    0x20(%rdx),%ecx
    2668:	44 29 e1             	sub    %r12d,%ecx
    266b:	89 4a 20             	mov    %ecx,0x20(%rdx)
    266e:	48 8b 0b             	mov    (%rbx),%rcx
    2671:	48 03 41 28          	add    0x28(%rcx),%rax
    2675:	48 89 41 28          	mov    %rax,0x28(%rcx)
    2679:	4c 8b 65 c0          	mov    -0x40(%rbp),%r12
    267d:	45 85 e4             	test   %r12d,%r12d
    2680:	0f 85 c8 00 00 00    	jne    274e <deflate_stored+0x26e>
    2686:	b9 01 00 00 00       	mov    $0x1,%ecx
    268b:	31 f6                	xor    %esi,%esi
    268d:	4c 8b 75 b8          	mov    -0x48(%rbp),%r14
    2691:	48 8b 55 c8          	mov    -0x38(%rbp),%rdx
    2695:	41 bf ff ff 00 00    	mov    $0xffff,%r15d
    269b:	8b 83 34 17 00 00    	mov    0x1734(%rbx),%eax
    26a1:	83 c0 2a             	add    $0x2a,%eax
    26a4:	c1 f8 03             	sar    $0x3,%eax
    26a7:	4c 8b 0b             	mov    (%rbx),%r9
    26aa:	41 8b 79 20          	mov    0x20(%r9),%edi
    26ae:	39 f8                	cmp    %edi,%eax
    26b0:	0f 86 ae 00 00 00    	jbe    2764 <deflate_stored+0x284>
    26b6:	49 89 f4             	mov    %rsi,%r12
    26b9:	48 8b 13             	mov    (%rbx),%rdx
    26bc:	8b 42 08             	mov    0x8(%rdx),%eax
    26bf:	4c 8b 6d d0          	mov    -0x30(%rbp),%r13
    26c3:	44 39 e8             	cmp    %r13d,%eax
    26c6:	0f 84 24 01 00 00    	je     27f0 <deflate_stored+0x310>
    26cc:	41 29 c5             	sub    %eax,%r13d
    26cf:	44 8b 4b 50          	mov    0x50(%rbx),%r9d
    26d3:	45 39 e9             	cmp    %r13d,%r9d
    26d6:	0f 86 bb 00 00 00    	jbe    2797 <deflate_stored+0x2b7>
    26dc:	44 8b 83 ac 00 00 00 	mov    0xac(%rbx),%r8d
    26e3:	48 8b 43 68          	mov    0x68(%rbx),%rax
    26e7:	4c 29 c0             	sub    %r8,%rax
    26ea:	44 89 ea             	mov    %r13d,%edx
    26ed:	48 39 c2             	cmp    %rax,%rdx
    26f0:	0f 83 30 01 00 00    	jae    2826 <deflate_stored+0x346>
    26f6:	8b bb ac 00 00 00    	mov    0xac(%rbx),%edi
    26fc:	48 03 7b 60          	add    0x60(%rbx),%rdi
    2700:	48 8b 03             	mov    (%rbx),%rax
    2703:	48 8b 30             	mov    (%rax),%rsi
    2706:	44 89 e8             	mov    %r13d,%eax
    2709:	48 29 c6             	sub    %rax,%rsi
    270c:	49 89 cf             	mov    %rcx,%r15
    270f:	e8 00 00 00 00       	callq  2714 <deflate_stored+0x234>
    2714:	4c 89 e8             	mov    %r13,%rax
    2717:	03 83 ac 00 00 00    	add    0xac(%rbx),%eax
    271d:	4c 89 f9             	mov    %r15,%rcx
    2720:	e9 97 00 00 00       	jmpq   27bc <deflate_stored+0x2dc>
    2725:	49 89 f4             	mov    %rsi,%r12
    2728:	eb 8f                	jmp    26b9 <deflate_stored+0x1d9>
    272a:	49 89 f4             	mov    %rsi,%r12
    272d:	eb 8a                	jmp    26b9 <deflate_stored+0x1d9>
    272f:	49 89 f4             	mov    %rsi,%r12
    2732:	eb 85                	jmp    26b9 <deflate_stored+0x1d9>
    2734:	48 8b 03             	mov    (%rbx),%rax
    2737:	8b 40 08             	mov    0x8(%rax),%eax
    273a:	44 01 e8             	add    %r13d,%eax
    273d:	41 39 c4             	cmp    %eax,%r12d
    2740:	0f 84 38 fe ff ff    	je     257e <deflate_stored+0x9e>
    2746:	48 89 f1             	mov    %rsi,%rcx
    2749:	e9 30 fe ff ff       	jmpq   257e <deflate_stored+0x9e>
    274e:	b9 01 00 00 00       	mov    $0x1,%ecx
    2753:	31 f6                	xor    %esi,%esi
    2755:	4c 8b 75 b8          	mov    -0x48(%rbp),%r14
    2759:	41 bf ff ff 00 00    	mov    $0xffff,%r15d
    275f:	e9 55 ff ff ff       	jmpq   26b9 <deflate_stored+0x1d9>
    2764:	44 8b 9b ac 00 00 00 	mov    0xac(%rbx),%r11d
    276b:	44 8b 93 98 00 00 00 	mov    0x98(%rbx),%r10d
    2772:	4d 89 dd             	mov    %r11,%r13
    2775:	45 29 d5             	sub    %r10d,%r13d
    2778:	45 89 e8             	mov    %r13d,%r8d
    277b:	45 8b 49 08          	mov    0x8(%r9),%r9d
    277f:	4d 01 c8             	add    %r9,%r8
    2782:	49 81 f8 fe ff 00 00 	cmp    $0xfffe,%r8
    2789:	0f 86 aa fd ff ff    	jbe    2539 <deflate_stored+0x59>
    278f:	4d 89 fc             	mov    %r15,%r12
    2792:	e9 a6 fd ff ff       	jmpq   253d <deflate_stored+0x5d>
    2797:	c7 83 28 17 00 00 02 	movl   $0x2,0x1728(%rbx)
    279e:	00 00 00 
    27a1:	48 8b 32             	mov    (%rdx),%rsi
    27a4:	4c 29 ce             	sub    %r9,%rsi
    27a7:	4c 89 ca             	mov    %r9,%rdx
    27aa:	49 89 cf             	mov    %rcx,%r15
    27ad:	48 8b 7b 60          	mov    0x60(%rbx),%rdi
    27b1:	e8 00 00 00 00       	callq  27b6 <deflate_stored+0x2d6>
    27b6:	8b 43 50             	mov    0x50(%rbx),%eax
    27b9:	4c 89 f9             	mov    %r15,%rcx
    27bc:	89 c2                	mov    %eax,%edx
    27be:	48 89 93 98 00 00 00 	mov    %rdx,0x98(%rbx)
    27c5:	89 83 ac 00 00 00    	mov    %eax,0xac(%rbx)
    27cb:	8b 93 2c 17 00 00    	mov    0x172c(%rbx),%edx
    27d1:	8b 43 50             	mov    0x50(%rbx),%eax
    27d4:	29 d0                	sub    %edx,%eax
    27d6:	41 39 c5             	cmp    %eax,%r13d
    27d9:	76 03                	jbe    27de <deflate_stored+0x2fe>
    27db:	49 89 c5             	mov    %rax,%r13
    27de:	42 8d 04 2a          	lea    (%rdx,%r13,1),%eax
    27e2:	89 83 2c 17 00 00    	mov    %eax,0x172c(%rbx)
    27e8:	31 f6                	xor    %esi,%esi
    27ea:	41 bf ff ff 00 00    	mov    $0xffff,%r15d
    27f0:	8b 83 ac 00 00 00    	mov    0xac(%rbx),%eax
    27f6:	48 3b 83 38 17 00 00 	cmp    0x1738(%rbx),%rax
    27fd:	76 07                	jbe    2806 <deflate_stored+0x326>
    27ff:	48 89 83 38 17 00 00 	mov    %rax,0x1738(%rbx)
    2806:	45 85 e4             	test   %r12d,%r12d
    2809:	74 57                	je     2862 <deflate_stored+0x382>
    280b:	b8 03 00 00 00       	mov    $0x3,%eax
    2810:	4c 8b 7d d8          	mov    -0x28(%rbp),%r15
    2814:	4c 8b 75 e0          	mov    -0x20(%rbp),%r14
    2818:	4c 8b 6d e8          	mov    -0x18(%rbp),%r13
    281c:	4c 8b 65 f0          	mov    -0x10(%rbp),%r12
    2820:	48 8b 5d f8          	mov    -0x8(%rbp),%rbx
    2824:	c9                   	leaveq 
    2825:	c3                   	retq   
    2826:	45 29 c8             	sub    %r9d,%r8d
    2829:	44 89 83 ac 00 00 00 	mov    %r8d,0xac(%rbx)
    2830:	48 8b 7b 60          	mov    0x60(%rbx),%rdi
    2834:	49 8d 34 39          	lea    (%r9,%rdi,1),%rsi
    2838:	44 89 c0             	mov    %r8d,%eax
    283b:	49 89 d7             	mov    %rdx,%r15
    283e:	48 89 c2             	mov    %rax,%rdx
    2841:	e8 00 00 00 00       	callq  2846 <deflate_stored+0x366>
    2846:	8b 83 28 17 00 00    	mov    0x1728(%rbx),%eax
    284c:	83 f8 01             	cmp    $0x1,%eax
    284f:	0f 86 43 01 00 00    	jbe    2998 <deflate_stored+0x4b8>
    2855:	4c 89 fa             	mov    %r15,%rdx
    2858:	b9 01 00 00 00       	mov    $0x1,%ecx
    285d:	e9 94 fe ff ff       	jmpq   26f6 <deflate_stored+0x216>
    2862:	45 85 f6             	test   %r14d,%r14d
    2865:	0f 85 43 01 00 00    	jne    29ae <deflate_stored+0x4ce>
    286b:	8b 93 ac 00 00 00    	mov    0xac(%rbx),%edx
    2871:	8b 43 68             	mov    0x68(%rbx),%eax
    2874:	29 d0                	sub    %edx,%eax
    2876:	44 8d 60 ff          	lea    -0x1(%rax),%r12d
    287a:	48 8b 03             	mov    (%rbx),%rax
    287d:	44 3b 60 08          	cmp    0x8(%rax),%r12d
    2881:	0f 82 6e 01 00 00    	jb     29f5 <deflate_stored+0x515>
    2887:	48 8b 3b             	mov    (%rbx),%rdi
    288a:	8b 47 08             	mov    0x8(%rdi),%eax
    288d:	44 39 e0             	cmp    %r12d,%eax
    2890:	73 03                	jae    2895 <deflate_stored+0x3b5>
    2892:	49 89 c4             	mov    %rax,%r12
    2895:	45 85 e4             	test   %r12d,%r12d
    2898:	74 2e                	je     28c8 <deflate_stored+0x3e8>
    289a:	8b 83 ac 00 00 00    	mov    0xac(%rbx),%eax
    28a0:	48 03 43 60          	add    0x60(%rbx),%rax
    28a4:	49 89 f5             	mov    %rsi,%r13
    28a7:	48 89 c6             	mov    %rax,%rsi
    28aa:	4c 89 e2             	mov    %r12,%rdx
    28ad:	e8 1e 1a 00 00       	callq  42d0 <read_buf>
    28b2:	44 03 a3 ac 00 00 00 	add    0xac(%rbx),%r12d
    28b9:	44 89 a3 ac 00 00 00 	mov    %r12d,0xac(%rbx)
    28c0:	4c 89 ee             	mov    %r13,%rsi
    28c3:	b9 01 00 00 00       	mov    $0x1,%ecx
    28c8:	8b 83 ac 00 00 00    	mov    0xac(%rbx),%eax
    28ce:	48 3b 83 38 17 00 00 	cmp    0x1738(%rbx),%rax
    28d5:	76 07                	jbe    28de <deflate_stored+0x3fe>
    28d7:	48 89 83 38 17 00 00 	mov    %rax,0x1738(%rbx)
    28de:	48 8b 53 18          	mov    0x18(%rbx),%rdx
    28e2:	8b 83 34 17 00 00    	mov    0x1734(%rbx),%eax
    28e8:	83 c0 2a             	add    $0x2a,%eax
    28eb:	c1 f8 03             	sar    $0x3,%eax
    28ee:	89 c0                	mov    %eax,%eax
    28f0:	48 29 c2             	sub    %rax,%rdx
    28f3:	48 81 fa ff ff 00 00 	cmp    $0xffff,%rdx
    28fa:	77 03                	ja     28ff <deflate_stored+0x41f>
    28fc:	49 89 d7             	mov    %rdx,%r15
    28ff:	8b 43 50             	mov    0x50(%rbx),%eax
    2902:	41 39 c7             	cmp    %eax,%r15d
    2905:	77 03                	ja     290a <deflate_stored+0x42a>
    2907:	4c 89 f8             	mov    %r15,%rax
    290a:	44 8b 83 ac 00 00 00 	mov    0xac(%rbx),%r8d
    2911:	8b bb 98 00 00 00    	mov    0x98(%rbx),%edi
    2917:	4c 89 c2             	mov    %r8,%rdx
    291a:	29 fa                	sub    %edi,%edx
    291c:	39 c2                	cmp    %eax,%edx
    291e:	0f 82 32 01 00 00    	jb     2a56 <deflate_stored+0x576>
    2924:	41 39 d7             	cmp    %edx,%r15d
    2927:	72 03                	jb     292c <deflate_stored+0x44c>
    2929:	49 89 d7             	mov    %rdx,%r15
    292c:	41 83 fe 04          	cmp    $0x4,%r14d
    2930:	0f 84 32 01 00 00    	je     2a68 <deflate_stored+0x588>
    2936:	48 89 f1             	mov    %rsi,%rcx
    2939:	48 8b 83 98 00 00 00 	mov    0x98(%rbx),%rax
    2940:	48 03 43 60          	add    0x60(%rbx),%rax
    2944:	45 89 fc             	mov    %r15d,%r12d
    2947:	49 89 f6             	mov    %rsi,%r14
    294a:	48 89 c6             	mov    %rax,%rsi
    294d:	48 89 df             	mov    %rbx,%rdi
    2950:	4c 89 e2             	mov    %r12,%rdx
    2953:	49 89 cd             	mov    %rcx,%r13
    2956:	e8 00 00 00 00       	callq  295b <deflate_stored+0x47b>
    295b:	4c 03 a3 98 00 00 00 	add    0x98(%rbx),%r12
    2962:	4c 89 a3 98 00 00 00 	mov    %r12,0x98(%rbx)
    2969:	48 8b 3b             	mov    (%rbx),%rdi
    296c:	e8 7f 18 00 00       	callq  41f0 <flush_pending>
    2971:	4c 89 f6             	mov    %r14,%rsi
    2974:	45 85 ed             	test   %r13d,%r13d
    2977:	0f 84 fd 00 00 00    	je     2a7a <deflate_stored+0x59a>
    297d:	b8 02 00 00 00       	mov    $0x2,%eax
    2982:	4c 8b 7d d8          	mov    -0x28(%rbp),%r15
    2986:	4c 8b 75 e0          	mov    -0x20(%rbp),%r14
    298a:	4c 8b 6d e8          	mov    -0x18(%rbp),%r13
    298e:	4c 8b 65 f0          	mov    -0x10(%rbp),%r12
    2992:	48 8b 5d f8          	mov    -0x8(%rbp),%rbx
    2996:	c9                   	leaveq 
    2997:	c3                   	retq   
    2998:	83 c0 01             	add    $0x1,%eax
    299b:	89 83 28 17 00 00    	mov    %eax,0x1728(%rbx)
    29a1:	4c 89 fa             	mov    %r15,%rdx
    29a4:	b9 01 00 00 00       	mov    $0x1,%ecx
    29a9:	e9 48 fd ff ff       	jmpq   26f6 <deflate_stored+0x216>
    29ae:	41 83 fe 04          	cmp    $0x4,%r14d
    29b2:	0f 84 b3 fe ff ff    	je     286b <deflate_stored+0x38b>
    29b8:	48 8b 03             	mov    (%rbx),%rax
    29bb:	8b 40 08             	mov    0x8(%rax),%eax
    29be:	85 c0                	test   %eax,%eax
    29c0:	0f 85 a5 fe ff ff    	jne    286b <deflate_stored+0x38b>
    29c6:	48 8b 93 98 00 00 00 	mov    0x98(%rbx),%rdx
    29cd:	8b 83 ac 00 00 00    	mov    0xac(%rbx),%eax
    29d3:	48 39 c2             	cmp    %rax,%rdx
    29d6:	0f 85 8f fe ff ff    	jne    286b <deflate_stored+0x38b>
    29dc:	48 89 c8             	mov    %rcx,%rax
    29df:	4c 8b 7d d8          	mov    -0x28(%rbp),%r15
    29e3:	4c 8b 75 e0          	mov    -0x20(%rbp),%r14
    29e7:	4c 8b 6d e8          	mov    -0x18(%rbp),%r13
    29eb:	4c 8b 65 f0          	mov    -0x10(%rbp),%r12
    29ef:	48 8b 5d f8          	mov    -0x8(%rbp),%rbx
    29f3:	c9                   	leaveq 
    29f4:	c3                   	retq   
    29f5:	48 8b 83 98 00 00 00 	mov    0x98(%rbx),%rax
    29fc:	44 8b 43 50          	mov    0x50(%rbx),%r8d
    2a00:	49 39 c0             	cmp    %rax,%r8
    2a03:	0f 8f 7e fe ff ff    	jg     2887 <deflate_stored+0x3a7>
    2a09:	4c 29 c0             	sub    %r8,%rax
    2a0c:	48 89 83 98 00 00 00 	mov    %rax,0x98(%rbx)
    2a13:	44 29 c2             	sub    %r8d,%edx
    2a16:	89 93 ac 00 00 00    	mov    %edx,0xac(%rbx)
    2a1c:	48 8b 7b 60          	mov    0x60(%rbx),%rdi
    2a20:	49 8d 04 38          	lea    (%r8,%rdi,1),%rax
    2a24:	89 d2                	mov    %edx,%edx
    2a26:	49 89 f5             	mov    %rsi,%r13
    2a29:	48 89 c6             	mov    %rax,%rsi
    2a2c:	e8 00 00 00 00       	callq  2a31 <deflate_stored+0x551>
    2a31:	8b 83 28 17 00 00    	mov    0x1728(%rbx),%eax
    2a37:	83 f8 01             	cmp    $0x1,%eax
    2a3a:	77 09                	ja     2a45 <deflate_stored+0x565>
    2a3c:	83 c0 01             	add    $0x1,%eax
    2a3f:	89 83 28 17 00 00    	mov    %eax,0x1728(%rbx)
    2a45:	44 03 63 50          	add    0x50(%rbx),%r12d
    2a49:	4c 89 ee             	mov    %r13,%rsi
    2a4c:	b9 01 00 00 00       	mov    $0x1,%ecx
    2a51:	e9 31 fe ff ff       	jmpq   2887 <deflate_stored+0x3a7>
    2a56:	44 39 c7             	cmp    %r8d,%edi
    2a59:	74 38                	je     2a93 <deflate_stored+0x5b3>
    2a5b:	45 85 f6             	test   %r14d,%r14d
    2a5e:	75 41                	jne    2aa1 <deflate_stored+0x5c1>
    2a60:	49 89 f5             	mov    %rsi,%r13
    2a63:	e9 0c ff ff ff       	jmpq   2974 <deflate_stored+0x494>
    2a68:	48 8b 03             	mov    (%rbx),%rax
    2a6b:	8b 40 08             	mov    0x8(%rax),%eax
    2a6e:	85 c0                	test   %eax,%eax
    2a70:	74 41                	je     2ab3 <deflate_stored+0x5d3>
    2a72:	48 89 f1             	mov    %rsi,%rcx
    2a75:	e9 bf fe ff ff       	jmpq   2939 <deflate_stored+0x459>
    2a7a:	48 89 f0             	mov    %rsi,%rax
    2a7d:	4c 8b 7d d8          	mov    -0x28(%rbp),%r15
    2a81:	4c 8b 75 e0          	mov    -0x20(%rbp),%r14
    2a85:	4c 8b 6d e8          	mov    -0x18(%rbp),%r13
    2a89:	4c 8b 65 f0          	mov    -0x10(%rbp),%r12
    2a8d:	48 8b 5d f8          	mov    -0x8(%rbp),%rbx
    2a91:	c9                   	leaveq 
    2a92:	c3                   	retq   
    2a93:	41 83 fe 04          	cmp    $0x4,%r14d
    2a97:	74 c2                	je     2a5b <deflate_stored+0x57b>
    2a99:	49 89 f5             	mov    %rsi,%r13
    2a9c:	e9 d3 fe ff ff       	jmpq   2974 <deflate_stored+0x494>
    2aa1:	48 8b 03             	mov    (%rbx),%rax
    2aa4:	8b 40 08             	mov    0x8(%rax),%eax
    2aa7:	85 c0                	test   %eax,%eax
    2aa9:	74 19                	je     2ac4 <deflate_stored+0x5e4>
    2aab:	49 89 f5             	mov    %rsi,%r13
    2aae:	e9 c1 fe ff ff       	jmpq   2974 <deflate_stored+0x494>
    2ab3:	44 39 fa             	cmp    %r15d,%edx
    2ab6:	0f 84 7d fe ff ff    	je     2939 <deflate_stored+0x459>
    2abc:	48 89 f1             	mov    %rsi,%rcx
    2abf:	e9 75 fe ff ff       	jmpq   2939 <deflate_stored+0x459>
    2ac4:	41 39 d7             	cmp    %edx,%r15d
    2ac7:	0f 83 57 fe ff ff    	jae    2924 <deflate_stored+0x444>
    2acd:	49 89 f5             	mov    %rsi,%r13
    2ad0:	e9 9f fe ff ff       	jmpq   2974 <deflate_stored+0x494>
    2ad5:	66 66 2e 0f 1f 84 00 	data16 nopw %cs:0x0(%rax,%rax,1)
    2adc:	00 00 00 00 

0000000000002ae0 <deflate_fast>:
    2ae0:	55                   	push   %rbp
    2ae1:	48 89 e5             	mov    %rsp,%rbp
    2ae4:	48 83 ec 30          	sub    $0x30,%rsp
    2ae8:	48 89 5d f8          	mov    %rbx,-0x8(%rbp)
    2aec:	4c 89 65 f0          	mov    %r12,-0x10(%rbp)
    2af0:	4c 89 6d e8          	mov    %r13,-0x18(%rbp)
    2af4:	4c 89 75 e0          	mov    %r14,-0x20(%rbp)
    2af8:	4c 89 7d d8          	mov    %r15,-0x28(%rbp)
    2afc:	49 89 fc             	mov    %rdi,%r12
    2aff:	49 89 f5             	mov    %rsi,%r13
    2b02:	4c 8b 35 00 00 00 00 	mov    0x0(%rip),%r14        # 2b09 <deflate_fast+0x29>
    2b09:	4c 8b 3d 00 00 00 00 	mov    0x0(%rip),%r15        # 2b10 <deflate_fast+0x30>
    2b10:	31 db                	xor    %ebx,%ebx
    2b12:	b8 01 00 00 00       	mov    $0x1,%eax
    2b17:	eb 52                	jmp    2b6b <deflate_fast+0x8b>
    2b19:	89 c6                	mov    %eax,%esi
    2b1b:	49 03 74 24 60       	add    0x60(%r12),%rsi
    2b20:	41 8b 94 24 ac 00 00 	mov    0xac(%r12),%edx
    2b27:	00 
    2b28:	49 8b 84 24 98 00 00 	mov    0x98(%r12),%rax
    2b2f:	00 
    2b30:	48 29 c2             	sub    %rax,%rdx
    2b33:	4c 89 e7             	mov    %r12,%rdi
    2b36:	48 89 d9             	mov    %rbx,%rcx
    2b39:	e8 00 00 00 00       	callq  2b3e <deflate_fast+0x5e>
    2b3e:	41 8b 84 24 ac 00 00 	mov    0xac(%r12),%eax
    2b45:	00 
    2b46:	49 89 84 24 98 00 00 	mov    %rax,0x98(%r12)
    2b4d:	00 
    2b4e:	49 8b 3c 24          	mov    (%r12),%rdi
    2b52:	e8 99 16 00 00       	callq  41f0 <flush_pending>
    2b57:	49 8b 04 24          	mov    (%r12),%rax
    2b5b:	8b 40 20             	mov    0x20(%rax),%eax
    2b5e:	85 c0                	test   %eax,%eax
    2b60:	0f 84 8c 00 00 00    	je     2bf2 <deflate_fast+0x112>
    2b66:	b8 01 00 00 00       	mov    $0x1,%eax
    2b6b:	41 8b 8c 24 b4 00 00 	mov    0xb4(%r12),%ecx
    2b72:	00 
    2b73:	81 f9 05 01 00 00    	cmp    $0x105,%ecx
    2b79:	0f 87 91 00 00 00    	ja     2c10 <deflate_fast+0x130>
    2b7f:	4c 89 e7             	mov    %r12,%rdi
    2b82:	e8 a9 f6 ff ff       	callq  2230 <fill_window>
    2b87:	41 8b 84 24 b4 00 00 	mov    0xb4(%r12),%eax
    2b8e:	00 
    2b8f:	3d 05 01 00 00       	cmp    $0x105,%eax
    2b94:	77 09                	ja     2b9f <deflate_fast+0xbf>
    2b96:	45 85 ed             	test   %r13d,%r13d
    2b99:	0f 84 8a 00 00 00    	je     2c29 <deflate_fast+0x149>
    2b9f:	85 c0                	test   %eax,%eax
    2ba1:	75 68                	jne    2c0b <deflate_fast+0x12b>
    2ba3:	41 be 02 00 00 00    	mov    $0x2,%r14d
    2ba9:	41 8b 84 24 ac 00 00 	mov    0xac(%r12),%eax
    2bb0:	00 
    2bb1:	83 f8 01             	cmp    $0x1,%eax
    2bb4:	76 03                	jbe    2bb9 <deflate_fast+0xd9>
    2bb6:	4c 89 f0             	mov    %r14,%rax
    2bb9:	41 89 84 24 2c 17 00 	mov    %eax,0x172c(%r12)
    2bc0:	00 
    2bc1:	41 83 fd 04          	cmp    $0x4,%r13d
    2bc5:	74 7b                	je     2c42 <deflate_fast+0x162>
    2bc7:	41 8b 84 24 0c 17 00 	mov    0x170c(%r12),%eax
    2bce:	00 
    2bcf:	85 c0                	test   %eax,%eax
    2bd1:	0f 85 e3 00 00 00    	jne    2cba <deflate_fast+0x1da>
    2bd7:	4c 8b 7d d8          	mov    -0x28(%rbp),%r15
    2bdb:	4c 8b 75 e0          	mov    -0x20(%rbp),%r14
    2bdf:	4c 8b 6d e8          	mov    -0x18(%rbp),%r13
    2be3:	4c 8b 65 f0          	mov    -0x10(%rbp),%r12
    2be7:	48 8b 5d f8          	mov    -0x8(%rbp),%rbx
    2beb:	b8 01 00 00 00       	mov    $0x1,%eax
    2bf0:	c9                   	leaveq 
    2bf1:	c3                   	retq   
    2bf2:	48 89 d8             	mov    %rbx,%rax
    2bf5:	4c 8b 7d d8          	mov    -0x28(%rbp),%r15
    2bf9:	4c 8b 75 e0          	mov    -0x20(%rbp),%r14
    2bfd:	4c 8b 6d e8          	mov    -0x18(%rbp),%r13
    2c01:	4c 8b 65 f0          	mov    -0x10(%rbp),%r12
    2c05:	48 8b 5d f8          	mov    -0x8(%rbp),%rbx
    2c09:	c9                   	leaveq 
    2c0a:	c3                   	retq   
    2c0b:	b8 01 00 00 00       	mov    $0x1,%eax
    2c10:	41 8b 8c 24 b4 00 00 	mov    0xb4(%r12),%ecx
    2c17:	00 
    2c18:	83 f9 02             	cmp    $0x2,%ecx
    2c1b:	0f 87 b2 00 00 00    	ja     2cd3 <deflate_fast+0x1f3>
    2c21:	48 89 de             	mov    %rbx,%rsi
    2c24:	e9 19 01 00 00       	jmpq   2d42 <deflate_fast+0x262>
    2c29:	48 89 d8             	mov    %rbx,%rax
    2c2c:	4c 8b 7d d8          	mov    -0x28(%rbp),%r15
    2c30:	4c 8b 75 e0          	mov    -0x20(%rbp),%r14
    2c34:	4c 8b 6d e8          	mov    -0x18(%rbp),%r13
    2c38:	4c 8b 65 f0          	mov    -0x10(%rbp),%r12
    2c3c:	48 8b 5d f8          	mov    -0x8(%rbp),%rbx
    2c40:	c9                   	leaveq 
    2c41:	c3                   	retq   
    2c42:	49 8b 84 24 98 00 00 	mov    0x98(%r12),%rax
    2c49:	00 
    2c4a:	48 85 c0             	test   %rax,%rax
    2c4d:	78 07                	js     2c56 <deflate_fast+0x176>
    2c4f:	89 c3                	mov    %eax,%ebx
    2c51:	49 03 5c 24 60       	add    0x60(%r12),%rbx
    2c56:	41 8b 94 24 ac 00 00 	mov    0xac(%r12),%edx
    2c5d:	00 
    2c5e:	49 8b 84 24 98 00 00 	mov    0x98(%r12),%rax
    2c65:	00 
    2c66:	48 29 c2             	sub    %rax,%rdx
    2c69:	48 89 de             	mov    %rbx,%rsi
    2c6c:	4c 89 e7             	mov    %r12,%rdi
    2c6f:	b9 01 00 00 00       	mov    $0x1,%ecx
    2c74:	e8 00 00 00 00       	callq  2c79 <deflate_fast+0x199>
    2c79:	41 8b 84 24 ac 00 00 	mov    0xac(%r12),%eax
    2c80:	00 
    2c81:	49 89 84 24 98 00 00 	mov    %rax,0x98(%r12)
    2c88:	00 
    2c89:	49 8b 3c 24          	mov    (%r12),%rdi
    2c8d:	e8 5e 15 00 00       	callq  41f0 <flush_pending>
    2c92:	49 8b 04 24          	mov    (%r12),%rax
    2c96:	8b 40 20             	mov    0x20(%rax),%eax
    2c99:	85 c0                	test   %eax,%eax
    2c9b:	0f 85 60 01 00 00    	jne    2e01 <deflate_fast+0x321>
    2ca1:	4c 89 f0             	mov    %r14,%rax
    2ca4:	4c 8b 7d d8          	mov    -0x28(%rbp),%r15
    2ca8:	4c 8b 75 e0          	mov    -0x20(%rbp),%r14
    2cac:	4c 8b 6d e8          	mov    -0x18(%rbp),%r13
    2cb0:	4c 8b 65 f0          	mov    -0x10(%rbp),%r12
    2cb4:	48 8b 5d f8          	mov    -0x8(%rbp),%rbx
    2cb8:	c9                   	leaveq 
    2cb9:	c3                   	retq   
    2cba:	49 8b 84 24 98 00 00 	mov    0x98(%r12),%rax
    2cc1:	00 
    2cc2:	48 85 c0             	test   %rax,%rax
    2cc5:	0f 89 51 01 00 00    	jns    2e1c <deflate_fast+0x33c>
    2ccb:	48 89 de             	mov    %rbx,%rsi
    2cce:	e9 50 01 00 00       	jmpq   2e23 <deflate_fast+0x343>
    2cd3:	41 8b bc 24 ac 00 00 	mov    0xac(%r12),%edi
    2cda:	00 
    2cdb:	8d 4f 02             	lea    0x2(%rdi),%ecx
    2cde:	89 ca                	mov    %ecx,%edx
    2ce0:	49 8b 4c 24 60       	mov    0x60(%r12),%rcx
    2ce5:	0f b6 14 0a          	movzbl (%rdx,%rcx,1),%edx
    2ce9:	41 8b b4 24 80 00 00 	mov    0x80(%r12),%esi
    2cf0:	00 
    2cf1:	41 8b 8c 24 90 00 00 	mov    0x90(%r12),%ecx
    2cf8:	00 
    2cf9:	d3 e6                	shl    %cl,%esi
    2cfb:	31 f2                	xor    %esi,%edx
    2cfd:	41 23 94 24 8c 00 00 	and    0x8c(%r12),%edx
    2d04:	00 
    2d05:	41 89 94 24 80 00 00 	mov    %edx,0x80(%r12)
    2d0c:	00 
    2d0d:	89 d1                	mov    %edx,%ecx
    2d0f:	49 8b 54 24 78       	mov    0x78(%r12),%rdx
    2d14:	0f b7 34 4a          	movzwl (%rdx,%rcx,2),%esi
    2d18:	41 23 7c 24 58       	and    0x58(%r12),%edi
    2d1d:	89 f9                	mov    %edi,%ecx
    2d1f:	49 8b 54 24 70       	mov    0x70(%r12),%rdx
    2d24:	66 89 34 4a          	mov    %si,(%rdx,%rcx,2)
    2d28:	41 0f b7 bc 24 ac 00 	movzwl 0xac(%r12),%edi
    2d2f:	00 00 
    2d31:	49 8b 54 24 78       	mov    0x78(%r12),%rdx
    2d36:	41 8b 8c 24 80 00 00 	mov    0x80(%r12),%ecx
    2d3d:	00 
    2d3e:	66 89 3c 4a          	mov    %di,(%rdx,%rcx,2)
    2d42:	85 f6                	test   %esi,%esi
    2d44:	74 2e                	je     2d74 <deflate_fast+0x294>
    2d46:	41 8b 94 24 ac 00 00 	mov    0xac(%r12),%edx
    2d4d:	00 
    2d4e:	29 f2                	sub    %esi,%edx
    2d50:	41 8b 4c 24 50       	mov    0x50(%r12),%ecx
    2d55:	81 c1 fa fe ff ff    	add    $0xfffffefa,%ecx
    2d5b:	39 d1                	cmp    %edx,%ecx
    2d5d:	72 15                	jb     2d74 <deflate_fast+0x294>
    2d5f:	4c 89 e7             	mov    %r12,%rdi
    2d62:	e8 29 16 00 00       	callq  4390 <longest_match>
    2d67:	41 89 84 24 a0 00 00 	mov    %eax,0xa0(%r12)
    2d6e:	00 
    2d6f:	b8 01 00 00 00       	mov    $0x1,%eax
    2d74:	41 8b bc 24 a0 00 00 	mov    0xa0(%r12),%edi
    2d7b:	00 
    2d7c:	83 ff 02             	cmp    $0x2,%edi
    2d7f:	0f 87 fd 00 00 00    	ja     2e82 <deflate_fast+0x3a2>
    2d85:	49 8b 94 24 10 17 00 	mov    0x1710(%r12),%rdx
    2d8c:	00 
    2d8d:	41 8b 8c 24 0c 17 00 	mov    0x170c(%r12),%ecx
    2d94:	00 
    2d95:	41 8b bc 24 ac 00 00 	mov    0xac(%r12),%edi
    2d9c:	00 
    2d9d:	49 8b 74 24 60       	mov    0x60(%r12),%rsi
    2da2:	0f b6 34 37          	movzbl (%rdi,%rsi,1),%esi
    2da6:	66 c7 04 4a 00 00    	movw   $0x0,(%rdx,%rcx,2)
    2dac:	41 8b 94 24 0c 17 00 	mov    0x170c(%r12),%edx
    2db3:	00 
    2db4:	8d 4a 01             	lea    0x1(%rdx),%ecx
    2db7:	41 89 8c 24 0c 17 00 	mov    %ecx,0x170c(%r12)
    2dbe:	00 
    2dbf:	49 8b 8c 24 00 17 00 	mov    0x1700(%r12),%rcx
    2dc6:	00 
    2dc7:	40 88 34 0a          	mov    %sil,(%rdx,%rcx,1)
    2dcb:	41 0f b7 8c b4 d4 00 	movzwl 0xd4(%r12,%rsi,4),%ecx
    2dd2:	00 00 
    2dd4:	83 c1 01             	add    $0x1,%ecx
    2dd7:	66 41 89 8c b4 d4 00 	mov    %cx,0xd4(%r12,%rsi,4)
    2dde:	00 00 
    2de0:	41 8b 8c 24 08 17 00 	mov    0x1708(%r12),%ecx
    2de7:	00 
    2de8:	83 c1 ff             	add    $0xffffffff,%ecx
    2deb:	41 3b 8c 24 0c 17 00 	cmp    0x170c(%r12),%ecx
    2df2:	00 
    2df3:	0f 84 1e 01 00 00    	je     2f17 <deflate_fast+0x437>
    2df9:	48 89 de             	mov    %rbx,%rsi
    2dfc:	e9 19 01 00 00       	jmpq   2f1a <deflate_fast+0x43a>
    2e01:	b8 03 00 00 00       	mov    $0x3,%eax
    2e06:	4c 8b 7d d8          	mov    -0x28(%rbp),%r15
    2e0a:	4c 8b 75 e0          	mov    -0x20(%rbp),%r14
    2e0e:	4c 8b 6d e8          	mov    -0x18(%rbp),%r13
    2e12:	4c 8b 65 f0          	mov    -0x10(%rbp),%r12
    2e16:	48 8b 5d f8          	mov    -0x8(%rbp),%rbx
    2e1a:	c9                   	leaveq 
    2e1b:	c3                   	retq   
    2e1c:	89 c6                	mov    %eax,%esi
    2e1e:	49 03 74 24 60       	add    0x60(%r12),%rsi
    2e23:	41 8b 94 24 ac 00 00 	mov    0xac(%r12),%edx
    2e2a:	00 
    2e2b:	49 8b 84 24 98 00 00 	mov    0x98(%r12),%rax
    2e32:	00 
    2e33:	48 29 c2             	sub    %rax,%rdx
    2e36:	4c 89 e7             	mov    %r12,%rdi
    2e39:	48 89 d9             	mov    %rbx,%rcx
    2e3c:	e8 00 00 00 00       	callq  2e41 <deflate_fast+0x361>
    2e41:	41 8b 84 24 ac 00 00 	mov    0xac(%r12),%eax
    2e48:	00 
    2e49:	49 89 84 24 98 00 00 	mov    %rax,0x98(%r12)
    2e50:	00 
    2e51:	49 8b 3c 24          	mov    (%r12),%rdi
    2e55:	e8 96 13 00 00       	callq  41f0 <flush_pending>
    2e5a:	49 8b 04 24          	mov    (%r12),%rax
    2e5e:	8b 40 20             	mov    0x20(%rax),%eax
    2e61:	85 c0                	test   %eax,%eax
    2e63:	0f 85 f8 00 00 00    	jne    2f61 <deflate_fast+0x481>
    2e69:	48 89 d8             	mov    %rbx,%rax
    2e6c:	4c 8b 7d d8          	mov    -0x28(%rbp),%r15
    2e70:	4c 8b 75 e0          	mov    -0x20(%rbp),%r14
    2e74:	4c 8b 6d e8          	mov    -0x18(%rbp),%r13
    2e78:	4c 8b 65 f0          	mov    -0x10(%rbp),%r12
    2e7c:	48 8b 5d f8          	mov    -0x8(%rbp),%rbx
    2e80:	c9                   	leaveq 
    2e81:	c3                   	retq   
    2e82:	41 8b 8c 24 ac 00 00 	mov    0xac(%r12),%ecx
    2e89:	00 
    2e8a:	41 8b 94 24 b0 00 00 	mov    0xb0(%r12),%edx
    2e91:	00 
    2e92:	29 d1                	sub    %edx,%ecx
    2e94:	49 8b b4 24 10 17 00 	mov    0x1710(%r12),%rsi
    2e9b:	00 
    2e9c:	41 8b 94 24 0c 17 00 	mov    0x170c(%r12),%edx
    2ea3:	00 
    2ea4:	66 89 0c 56          	mov    %cx,(%rsi,%rdx,2)
    2ea8:	41 8b b4 24 0c 17 00 	mov    0x170c(%r12),%esi
    2eaf:	00 
    2eb0:	8d 56 01             	lea    0x1(%rsi),%edx
    2eb3:	41 89 94 24 0c 17 00 	mov    %edx,0x170c(%r12)
    2eba:	00 
    2ebb:	81 c7 fd 00 00 00    	add    $0xfd,%edi
    2ec1:	49 8b 94 24 00 17 00 	mov    0x1700(%r12),%rdx
    2ec8:	00 
    2ec9:	40 88 3c 16          	mov    %dil,(%rsi,%rdx,1)
    2ecd:	40 0f b6 d7          	movzbl %dil,%edx
    2ed1:	42 0f b6 14 3a       	movzbl (%rdx,%r15,1),%edx
    2ed6:	81 c2 01 01 00 00    	add    $0x101,%edx
    2edc:	48 63 f2             	movslq %edx,%rsi
    2edf:	41 0f b7 94 b4 d4 00 	movzwl 0xd4(%r12,%rsi,4),%edx
    2ee6:	00 00 
    2ee8:	83 c2 01             	add    $0x1,%edx
    2eeb:	66 41 89 94 b4 d4 00 	mov    %dx,0xd4(%r12,%rsi,4)
    2ef2:	00 00 
    2ef4:	81 c1 ff ff 00 00    	add    $0xffff,%ecx
    2efa:	66 81 f9 ff 00       	cmp    $0xff,%cx
    2eff:	76 7b                	jbe    2f7c <deflate_fast+0x49c>
    2f01:	0f b7 c9             	movzwl %cx,%ecx
    2f04:	c1 e9 07             	shr    $0x7,%ecx
    2f07:	81 c1 00 01 00 00    	add    $0x100,%ecx
    2f0d:	48 63 c9             	movslq %ecx,%rcx
    2f10:	42 0f b6 0c 31       	movzbl (%rcx,%r14,1),%ecx
    2f15:	eb 6d                	jmp    2f84 <deflate_fast+0x4a4>
    2f17:	48 89 c6             	mov    %rax,%rsi
    2f1a:	41 8b 8c 24 b4 00 00 	mov    0xb4(%r12),%ecx
    2f21:	00 
    2f22:	83 c1 ff             	add    $0xffffffff,%ecx
    2f25:	41 89 8c 24 b4 00 00 	mov    %ecx,0xb4(%r12)
    2f2c:	00 
    2f2d:	41 8b 8c 24 ac 00 00 	mov    0xac(%r12),%ecx
    2f34:	00 
    2f35:	83 c1 01             	add    $0x1,%ecx
    2f38:	41 89 8c 24 ac 00 00 	mov    %ecx,0xac(%r12)
    2f3f:	00 
    2f40:	85 f6                	test   %esi,%esi
    2f42:	0f 8e 23 fc ff ff    	jle    2b6b <deflate_fast+0x8b>
    2f48:	49 8b 84 24 98 00 00 	mov    0x98(%r12),%rax
    2f4f:	00 
    2f50:	48 85 c0             	test   %rax,%rax
    2f53:	0f 89 c0 fb ff ff    	jns    2b19 <deflate_fast+0x39>
    2f59:	48 89 de             	mov    %rbx,%rsi
    2f5c:	e9 bf fb ff ff       	jmpq   2b20 <deflate_fast+0x40>
    2f61:	4c 8b 7d d8          	mov    -0x28(%rbp),%r15
    2f65:	4c 8b 75 e0          	mov    -0x20(%rbp),%r14
    2f69:	4c 8b 6d e8          	mov    -0x18(%rbp),%r13
    2f6d:	4c 8b 65 f0          	mov    -0x10(%rbp),%r12
    2f71:	48 8b 5d f8          	mov    -0x8(%rbp),%rbx
    2f75:	b8 01 00 00 00       	mov    $0x1,%eax
    2f7a:	c9                   	leaveq 
    2f7b:	c3                   	retq   
    2f7c:	0f b7 c9             	movzwl %cx,%ecx
    2f7f:	42 0f b6 0c 31       	movzbl (%rcx,%r14,1),%ecx
    2f84:	48 63 d1             	movslq %ecx,%rdx
    2f87:	41 0f b7 8c 94 c8 09 	movzwl 0x9c8(%r12,%rdx,4),%ecx
    2f8e:	00 00 
    2f90:	83 c1 01             	add    $0x1,%ecx
    2f93:	66 41 89 8c 94 c8 09 	mov    %cx,0x9c8(%r12,%rdx,4)
    2f9a:	00 00 
    2f9c:	41 8b 8c 24 08 17 00 	mov    0x1708(%r12),%ecx
    2fa3:	00 
    2fa4:	83 c1 ff             	add    $0xffffffff,%ecx
    2fa7:	41 3b 8c 24 0c 17 00 	cmp    0x170c(%r12),%ecx
    2fae:	00 
    2faf:	74 05                	je     2fb6 <deflate_fast+0x4d6>
    2fb1:	48 89 de             	mov    %rbx,%rsi
    2fb4:	eb 03                	jmp    2fb9 <deflate_fast+0x4d9>
    2fb6:	48 89 c6             	mov    %rax,%rsi
    2fb9:	41 8b 94 24 a0 00 00 	mov    0xa0(%r12),%edx
    2fc0:	00 
    2fc1:	41 8b 8c 24 b4 00 00 	mov    0xb4(%r12),%ecx
    2fc8:	00 
    2fc9:	29 d1                	sub    %edx,%ecx
    2fcb:	41 89 8c 24 b4 00 00 	mov    %ecx,0xb4(%r12)
    2fd2:	00 
    2fd3:	41 8b bc 24 c0 00 00 	mov    0xc0(%r12),%edi
    2fda:	00 
    2fdb:	39 d7                	cmp    %edx,%edi
    2fdd:	0f 82 c3 00 00 00    	jb     30a6 <deflate_fast+0x5c6>
    2fe3:	83 f9 02             	cmp    $0x2,%ecx
    2fe6:	0f 86 ba 00 00 00    	jbe    30a6 <deflate_fast+0x5c6>
    2fec:	8d 4a ff             	lea    -0x1(%rdx),%ecx
    2fef:	41 89 8c 24 a0 00 00 	mov    %ecx,0xa0(%r12)
    2ff6:	00 
    2ff7:	41 8b 8c 24 ac 00 00 	mov    0xac(%r12),%ecx
    2ffe:	00 
    2fff:	44 8d 41 01          	lea    0x1(%rcx),%r8d
    3003:	45 89 84 24 ac 00 00 	mov    %r8d,0xac(%r12)
    300a:	00 
    300b:	83 c1 03             	add    $0x3,%ecx
    300e:	89 ca                	mov    %ecx,%edx
    3010:	49 8b 4c 24 60       	mov    0x60(%r12),%rcx
    3015:	0f b6 14 0a          	movzbl (%rdx,%rcx,1),%edx
    3019:	41 8b bc 24 80 00 00 	mov    0x80(%r12),%edi
    3020:	00 
    3021:	41 8b 8c 24 90 00 00 	mov    0x90(%r12),%ecx
    3028:	00 
    3029:	d3 e7                	shl    %cl,%edi
    302b:	31 fa                	xor    %edi,%edx
    302d:	41 23 94 24 8c 00 00 	and    0x8c(%r12),%edx
    3034:	00 
    3035:	41 89 94 24 80 00 00 	mov    %edx,0x80(%r12)
    303c:	00 
    303d:	89 d1                	mov    %edx,%ecx
    303f:	49 8b 54 24 78       	mov    0x78(%r12),%rdx
    3044:	0f b7 3c 4a          	movzwl (%rdx,%rcx,2),%edi
    3048:	45 23 44 24 58       	and    0x58(%r12),%r8d
    304d:	44 89 c1             	mov    %r8d,%ecx
    3050:	49 8b 54 24 70       	mov    0x70(%r12),%rdx
    3055:	66 89 3c 4a          	mov    %di,(%rdx,%rcx,2)
    3059:	41 0f b7 bc 24 ac 00 	movzwl 0xac(%r12),%edi
    3060:	00 00 
    3062:	49 8b 54 24 78       	mov    0x78(%r12),%rdx
    3067:	41 8b 8c 24 80 00 00 	mov    0x80(%r12),%ecx
    306e:	00 
    306f:	66 89 3c 4a          	mov    %di,(%rdx,%rcx,2)
    3073:	41 8b 8c 24 a0 00 00 	mov    0xa0(%r12),%ecx
    307a:	00 
    307b:	83 c1 ff             	add    $0xffffffff,%ecx
    307e:	41 89 8c 24 a0 00 00 	mov    %ecx,0xa0(%r12)
    3085:	00 
    3086:	85 c9                	test   %ecx,%ecx
    3088:	0f 85 69 ff ff ff    	jne    2ff7 <deflate_fast+0x517>
    308e:	41 8b 8c 24 ac 00 00 	mov    0xac(%r12),%ecx
    3095:	00 
    3096:	83 c1 01             	add    $0x1,%ecx
    3099:	41 89 8c 24 ac 00 00 	mov    %ecx,0xac(%r12)
    30a0:	00 
    30a1:	e9 9a fe ff ff       	jmpq   2f40 <deflate_fast+0x460>
    30a6:	41 03 94 24 ac 00 00 	add    0xac(%r12),%edx
    30ad:	00 
    30ae:	41 89 94 24 ac 00 00 	mov    %edx,0xac(%r12)
    30b5:	00 
    30b6:	41 c7 84 24 a0 00 00 	movl   $0x0,0xa0(%r12)
    30bd:	00 00 00 00 00 
    30c2:	89 d1                	mov    %edx,%ecx
    30c4:	4d 8b 44 24 60       	mov    0x60(%r12),%r8
    30c9:	41 0f b6 3c 08       	movzbl (%r8,%rcx,1),%edi
    30ce:	41 89 bc 24 80 00 00 	mov    %edi,0x80(%r12)
    30d5:	00 
    30d6:	8d 4a 01             	lea    0x1(%rdx),%ecx
    30d9:	89 c9                	mov    %ecx,%ecx
    30db:	42 0f b6 14 01       	movzbl (%rcx,%r8,1),%edx
    30e0:	41 8b 8c 24 90 00 00 	mov    0x90(%r12),%ecx
    30e7:	00 
    30e8:	d3 e7                	shl    %cl,%edi
    30ea:	31 fa                	xor    %edi,%edx
    30ec:	41 23 94 24 8c 00 00 	and    0x8c(%r12),%edx
    30f3:	00 
    30f4:	41 89 94 24 80 00 00 	mov    %edx,0x80(%r12)
    30fb:	00 
    30fc:	e9 3f fe ff ff       	jmpq   2f40 <deflate_fast+0x460>
    3101:	66 66 2e 0f 1f 84 00 	data16 nopw %cs:0x0(%rax,%rax,1)
    3108:	00 00 00 00 
    310c:	0f 1f 40 00          	nopl   0x0(%rax)

0000000000003110 <deflate_slow>:
    3110:	55                   	push   %rbp
    3111:	48 89 e5             	mov    %rsp,%rbp
    3114:	48 83 ec 30          	sub    $0x30,%rsp
    3118:	48 89 5d f8          	mov    %rbx,-0x8(%rbp)
    311c:	4c 89 65 f0          	mov    %r12,-0x10(%rbp)
    3120:	4c 89 6d e8          	mov    %r13,-0x18(%rbp)
    3124:	4c 89 75 e0          	mov    %r14,-0x20(%rbp)
    3128:	4c 89 7d d8          	mov    %r15,-0x28(%rbp)
    312c:	49 89 fc             	mov    %rdi,%r12
    312f:	49 89 f5             	mov    %rsi,%r13
    3132:	4c 8b 35 00 00 00 00 	mov    0x0(%rip),%r14        # 3139 <deflate_slow+0x29>
    3139:	4c 8b 3d 00 00 00 00 	mov    0x0(%rip),%r15        # 3140 <deflate_slow+0x30>
    3140:	31 db                	xor    %ebx,%ebx
    3142:	b8 01 00 00 00       	mov    $0x1,%eax
    3147:	eb 42                	jmp    318b <deflate_slow+0x7b>
    3149:	49 63 8c 24 a8 00 00 	movslq 0xa8(%r12),%rcx
    3150:	00 
    3151:	85 c9                	test   %ecx,%ecx
    3153:	0f 85 35 01 00 00    	jne    328e <deflate_slow+0x17e>
    3159:	41 c7 84 24 a8 00 00 	movl   $0x1,0xa8(%r12)
    3160:	00 01 00 00 00 
    3165:	41 8b 8c 24 ac 00 00 	mov    0xac(%r12),%ecx
    316c:	00 
    316d:	83 c1 01             	add    $0x1,%ecx
    3170:	41 89 8c 24 ac 00 00 	mov    %ecx,0xac(%r12)
    3177:	00 
    3178:	41 8b 8c 24 b4 00 00 	mov    0xb4(%r12),%ecx
    317f:	00 
    3180:	83 c1 ff             	add    $0xffffffff,%ecx
    3183:	41 89 8c 24 b4 00 00 	mov    %ecx,0xb4(%r12)
    318a:	00 
    318b:	41 8b 8c 24 b4 00 00 	mov    0xb4(%r12),%ecx
    3192:	00 
    3193:	81 f9 05 01 00 00    	cmp    $0x105,%ecx
    3199:	0f 87 75 01 00 00    	ja     3314 <deflate_slow+0x204>
    319f:	4c 89 e7             	mov    %r12,%rdi
    31a2:	e8 89 f0 ff ff       	callq  2230 <fill_window>
    31a7:	41 8b 84 24 b4 00 00 	mov    0xb4(%r12),%eax
    31ae:	00 
    31af:	3d 05 01 00 00       	cmp    $0x105,%eax
    31b4:	77 09                	ja     31bf <deflate_slow+0xaf>
    31b6:	45 85 ed             	test   %r13d,%r13d
    31b9:	0f 84 6e 01 00 00    	je     332d <deflate_slow+0x21d>
    31bf:	85 c0                	test   %eax,%eax
    31c1:	0f 85 48 01 00 00    	jne    330f <deflate_slow+0x1ff>
    31c7:	49 63 84 24 a8 00 00 	movslq 0xa8(%r12),%rax
    31ce:	00 
    31cf:	85 c0                	test   %eax,%eax
    31d1:	74 68                	je     323b <deflate_slow+0x12b>
    31d3:	49 8b 94 24 10 17 00 	mov    0x1710(%r12),%rdx
    31da:	00 
    31db:	41 8b 8c 24 0c 17 00 	mov    0x170c(%r12),%ecx
    31e2:	00 
    31e3:	41 8b 84 24 ac 00 00 	mov    0xac(%r12),%eax
    31ea:	00 
    31eb:	83 c0 ff             	add    $0xffffffff,%eax
    31ee:	89 c6                	mov    %eax,%esi
    31f0:	49 8b 44 24 60       	mov    0x60(%r12),%rax
    31f5:	0f b6 34 06          	movzbl (%rsi,%rax,1),%esi
    31f9:	66 c7 04 4a 00 00    	movw   $0x0,(%rdx,%rcx,2)
    31ff:	41 8b 8c 24 0c 17 00 	mov    0x170c(%r12),%ecx
    3206:	00 
    3207:	8d 41 01             	lea    0x1(%rcx),%eax
    320a:	41 89 84 24 0c 17 00 	mov    %eax,0x170c(%r12)
    3211:	00 
    3212:	49 8b 84 24 00 17 00 	mov    0x1700(%r12),%rax
    3219:	00 
    321a:	40 88 34 01          	mov    %sil,(%rcx,%rax,1)
    321e:	49 8d 8c b4 d4 00 00 	lea    0xd4(%r12,%rsi,4),%rcx
    3225:	00 
    3226:	0f b7 01             	movzwl (%rcx),%eax
    3229:	83 c0 01             	add    $0x1,%eax
    322c:	66 89 01             	mov    %ax,(%rcx)
    322f:	41 c7 84 24 a8 00 00 	movl   $0x0,0xa8(%r12)
    3236:	00 00 00 00 00 
    323b:	41 be 02 00 00 00    	mov    $0x2,%r14d
    3241:	41 8b 84 24 ac 00 00 	mov    0xac(%r12),%eax
    3248:	00 
    3249:	83 f8 01             	cmp    $0x1,%eax
    324c:	76 03                	jbe    3251 <deflate_slow+0x141>
    324e:	4c 89 f0             	mov    %r14,%rax
    3251:	41 89 84 24 2c 17 00 	mov    %eax,0x172c(%r12)
    3258:	00 
    3259:	41 83 fd 04          	cmp    $0x4,%r13d
    325d:	0f 84 e3 00 00 00    	je     3346 <deflate_slow+0x236>
    3263:	41 8b 84 24 0c 17 00 	mov    0x170c(%r12),%eax
    326a:	00 
    326b:	85 c0                	test   %eax,%eax
    326d:	0f 85 4b 01 00 00    	jne    33be <deflate_slow+0x2ae>
    3273:	4c 8b 7d d8          	mov    -0x28(%rbp),%r15
    3277:	4c 8b 75 e0          	mov    -0x20(%rbp),%r14
    327b:	4c 8b 6d e8          	mov    -0x18(%rbp),%r13
    327f:	4c 8b 65 f0          	mov    -0x10(%rbp),%r12
    3283:	48 8b 5d f8          	mov    -0x8(%rbp),%rbx
    3287:	b8 01 00 00 00       	mov    $0x1,%eax
    328c:	c9                   	leaveq 
    328d:	c3                   	retq   
    328e:	49 8b b4 24 10 17 00 	mov    0x1710(%r12),%rsi
    3295:	00 
    3296:	41 8b 94 24 0c 17 00 	mov    0x170c(%r12),%edx
    329d:	00 
    329e:	41 8b 8c 24 ac 00 00 	mov    0xac(%r12),%ecx
    32a5:	00 
    32a6:	83 c1 ff             	add    $0xffffffff,%ecx
    32a9:	89 cf                	mov    %ecx,%edi
    32ab:	49 8b 4c 24 60       	mov    0x60(%r12),%rcx
    32b0:	0f b6 3c 0f          	movzbl (%rdi,%rcx,1),%edi
    32b4:	66 c7 04 56 00 00    	movw   $0x0,(%rsi,%rdx,2)
    32ba:	41 8b 94 24 0c 17 00 	mov    0x170c(%r12),%edx
    32c1:	00 
    32c2:	8d 4a 01             	lea    0x1(%rdx),%ecx
    32c5:	41 89 8c 24 0c 17 00 	mov    %ecx,0x170c(%r12)
    32cc:	00 
    32cd:	49 8b 8c 24 00 17 00 	mov    0x1700(%r12),%rcx
    32d4:	00 
    32d5:	40 88 3c 0a          	mov    %dil,(%rdx,%rcx,1)
    32d9:	41 0f b7 8c bc d4 00 	movzwl 0xd4(%r12,%rdi,4),%ecx
    32e0:	00 00 
    32e2:	83 c1 01             	add    $0x1,%ecx
    32e5:	66 41 89 8c bc d4 00 	mov    %cx,0xd4(%r12,%rdi,4)
    32ec:	00 00 
    32ee:	41 8b 8c 24 08 17 00 	mov    0x1708(%r12),%ecx
    32f5:	00 
    32f6:	83 c1 ff             	add    $0xffffffff,%ecx
    32f9:	41 3b 8c 24 0c 17 00 	cmp    0x170c(%r12),%ecx
    3300:	00 
    3301:	0f 84 d0 00 00 00    	je     33d7 <deflate_slow+0x2c7>
    3307:	48 89 d9             	mov    %rbx,%rcx
    330a:	e9 cb 00 00 00       	jmpq   33da <deflate_slow+0x2ca>
    330f:	b8 01 00 00 00       	mov    $0x1,%eax
    3314:	41 8b 8c 24 b4 00 00 	mov    0xb4(%r12),%ecx
    331b:	00 
    331c:	83 f9 02             	cmp    $0x2,%ecx
    331f:	0f 87 d6 00 00 00    	ja     33fb <deflate_slow+0x2eb>
    3325:	48 89 de             	mov    %rbx,%rsi
    3328:	e9 3d 01 00 00       	jmpq   346a <deflate_slow+0x35a>
    332d:	48 89 d8             	mov    %rbx,%rax
    3330:	4c 8b 7d d8          	mov    -0x28(%rbp),%r15
    3334:	4c 8b 75 e0          	mov    -0x20(%rbp),%r14
    3338:	4c 8b 6d e8          	mov    -0x18(%rbp),%r13
    333c:	4c 8b 65 f0          	mov    -0x10(%rbp),%r12
    3340:	48 8b 5d f8          	mov    -0x8(%rbp),%rbx
    3344:	c9                   	leaveq 
    3345:	c3                   	retq   
    3346:	49 8b 84 24 98 00 00 	mov    0x98(%r12),%rax
    334d:	00 
    334e:	48 85 c0             	test   %rax,%rax
    3351:	78 07                	js     335a <deflate_slow+0x24a>
    3353:	89 c3                	mov    %eax,%ebx
    3355:	49 03 5c 24 60       	add    0x60(%r12),%rbx
    335a:	41 8b 94 24 ac 00 00 	mov    0xac(%r12),%edx
    3361:	00 
    3362:	49 8b 84 24 98 00 00 	mov    0x98(%r12),%rax
    3369:	00 
    336a:	48 29 c2             	sub    %rax,%rdx
    336d:	48 89 de             	mov    %rbx,%rsi
    3370:	4c 89 e7             	mov    %r12,%rdi
    3373:	b9 01 00 00 00       	mov    $0x1,%ecx
    3378:	e8 00 00 00 00       	callq  337d <deflate_slow+0x26d>
    337d:	41 8b 84 24 ac 00 00 	mov    0xac(%r12),%eax
    3384:	00 
    3385:	49 89 84 24 98 00 00 	mov    %rax,0x98(%r12)
    338c:	00 
    338d:	49 8b 3c 24          	mov    (%r12),%rdi
    3391:	e8 5a 0e 00 00       	callq  41f0 <flush_pending>
    3396:	49 8b 04 24          	mov    (%r12),%rax
    339a:	8b 40 20             	mov    0x20(%rax),%eax
    339d:	85 c0                	test   %eax,%eax
    339f:	0f 85 02 02 00 00    	jne    35a7 <deflate_slow+0x497>
    33a5:	4c 89 f0             	mov    %r14,%rax
    33a8:	4c 8b 7d d8          	mov    -0x28(%rbp),%r15
    33ac:	4c 8b 75 e0          	mov    -0x20(%rbp),%r14
    33b0:	4c 8b 6d e8          	mov    -0x18(%rbp),%r13
    33b4:	4c 8b 65 f0          	mov    -0x10(%rbp),%r12
    33b8:	48 8b 5d f8          	mov    -0x8(%rbp),%rbx
    33bc:	c9                   	leaveq 
    33bd:	c3                   	retq   
    33be:	49 8b 84 24 98 00 00 	mov    0x98(%r12),%rax
    33c5:	00 
    33c6:	48 85 c0             	test   %rax,%rax
    33c9:	0f 89 f3 01 00 00    	jns    35c2 <deflate_slow+0x4b2>
    33cf:	48 89 de             	mov    %rbx,%rsi
    33d2:	e9 f2 01 00 00       	jmpq   35c9 <deflate_slow+0x4b9>
    33d7:	48 89 c1             	mov    %rax,%rcx
    33da:	85 c9                	test   %ecx,%ecx
    33dc:	0f 8e 8c 02 00 00    	jle    366e <deflate_slow+0x55e>
    33e2:	49 8b 8c 24 98 00 00 	mov    0x98(%r12),%rcx
    33e9:	00 
    33ea:	48 85 c9             	test   %rcx,%rcx
    33ed:	0f 89 35 02 00 00    	jns    3628 <deflate_slow+0x518>
    33f3:	48 89 de             	mov    %rbx,%rsi
    33f6:	e9 34 02 00 00       	jmpq   362f <deflate_slow+0x51f>
    33fb:	41 8b bc 24 ac 00 00 	mov    0xac(%r12),%edi
    3402:	00 
    3403:	8d 4f 02             	lea    0x2(%rdi),%ecx
    3406:	89 c9                	mov    %ecx,%ecx
    3408:	49 8b 54 24 60       	mov    0x60(%r12),%rdx
    340d:	0f b6 14 11          	movzbl (%rcx,%rdx,1),%edx
    3411:	41 8b b4 24 80 00 00 	mov    0x80(%r12),%esi
    3418:	00 
    3419:	41 8b 8c 24 90 00 00 	mov    0x90(%r12),%ecx
    3420:	00 
    3421:	d3 e6                	shl    %cl,%esi
    3423:	31 f2                	xor    %esi,%edx
    3425:	41 23 94 24 8c 00 00 	and    0x8c(%r12),%edx
    342c:	00 
    342d:	41 89 94 24 80 00 00 	mov    %edx,0x80(%r12)
    3434:	00 
    3435:	89 d1                	mov    %edx,%ecx
    3437:	49 8b 54 24 78       	mov    0x78(%r12),%rdx
    343c:	0f b7 34 4a          	movzwl (%rdx,%rcx,2),%esi
    3440:	41 23 7c 24 58       	and    0x58(%r12),%edi
    3445:	89 f9                	mov    %edi,%ecx
    3447:	49 8b 54 24 70       	mov    0x70(%r12),%rdx
    344c:	66 89 34 4a          	mov    %si,(%rdx,%rcx,2)
    3450:	41 0f b7 bc 24 ac 00 	movzwl 0xac(%r12),%edi
    3457:	00 00 
    3459:	49 8b 54 24 78       	mov    0x78(%r12),%rdx
    345e:	41 8b 8c 24 80 00 00 	mov    0x80(%r12),%ecx
    3465:	00 
    3466:	66 89 3c 4a          	mov    %di,(%rdx,%rcx,2)
    346a:	41 8b 94 24 a0 00 00 	mov    0xa0(%r12),%edx
    3471:	00 
    3472:	41 89 94 24 b8 00 00 	mov    %edx,0xb8(%r12)
    3479:	00 
    347a:	41 8b 8c 24 b0 00 00 	mov    0xb0(%r12),%ecx
    3481:	00 
    3482:	41 89 8c 24 a4 00 00 	mov    %ecx,0xa4(%r12)
    3489:	00 
    348a:	41 c7 84 24 a0 00 00 	movl   $0x2,0xa0(%r12)
    3491:	00 02 00 00 00 
    3496:	85 f6                	test   %esi,%esi
    3498:	74 41                	je     34db <deflate_slow+0x3cb>
    349a:	41 3b 94 24 c0 00 00 	cmp    0xc0(%r12),%edx
    34a1:	00 
    34a2:	73 37                	jae    34db <deflate_slow+0x3cb>
    34a4:	41 8b 94 24 ac 00 00 	mov    0xac(%r12),%edx
    34ab:	00 
    34ac:	29 f2                	sub    %esi,%edx
    34ae:	41 8b 4c 24 50       	mov    0x50(%r12),%ecx
    34b3:	81 c1 fa fe ff ff    	add    $0xfffffefa,%ecx
    34b9:	39 d1                	cmp    %edx,%ecx
    34bb:	72 1e                	jb     34db <deflate_slow+0x3cb>
    34bd:	4c 89 e7             	mov    %r12,%rdi
    34c0:	e8 cb 0e 00 00       	callq  4390 <longest_match>
    34c5:	41 89 84 24 a0 00 00 	mov    %eax,0xa0(%r12)
    34cc:	00 
    34cd:	83 f8 05             	cmp    $0x5,%eax
    34d0:	0f 86 e6 01 00 00    	jbe    36bc <deflate_slow+0x5ac>
    34d6:	b8 01 00 00 00       	mov    $0x1,%eax
    34db:	45 8b 84 24 b8 00 00 	mov    0xb8(%r12),%r8d
    34e2:	00 
    34e3:	41 83 f8 02          	cmp    $0x2,%r8d
    34e7:	0f 86 5c fc ff ff    	jbe    3149 <deflate_slow+0x39>
    34ed:	41 8b 8c 24 a0 00 00 	mov    0xa0(%r12),%ecx
    34f4:	00 
    34f5:	44 39 c1             	cmp    %r8d,%ecx
    34f8:	0f 87 4b fc ff ff    	ja     3149 <deflate_slow+0x39>
    34fe:	41 8b b4 24 b4 00 00 	mov    0xb4(%r12),%esi
    3505:	00 
    3506:	45 8b 8c 24 ac 00 00 	mov    0xac(%r12),%r9d
    350d:	00 
    350e:	41 8d 49 ff          	lea    -0x1(%r9),%ecx
    3512:	41 8b 94 24 a4 00 00 	mov    0xa4(%r12),%edx
    3519:	00 
    351a:	29 d1                	sub    %edx,%ecx
    351c:	49 8b bc 24 10 17 00 	mov    0x1710(%r12),%rdi
    3523:	00 
    3524:	41 8b 94 24 0c 17 00 	mov    0x170c(%r12),%edx
    352b:	00 
    352c:	66 89 0c 57          	mov    %cx,(%rdi,%rdx,2)
    3530:	41 8b bc 24 0c 17 00 	mov    0x170c(%r12),%edi
    3537:	00 
    3538:	8d 57 01             	lea    0x1(%rdi),%edx
    353b:	41 89 94 24 0c 17 00 	mov    %edx,0x170c(%r12)
    3542:	00 
    3543:	41 81 c0 fd 00 00 00 	add    $0xfd,%r8d
    354a:	49 8b 94 24 00 17 00 	mov    0x1700(%r12),%rdx
    3551:	00 
    3552:	44 88 04 17          	mov    %r8b,(%rdi,%rdx,1)
    3556:	41 0f b6 d0          	movzbl %r8b,%edx
    355a:	42 0f b6 14 3a       	movzbl (%rdx,%r15,1),%edx
    355f:	81 c2 01 01 00 00    	add    $0x101,%edx
    3565:	48 63 fa             	movslq %edx,%rdi
    3568:	41 0f b7 94 bc d4 00 	movzwl 0xd4(%r12,%rdi,4),%edx
    356f:	00 00 
    3571:	83 c2 01             	add    $0x1,%edx
    3574:	66 41 89 94 bc d4 00 	mov    %dx,0xd4(%r12,%rdi,4)
    357b:	00 00 
    357d:	81 c1 ff ff 00 00    	add    $0xffff,%ecx
    3583:	66 81 f9 ff 00       	cmp    $0xff,%cx
    3588:	0f 86 4a 01 00 00    	jbe    36d8 <deflate_slow+0x5c8>
    358e:	0f b7 c9             	movzwl %cx,%ecx
    3591:	c1 e9 07             	shr    $0x7,%ecx
    3594:	81 c1 00 01 00 00    	add    $0x100,%ecx
    359a:	48 63 c9             	movslq %ecx,%rcx
    359d:	42 0f b6 0c 31       	movzbl (%rcx,%r14,1),%ecx
    35a2:	e9 39 01 00 00       	jmpq   36e0 <deflate_slow+0x5d0>
    35a7:	b8 03 00 00 00       	mov    $0x3,%eax
    35ac:	4c 8b 7d d8          	mov    -0x28(%rbp),%r15
    35b0:	4c 8b 75 e0          	mov    -0x20(%rbp),%r14
    35b4:	4c 8b 6d e8          	mov    -0x18(%rbp),%r13
    35b8:	4c 8b 65 f0          	mov    -0x10(%rbp),%r12
    35bc:	48 8b 5d f8          	mov    -0x8(%rbp),%rbx
    35c0:	c9                   	leaveq 
    35c1:	c3                   	retq   
    35c2:	89 c6                	mov    %eax,%esi
    35c4:	49 03 74 24 60       	add    0x60(%r12),%rsi
    35c9:	41 8b 94 24 ac 00 00 	mov    0xac(%r12),%edx
    35d0:	00 
    35d1:	49 8b 84 24 98 00 00 	mov    0x98(%r12),%rax
    35d8:	00 
    35d9:	48 29 c2             	sub    %rax,%rdx
    35dc:	4c 89 e7             	mov    %r12,%rdi
    35df:	48 89 d9             	mov    %rbx,%rcx
    35e2:	e8 00 00 00 00       	callq  35e7 <deflate_slow+0x4d7>
    35e7:	41 8b 84 24 ac 00 00 	mov    0xac(%r12),%eax
    35ee:	00 
    35ef:	49 89 84 24 98 00 00 	mov    %rax,0x98(%r12)
    35f6:	00 
    35f7:	49 8b 3c 24          	mov    (%r12),%rdi
    35fb:	e8 f0 0b 00 00       	callq  41f0 <flush_pending>
    3600:	49 8b 04 24          	mov    (%r12),%rax
    3604:	8b 40 20             	mov    0x20(%rax),%eax
    3607:	85 c0                	test   %eax,%eax
    3609:	0f 85 03 01 00 00    	jne    3712 <deflate_slow+0x602>
    360f:	48 89 d8             	mov    %rbx,%rax
    3612:	4c 8b 7d d8          	mov    -0x28(%rbp),%r15
    3616:	4c 8b 75 e0          	mov    -0x20(%rbp),%r14
    361a:	4c 8b 6d e8          	mov    -0x18(%rbp),%r13
    361e:	4c 8b 65 f0          	mov    -0x10(%rbp),%r12
    3622:	48 8b 5d f8          	mov    -0x8(%rbp),%rbx
    3626:	c9                   	leaveq 
    3627:	c3                   	retq   
    3628:	89 ce                	mov    %ecx,%esi
    362a:	49 03 74 24 60       	add    0x60(%r12),%rsi
    362f:	41 8b 94 24 ac 00 00 	mov    0xac(%r12),%edx
    3636:	00 
    3637:	49 8b 8c 24 98 00 00 	mov    0x98(%r12),%rcx
    363e:	00 
    363f:	48 29 ca             	sub    %rcx,%rdx
    3642:	48 89 d9             	mov    %rbx,%rcx
    3645:	48 89 c3             	mov    %rax,%rbx
    3648:	4c 89 e7             	mov    %r12,%rdi
    364b:	e8 00 00 00 00       	callq  3650 <deflate_slow+0x540>
    3650:	41 8b 84 24 ac 00 00 	mov    0xac(%r12),%eax
    3657:	00 
    3658:	49 89 84 24 98 00 00 	mov    %rax,0x98(%r12)
    365f:	00 
    3660:	49 8b 3c 24          	mov    (%r12),%rdi
    3664:	e8 87 0b 00 00       	callq  41f0 <flush_pending>
    3669:	48 89 d8             	mov    %rbx,%rax
    366c:	31 db                	xor    %ebx,%ebx
    366e:	41 8b 8c 24 ac 00 00 	mov    0xac(%r12),%ecx
    3675:	00 
    3676:	83 c1 01             	add    $0x1,%ecx
    3679:	41 89 8c 24 ac 00 00 	mov    %ecx,0xac(%r12)
    3680:	00 
    3681:	41 8b 8c 24 b4 00 00 	mov    0xb4(%r12),%ecx
    3688:	00 
    3689:	83 c1 ff             	add    $0xffffffff,%ecx
    368c:	41 89 8c 24 b4 00 00 	mov    %ecx,0xb4(%r12)
    3693:	00 
    3694:	49 8b 0c 24          	mov    (%r12),%rcx
    3698:	8b 49 20             	mov    0x20(%rcx),%ecx
    369b:	85 c9                	test   %ecx,%ecx
    369d:	0f 85 e8 fa ff ff    	jne    318b <deflate_slow+0x7b>
    36a3:	48 89 d8             	mov    %rbx,%rax
    36a6:	4c 8b 7d d8          	mov    -0x28(%rbp),%r15
    36aa:	4c 8b 75 e0          	mov    -0x20(%rbp),%r14
    36ae:	4c 8b 6d e8          	mov    -0x18(%rbp),%r13
    36b2:	4c 8b 65 f0          	mov    -0x10(%rbp),%r12
    36b6:	48 8b 5d f8          	mov    -0x8(%rbp),%rbx
    36ba:	c9                   	leaveq 
    36bb:	c3                   	retq   
    36bc:	49 63 8c 24 c8 00 00 	movslq 0xc8(%r12),%rcx
    36c3:	00 
    36c4:	83 f9 01             	cmp    $0x1,%ecx
    36c7:	74 64                	je     372d <deflate_slow+0x61d>
    36c9:	83 f8 03             	cmp    $0x3,%eax
    36cc:	74 75                	je     3743 <deflate_slow+0x633>
    36ce:	b8 01 00 00 00       	mov    $0x1,%eax
    36d3:	e9 03 fe ff ff       	jmpq   34db <deflate_slow+0x3cb>
    36d8:	0f b7 c9             	movzwl %cx,%ecx
    36db:	42 0f b6 0c 31       	movzbl (%rcx,%r14,1),%ecx
    36e0:	48 63 d1             	movslq %ecx,%rdx
    36e3:	41 0f b7 8c 94 c8 09 	movzwl 0x9c8(%r12,%rdx,4),%ecx
    36ea:	00 00 
    36ec:	83 c1 01             	add    $0x1,%ecx
    36ef:	66 41 89 8c 94 c8 09 	mov    %cx,0x9c8(%r12,%rdx,4)
    36f6:	00 00 
    36f8:	41 8b 8c 24 08 17 00 	mov    0x1708(%r12),%ecx
    36ff:	00 
    3700:	83 c1 ff             	add    $0xffffffff,%ecx
    3703:	41 3b 8c 24 0c 17 00 	cmp    0x170c(%r12),%ecx
    370a:	00 
    370b:	74 59                	je     3766 <deflate_slow+0x656>
    370d:	48 89 da             	mov    %rbx,%rdx
    3710:	eb 57                	jmp    3769 <deflate_slow+0x659>
    3712:	4c 8b 7d d8          	mov    -0x28(%rbp),%r15
    3716:	4c 8b 75 e0          	mov    -0x20(%rbp),%r14
    371a:	4c 8b 6d e8          	mov    -0x18(%rbp),%r13
    371e:	4c 8b 65 f0          	mov    -0x10(%rbp),%r12
    3722:	48 8b 5d f8          	mov    -0x8(%rbp),%rbx
    3726:	b8 01 00 00 00       	mov    $0x1,%eax
    372b:	c9                   	leaveq 
    372c:	c3                   	retq   
    372d:	41 c7 84 24 a0 00 00 	movl   $0x2,0xa0(%r12)
    3734:	00 02 00 00 00 
    3739:	b8 01 00 00 00       	mov    $0x1,%eax
    373e:	e9 98 fd ff ff       	jmpq   34db <deflate_slow+0x3cb>
    3743:	41 8b 84 24 ac 00 00 	mov    0xac(%r12),%eax
    374a:	00 
    374b:	41 8b 8c 24 b0 00 00 	mov    0xb0(%r12),%ecx
    3752:	00 
    3753:	29 c8                	sub    %ecx,%eax
    3755:	3d 00 10 00 00       	cmp    $0x1000,%eax
    375a:	77 d1                	ja     372d <deflate_slow+0x61d>
    375c:	b8 01 00 00 00       	mov    $0x1,%eax
    3761:	e9 75 fd ff ff       	jmpq   34db <deflate_slow+0x3cb>
    3766:	48 89 c2             	mov    %rax,%rdx
    3769:	41 8b 8c 24 b4 00 00 	mov    0xb4(%r12),%ecx
    3770:	00 
    3771:	45 8b 84 24 b8 00 00 	mov    0xb8(%r12),%r8d
    3778:	00 
    3779:	41 8d 78 ff          	lea    -0x1(%r8),%edi
    377d:	29 f9                	sub    %edi,%ecx
    377f:	41 89 8c 24 b4 00 00 	mov    %ecx,0xb4(%r12)
    3786:	00 
    3787:	41 8d 48 fe          	lea    -0x2(%r8),%ecx
    378b:	41 89 8c 24 b8 00 00 	mov    %ecx,0xb8(%r12)
    3792:	00 
    3793:	41 8d 74 31 fd       	lea    -0x3(%r9,%rsi,1),%esi
    3798:	41 8b 8c 24 ac 00 00 	mov    0xac(%r12),%ecx
    379f:	00 
    37a0:	44 8d 49 01          	lea    0x1(%rcx),%r9d
    37a4:	45 89 8c 24 ac 00 00 	mov    %r9d,0xac(%r12)
    37ab:	00 
    37ac:	41 39 f1             	cmp    %esi,%r9d
    37af:	77 6d                	ja     381e <deflate_slow+0x70e>
    37b1:	83 c1 03             	add    $0x3,%ecx
    37b4:	89 cf                	mov    %ecx,%edi
    37b6:	49 8b 4c 24 60       	mov    0x60(%r12),%rcx
    37bb:	0f b6 3c 0f          	movzbl (%rdi,%rcx,1),%edi
    37bf:	45 8b 84 24 80 00 00 	mov    0x80(%r12),%r8d
    37c6:	00 
    37c7:	41 8b 8c 24 90 00 00 	mov    0x90(%r12),%ecx
    37ce:	00 
    37cf:	41 d3 e0             	shl    %cl,%r8d
    37d2:	44 31 c7             	xor    %r8d,%edi
    37d5:	41 23 bc 24 8c 00 00 	and    0x8c(%r12),%edi
    37dc:	00 
    37dd:	41 89 bc 24 80 00 00 	mov    %edi,0x80(%r12)
    37e4:	00 
    37e5:	89 f9                	mov    %edi,%ecx
    37e7:	49 8b 7c 24 78       	mov    0x78(%r12),%rdi
    37ec:	44 0f b7 04 4f       	movzwl (%rdi,%rcx,2),%r8d
    37f1:	45 23 4c 24 58       	and    0x58(%r12),%r9d
    37f6:	44 89 c9             	mov    %r9d,%ecx
    37f9:	49 8b 7c 24 70       	mov    0x70(%r12),%rdi
    37fe:	66 44 89 04 4f       	mov    %r8w,(%rdi,%rcx,2)
    3803:	45 0f b7 84 24 ac 00 	movzwl 0xac(%r12),%r8d
    380a:	00 00 
    380c:	49 8b 7c 24 78       	mov    0x78(%r12),%rdi
    3811:	41 8b 8c 24 80 00 00 	mov    0x80(%r12),%ecx
    3818:	00 
    3819:	66 44 89 04 4f       	mov    %r8w,(%rdi,%rcx,2)
    381e:	41 8b 8c 24 b8 00 00 	mov    0xb8(%r12),%ecx
    3825:	00 
    3826:	83 c1 ff             	add    $0xffffffff,%ecx
    3829:	41 89 8c 24 b8 00 00 	mov    %ecx,0xb8(%r12)
    3830:	00 
    3831:	85 c9                	test   %ecx,%ecx
    3833:	0f 85 5f ff ff ff    	jne    3798 <deflate_slow+0x688>
    3839:	41 c7 84 24 a8 00 00 	movl   $0x0,0xa8(%r12)
    3840:	00 00 00 00 00 
    3845:	41 c7 84 24 a0 00 00 	movl   $0x2,0xa0(%r12)
    384c:	00 02 00 00 00 
    3851:	41 8b 8c 24 ac 00 00 	mov    0xac(%r12),%ecx
    3858:	00 
    3859:	83 c1 01             	add    $0x1,%ecx
    385c:	41 89 8c 24 ac 00 00 	mov    %ecx,0xac(%r12)
    3863:	00 
    3864:	85 d2                	test   %edx,%edx
    3866:	0f 8e 1f f9 ff ff    	jle    318b <deflate_slow+0x7b>
    386c:	49 8b 84 24 98 00 00 	mov    0x98(%r12),%rax
    3873:	00 
    3874:	48 85 c0             	test   %rax,%rax
    3877:	79 05                	jns    387e <deflate_slow+0x76e>
    3879:	48 89 de             	mov    %rbx,%rsi
    387c:	eb 07                	jmp    3885 <deflate_slow+0x775>
    387e:	89 c6                	mov    %eax,%esi
    3880:	49 03 74 24 60       	add    0x60(%r12),%rsi
    3885:	41 8b 94 24 ac 00 00 	mov    0xac(%r12),%edx
    388c:	00 
    388d:	49 8b 84 24 98 00 00 	mov    0x98(%r12),%rax
    3894:	00 
    3895:	48 29 c2             	sub    %rax,%rdx
    3898:	4c 89 e7             	mov    %r12,%rdi
    389b:	48 89 d9             	mov    %rbx,%rcx
    389e:	e8 00 00 00 00       	callq  38a3 <deflate_slow+0x793>
    38a3:	41 8b 84 24 ac 00 00 	mov    0xac(%r12),%eax
    38aa:	00 
    38ab:	49 89 84 24 98 00 00 	mov    %rax,0x98(%r12)
    38b2:	00 
    38b3:	49 8b 3c 24          	mov    (%r12),%rdi
    38b7:	e8 34 09 00 00       	callq  41f0 <flush_pending>
    38bc:	49 8b 04 24          	mov    (%r12),%rax
    38c0:	8b 40 20             	mov    0x20(%rax),%eax
    38c3:	85 c0                	test   %eax,%eax
    38c5:	74 0a                	je     38d1 <deflate_slow+0x7c1>
    38c7:	b8 01 00 00 00       	mov    $0x1,%eax
    38cc:	e9 ba f8 ff ff       	jmpq   318b <deflate_slow+0x7b>
    38d1:	48 89 d8             	mov    %rbx,%rax
    38d4:	4c 8b 7d d8          	mov    -0x28(%rbp),%r15
    38d8:	4c 8b 75 e0          	mov    -0x20(%rbp),%r14
    38dc:	4c 8b 6d e8          	mov    -0x18(%rbp),%r13
    38e0:	4c 8b 65 f0          	mov    -0x10(%rbp),%r12
    38e4:	48 8b 5d f8          	mov    -0x8(%rbp),%rbx
    38e8:	c9                   	leaveq 
    38e9:	c3                   	retq   
    38ea:	66 0f 1f 44 00 00    	nopw   0x0(%rax,%rax,1)

00000000000038f0 <deflate_rle>:
    38f0:	55                   	push   %rbp
    38f1:	48 89 e5             	mov    %rsp,%rbp
    38f4:	48 83 ec 30          	sub    $0x30,%rsp
    38f8:	48 89 5d f8          	mov    %rbx,-0x8(%rbp)
    38fc:	4c 89 65 f0          	mov    %r12,-0x10(%rbp)
    3900:	4c 89 6d e8          	mov    %r13,-0x18(%rbp)
    3904:	4c 89 75 e0          	mov    %r14,-0x20(%rbp)
    3908:	4c 89 7d d8          	mov    %r15,-0x28(%rbp)
    390c:	49 89 fc             	mov    %rdi,%r12
    390f:	49 89 f5             	mov    %rsi,%r13
    3912:	4c 8b 35 00 00 00 00 	mov    0x0(%rip),%r14        # 3919 <deflate_rle+0x29>
    3919:	4c 8b 3d 00 00 00 00 	mov    0x0(%rip),%r15        # 3920 <deflate_rle+0x30>
    3920:	31 db                	xor    %ebx,%ebx
    3922:	b9 01 00 00 00       	mov    $0x1,%ecx
    3927:	b8 02 01 00 00       	mov    $0x102,%eax
    392c:	eb 57                	jmp    3985 <deflate_rle+0x95>
    392e:	89 c6                	mov    %eax,%esi
    3930:	49 03 74 24 60       	add    0x60(%r12),%rsi
    3935:	41 8b 94 24 ac 00 00 	mov    0xac(%r12),%edx
    393c:	00 
    393d:	49 8b 84 24 98 00 00 	mov    0x98(%r12),%rax
    3944:	00 
    3945:	48 29 c2             	sub    %rax,%rdx
    3948:	4c 89 e7             	mov    %r12,%rdi
    394b:	48 89 d9             	mov    %rbx,%rcx
    394e:	e8 00 00 00 00       	callq  3953 <deflate_rle+0x63>
    3953:	41 8b 84 24 ac 00 00 	mov    0xac(%r12),%eax
    395a:	00 
    395b:	49 89 84 24 98 00 00 	mov    %rax,0x98(%r12)
    3962:	00 
    3963:	49 8b 3c 24          	mov    (%r12),%rdi
    3967:	e8 84 08 00 00       	callq  41f0 <flush_pending>
    396c:	49 8b 04 24          	mov    (%r12),%rax
    3970:	8b 40 20             	mov    0x20(%rax),%eax
    3973:	85 c0                	test   %eax,%eax
    3975:	0f 84 83 00 00 00    	je     39fe <deflate_rle+0x10e>
    397b:	b8 02 01 00 00       	mov    $0x102,%eax
    3980:	b9 01 00 00 00       	mov    $0x1,%ecx
    3985:	41 8b 94 24 b4 00 00 	mov    0xb4(%r12),%edx
    398c:	00 
    398d:	81 fa 02 01 00 00    	cmp    $0x102,%edx
    3993:	0f 87 88 00 00 00    	ja     3a21 <deflate_rle+0x131>
    3999:	4c 89 e7             	mov    %r12,%rdi
    399c:	e8 8f e8 ff ff       	callq  2230 <fill_window>
    39a1:	41 8b 84 24 b4 00 00 	mov    0xb4(%r12),%eax
    39a8:	00 
    39a9:	3d 02 01 00 00       	cmp    $0x102,%eax
    39ae:	77 09                	ja     39b9 <deflate_rle+0xc9>
    39b0:	45 85 ed             	test   %r13d,%r13d
    39b3:	0f 84 ef 01 00 00    	je     3ba8 <deflate_rle+0x2b8>
    39b9:	85 c0                	test   %eax,%eax
    39bb:	75 5a                	jne    3a17 <deflate_rle+0x127>
    39bd:	41 c7 84 24 2c 17 00 	movl   $0x0,0x172c(%r12)
    39c4:	00 00 00 00 00 
    39c9:	41 83 fd 04          	cmp    $0x4,%r13d
    39cd:	0f 84 ee 01 00 00    	je     3bc1 <deflate_rle+0x2d1>
    39d3:	41 8b 84 24 0c 17 00 	mov    0x170c(%r12),%eax
    39da:	00 
    39db:	85 c0                	test   %eax,%eax
    39dd:	0f 85 58 02 00 00    	jne    3c3b <deflate_rle+0x34b>
    39e3:	4c 8b 7d d8          	mov    -0x28(%rbp),%r15
    39e7:	4c 8b 75 e0          	mov    -0x20(%rbp),%r14
    39eb:	4c 8b 6d e8          	mov    -0x18(%rbp),%r13
    39ef:	4c 8b 65 f0          	mov    -0x10(%rbp),%r12
    39f3:	48 8b 5d f8          	mov    -0x8(%rbp),%rbx
    39f7:	b8 01 00 00 00       	mov    $0x1,%eax
    39fc:	c9                   	leaveq 
    39fd:	c3                   	retq   
    39fe:	48 89 d8             	mov    %rbx,%rax
    3a01:	4c 8b 7d d8          	mov    -0x28(%rbp),%r15
    3a05:	4c 8b 75 e0          	mov    -0x20(%rbp),%r14
    3a09:	4c 8b 6d e8          	mov    -0x18(%rbp),%r13
    3a0d:	4c 8b 65 f0          	mov    -0x10(%rbp),%r12
    3a11:	48 8b 5d f8          	mov    -0x8(%rbp),%rbx
    3a15:	c9                   	leaveq 
    3a16:	c3                   	retq   
    3a17:	b8 02 01 00 00       	mov    $0x102,%eax
    3a1c:	b9 01 00 00 00       	mov    $0x1,%ecx
    3a21:	41 c7 84 24 a0 00 00 	movl   $0x0,0xa0(%r12)
    3a28:	00 00 00 00 00 
    3a2d:	41 8b 94 24 b4 00 00 	mov    0xb4(%r12),%edx
    3a34:	00 
    3a35:	83 fa 02             	cmp    $0x2,%edx
    3a38:	0f 86 dc 00 00 00    	jbe    3b1a <deflate_rle+0x22a>
    3a3e:	41 8b 94 24 ac 00 00 	mov    0xac(%r12),%edx
    3a45:	00 
    3a46:	85 d2                	test   %edx,%edx
    3a48:	0f 84 cc 00 00 00    	je     3b1a <deflate_rle+0x22a>
    3a4e:	49 03 54 24 60       	add    0x60(%r12),%rdx
    3a53:	0f b6 3a             	movzbl (%rdx),%edi
    3a56:	0f b6 72 ff          	movzbl -0x1(%rdx),%esi
    3a5a:	40 38 f7             	cmp    %sil,%dil
    3a5d:	0f 85 b7 00 00 00    	jne    3b1a <deflate_rle+0x22a>
    3a63:	44 0f b6 42 01       	movzbl 0x1(%rdx),%r8d
    3a68:	44 38 c7             	cmp    %r8b,%dil
    3a6b:	0f 85 a9 00 00 00    	jne    3b1a <deflate_rle+0x22a>
    3a71:	48 8d 72 02          	lea    0x2(%rdx),%rsi
    3a75:	44 0f b6 16          	movzbl (%rsi),%r10d
    3a79:	45 38 d0             	cmp    %r10b,%r8b
    3a7c:	0f 85 98 00 00 00    	jne    3b1a <deflate_rle+0x22a>
    3a82:	48 81 c2 02 01 00 00 	add    $0x102,%rdx
    3a89:	48 8d 7e 01          	lea    0x1(%rsi),%rdi
    3a8d:	44 0f b6 07          	movzbl (%rdi),%r8d
    3a91:	45 38 c2             	cmp    %r8b,%r10b
    3a94:	75 61                	jne    3af7 <deflate_rle+0x207>
    3a96:	48 8d 7e 02          	lea    0x2(%rsi),%rdi
    3a9a:	44 0f b6 0f          	movzbl (%rdi),%r9d
    3a9e:	45 38 c8             	cmp    %r9b,%r8b
    3aa1:	75 54                	jne    3af7 <deflate_rle+0x207>
    3aa3:	48 8d 7e 03          	lea    0x3(%rsi),%rdi
    3aa7:	44 0f b6 07          	movzbl (%rdi),%r8d
    3aab:	45 38 c1             	cmp    %r8b,%r9b
    3aae:	75 47                	jne    3af7 <deflate_rle+0x207>
    3ab0:	48 8d 7e 04          	lea    0x4(%rsi),%rdi
    3ab4:	44 0f b6 0f          	movzbl (%rdi),%r9d
    3ab8:	45 38 c8             	cmp    %r9b,%r8b
    3abb:	75 3a                	jne    3af7 <deflate_rle+0x207>
    3abd:	48 8d 7e 05          	lea    0x5(%rsi),%rdi
    3ac1:	44 0f b6 07          	movzbl (%rdi),%r8d
    3ac5:	45 38 c1             	cmp    %r8b,%r9b
    3ac8:	75 2d                	jne    3af7 <deflate_rle+0x207>
    3aca:	48 8d 7e 06          	lea    0x6(%rsi),%rdi
    3ace:	44 0f b6 0f          	movzbl (%rdi),%r9d
    3ad2:	45 38 c8             	cmp    %r9b,%r8b
    3ad5:	75 20                	jne    3af7 <deflate_rle+0x207>
    3ad7:	48 8d 7e 07          	lea    0x7(%rsi),%rdi
    3adb:	44 0f b6 07          	movzbl (%rdi),%r8d
    3adf:	45 38 c1             	cmp    %r8b,%r9b
    3ae2:	75 13                	jne    3af7 <deflate_rle+0x207>
    3ae4:	48 83 c6 08          	add    $0x8,%rsi
    3ae8:	0f b6 3e             	movzbl (%rsi),%edi
    3aeb:	41 38 f8             	cmp    %dil,%r8b
    3aee:	0f 84 60 01 00 00    	je     3c54 <deflate_rle+0x364>
    3af4:	48 89 f7             	mov    %rsi,%rdi
    3af7:	48 29 fa             	sub    %rdi,%rdx
    3afa:	f7 da                	neg    %edx
    3afc:	01 c2                	add    %eax,%edx
    3afe:	41 89 94 24 a0 00 00 	mov    %edx,0xa0(%r12)
    3b05:	00 
    3b06:	41 8b b4 24 b4 00 00 	mov    0xb4(%r12),%esi
    3b0d:	00 
    3b0e:	39 f2                	cmp    %esi,%edx
    3b10:	76 08                	jbe    3b1a <deflate_rle+0x22a>
    3b12:	41 89 b4 24 a0 00 00 	mov    %esi,0xa0(%r12)
    3b19:	00 
    3b1a:	41 8b bc 24 a0 00 00 	mov    0xa0(%r12),%edi
    3b21:	00 
    3b22:	83 ff 02             	cmp    $0x2,%edi
    3b25:	0f 87 3a 01 00 00    	ja     3c65 <deflate_rle+0x375>
    3b2b:	49 8b b4 24 10 17 00 	mov    0x1710(%r12),%rsi
    3b32:	00 
    3b33:	41 8b 94 24 0c 17 00 	mov    0x170c(%r12),%edx
    3b3a:	00 
    3b3b:	45 8b 84 24 ac 00 00 	mov    0xac(%r12),%r8d
    3b42:	00 
    3b43:	49 8b 7c 24 60       	mov    0x60(%r12),%rdi
    3b48:	41 0f b6 3c 38       	movzbl (%r8,%rdi,1),%edi
    3b4d:	66 c7 04 56 00 00    	movw   $0x0,(%rsi,%rdx,2)
    3b53:	41 8b b4 24 0c 17 00 	mov    0x170c(%r12),%esi
    3b5a:	00 
    3b5b:	8d 56 01             	lea    0x1(%rsi),%edx
    3b5e:	41 89 94 24 0c 17 00 	mov    %edx,0x170c(%r12)
    3b65:	00 
    3b66:	49 8b 94 24 00 17 00 	mov    0x1700(%r12),%rdx
    3b6d:	00 
    3b6e:	40 88 3c 16          	mov    %dil,(%rsi,%rdx,1)
    3b72:	41 0f b7 94 bc d4 00 	movzwl 0xd4(%r12,%rdi,4),%edx
    3b79:	00 00 
    3b7b:	83 c2 01             	add    $0x1,%edx
    3b7e:	66 41 89 94 bc d4 00 	mov    %dx,0xd4(%r12,%rdi,4)
    3b85:	00 00 
    3b87:	41 8b 94 24 08 17 00 	mov    0x1708(%r12),%edx
    3b8e:	00 
    3b8f:	83 c2 ff             	add    $0xffffffff,%edx
    3b92:	41 3b 94 24 0c 17 00 	cmp    0x170c(%r12),%edx
    3b99:	00 
    3b9a:	0f 84 61 01 00 00    	je     3d01 <deflate_rle+0x411>
    3ba0:	48 89 da             	mov    %rbx,%rdx
    3ba3:	e9 5c 01 00 00       	jmpq   3d04 <deflate_rle+0x414>
    3ba8:	48 89 d8             	mov    %rbx,%rax
    3bab:	4c 8b 7d d8          	mov    -0x28(%rbp),%r15
    3baf:	4c 8b 75 e0          	mov    -0x20(%rbp),%r14
    3bb3:	4c 8b 6d e8          	mov    -0x18(%rbp),%r13
    3bb7:	4c 8b 65 f0          	mov    -0x10(%rbp),%r12
    3bbb:	48 8b 5d f8          	mov    -0x8(%rbp),%rbx
    3bbf:	c9                   	leaveq 
    3bc0:	c3                   	retq   
    3bc1:	49 8b 84 24 98 00 00 	mov    0x98(%r12),%rax
    3bc8:	00 
    3bc9:	48 85 c0             	test   %rax,%rax
    3bcc:	78 07                	js     3bd5 <deflate_rle+0x2e5>
    3bce:	89 c3                	mov    %eax,%ebx
    3bd0:	49 03 5c 24 60       	add    0x60(%r12),%rbx
    3bd5:	41 8b 94 24 ac 00 00 	mov    0xac(%r12),%edx
    3bdc:	00 
    3bdd:	49 8b 84 24 98 00 00 	mov    0x98(%r12),%rax
    3be4:	00 
    3be5:	48 29 c2             	sub    %rax,%rdx
    3be8:	48 89 de             	mov    %rbx,%rsi
    3beb:	4c 89 e7             	mov    %r12,%rdi
    3bee:	b9 01 00 00 00       	mov    $0x1,%ecx
    3bf3:	e8 00 00 00 00       	callq  3bf8 <deflate_rle+0x308>
    3bf8:	41 8b 84 24 ac 00 00 	mov    0xac(%r12),%eax
    3bff:	00 
    3c00:	49 89 84 24 98 00 00 	mov    %rax,0x98(%r12)
    3c07:	00 
    3c08:	49 8b 3c 24          	mov    (%r12),%rdi
    3c0c:	e8 df 05 00 00       	callq  41f0 <flush_pending>
    3c11:	49 8b 04 24          	mov    (%r12),%rax
    3c15:	8b 40 20             	mov    0x20(%rax),%eax
    3c18:	85 c0                	test   %eax,%eax
    3c1a:	0f 85 0f 01 00 00    	jne    3d2f <deflate_rle+0x43f>
    3c20:	b8 02 00 00 00       	mov    $0x2,%eax
    3c25:	4c 8b 7d d8          	mov    -0x28(%rbp),%r15
    3c29:	4c 8b 75 e0          	mov    -0x20(%rbp),%r14
    3c2d:	4c 8b 6d e8          	mov    -0x18(%rbp),%r13
    3c31:	4c 8b 65 f0          	mov    -0x10(%rbp),%r12
    3c35:	48 8b 5d f8          	mov    -0x8(%rbp),%rbx
    3c39:	c9                   	leaveq 
    3c3a:	c3                   	retq   
    3c3b:	49 8b 84 24 98 00 00 	mov    0x98(%r12),%rax
    3c42:	00 
    3c43:	48 85 c0             	test   %rax,%rax
    3c46:	0f 89 fe 00 00 00    	jns    3d4a <deflate_rle+0x45a>
    3c4c:	48 89 de             	mov    %rbx,%rsi
    3c4f:	e9 fd 00 00 00       	jmpq   3d51 <deflate_rle+0x461>
    3c54:	48 39 d6             	cmp    %rdx,%rsi
    3c57:	0f 82 2c fe ff ff    	jb     3a89 <deflate_rle+0x199>
    3c5d:	48 89 f7             	mov    %rsi,%rdi
    3c60:	e9 92 fe ff ff       	jmpq   3af7 <deflate_rle+0x207>
    3c65:	49 8b b4 24 10 17 00 	mov    0x1710(%r12),%rsi
    3c6c:	00 
    3c6d:	41 8b 94 24 0c 17 00 	mov    0x170c(%r12),%edx
    3c74:	00 
    3c75:	66 c7 04 56 01 00    	movw   $0x1,(%rsi,%rdx,2)
    3c7b:	41 8b b4 24 0c 17 00 	mov    0x170c(%r12),%esi
    3c82:	00 
    3c83:	8d 56 01             	lea    0x1(%rsi),%edx
    3c86:	41 89 94 24 0c 17 00 	mov    %edx,0x170c(%r12)
    3c8d:	00 
    3c8e:	81 c7 fd 00 00 00    	add    $0xfd,%edi
    3c94:	49 8b 94 24 00 17 00 	mov    0x1700(%r12),%rdx
    3c9b:	00 
    3c9c:	40 88 3c 16          	mov    %dil,(%rsi,%rdx,1)
    3ca0:	40 0f b6 d7          	movzbl %dil,%edx
    3ca4:	42 0f b6 14 3a       	movzbl (%rdx,%r15,1),%edx
    3ca9:	81 c2 01 01 00 00    	add    $0x101,%edx
    3caf:	48 63 f2             	movslq %edx,%rsi
    3cb2:	41 0f b7 94 b4 d4 00 	movzwl 0xd4(%r12,%rsi,4),%edx
    3cb9:	00 00 
    3cbb:	83 c2 01             	add    $0x1,%edx
    3cbe:	66 41 89 94 b4 d4 00 	mov    %dx,0xd4(%r12,%rsi,4)
    3cc5:	00 00 
    3cc7:	41 0f b6 36          	movzbl (%r14),%esi
    3ccb:	41 0f b7 94 b4 c8 09 	movzwl 0x9c8(%r12,%rsi,4),%edx
    3cd2:	00 00 
    3cd4:	83 c2 01             	add    $0x1,%edx
    3cd7:	66 41 89 94 b4 c8 09 	mov    %dx,0x9c8(%r12,%rsi,4)
    3cde:	00 00 
    3ce0:	41 8b 94 24 08 17 00 	mov    0x1708(%r12),%edx
    3ce7:	00 
    3ce8:	83 c2 ff             	add    $0xffffffff,%edx
    3ceb:	41 3b 94 24 0c 17 00 	cmp    0x170c(%r12),%edx
    3cf2:	00 
    3cf3:	0f 84 b3 00 00 00    	je     3dac <deflate_rle+0x4bc>
    3cf9:	48 89 da             	mov    %rbx,%rdx
    3cfc:	e9 ae 00 00 00       	jmpq   3daf <deflate_rle+0x4bf>
    3d01:	48 89 ca             	mov    %rcx,%rdx
    3d04:	41 8b b4 24 b4 00 00 	mov    0xb4(%r12),%esi
    3d0b:	00 
    3d0c:	83 c6 ff             	add    $0xffffffff,%esi
    3d0f:	41 89 b4 24 b4 00 00 	mov    %esi,0xb4(%r12)
    3d16:	00 
    3d17:	41 8b b4 24 ac 00 00 	mov    0xac(%r12),%esi
    3d1e:	00 
    3d1f:	83 c6 01             	add    $0x1,%esi
    3d22:	41 89 b4 24 ac 00 00 	mov    %esi,0xac(%r12)
    3d29:	00 
    3d2a:	e9 b6 00 00 00       	jmpq   3de5 <deflate_rle+0x4f5>
    3d2f:	b8 03 00 00 00       	mov    $0x3,%eax
    3d34:	4c 8b 7d d8          	mov    -0x28(%rbp),%r15
    3d38:	4c 8b 75 e0          	mov    -0x20(%rbp),%r14
    3d3c:	4c 8b 6d e8          	mov    -0x18(%rbp),%r13
    3d40:	4c 8b 65 f0          	mov    -0x10(%rbp),%r12
    3d44:	48 8b 5d f8          	mov    -0x8(%rbp),%rbx
    3d48:	c9                   	leaveq 
    3d49:	c3                   	retq   
    3d4a:	89 c6                	mov    %eax,%esi
    3d4c:	49 03 74 24 60       	add    0x60(%r12),%rsi
    3d51:	41 8b 94 24 ac 00 00 	mov    0xac(%r12),%edx
    3d58:	00 
    3d59:	49 8b 84 24 98 00 00 	mov    0x98(%r12),%rax
    3d60:	00 
    3d61:	48 29 c2             	sub    %rax,%rdx
    3d64:	4c 89 e7             	mov    %r12,%rdi
    3d67:	48 89 d9             	mov    %rbx,%rcx
    3d6a:	e8 00 00 00 00       	callq  3d6f <deflate_rle+0x47f>
    3d6f:	41 8b 84 24 ac 00 00 	mov    0xac(%r12),%eax
    3d76:	00 
    3d77:	49 89 84 24 98 00 00 	mov    %rax,0x98(%r12)
    3d7e:	00 
    3d7f:	49 8b 3c 24          	mov    (%r12),%rdi
    3d83:	e8 68 04 00 00       	callq  41f0 <flush_pending>
    3d88:	49 8b 04 24          	mov    (%r12),%rax
    3d8c:	8b 40 20             	mov    0x20(%rax),%eax
    3d8f:	85 c0                	test   %eax,%eax
    3d91:	75 73                	jne    3e06 <deflate_rle+0x516>
    3d93:	48 89 d8             	mov    %rbx,%rax
    3d96:	4c 8b 7d d8          	mov    -0x28(%rbp),%r15
    3d9a:	4c 8b 75 e0          	mov    -0x20(%rbp),%r14
    3d9e:	4c 8b 6d e8          	mov    -0x18(%rbp),%r13
    3da2:	4c 8b 65 f0          	mov    -0x10(%rbp),%r12
    3da6:	48 8b 5d f8          	mov    -0x8(%rbp),%rbx
    3daa:	c9                   	leaveq 
    3dab:	c3                   	retq   
    3dac:	48 89 ca             	mov    %rcx,%rdx
    3daf:	41 8b bc 24 b4 00 00 	mov    0xb4(%r12),%edi
    3db6:	00 
    3db7:	41 8b b4 24 a0 00 00 	mov    0xa0(%r12),%esi
    3dbe:	00 
    3dbf:	29 f7                	sub    %esi,%edi
    3dc1:	41 89 bc 24 b4 00 00 	mov    %edi,0xb4(%r12)
    3dc8:	00 
    3dc9:	41 03 b4 24 ac 00 00 	add    0xac(%r12),%esi
    3dd0:	00 
    3dd1:	41 89 b4 24 ac 00 00 	mov    %esi,0xac(%r12)
    3dd8:	00 
    3dd9:	41 c7 84 24 a0 00 00 	movl   $0x0,0xa0(%r12)
    3de0:	00 00 00 00 00 
    3de5:	85 d2                	test   %edx,%edx
    3de7:	0f 8e 98 fb ff ff    	jle    3985 <deflate_rle+0x95>
    3ded:	49 8b 84 24 98 00 00 	mov    0x98(%r12),%rax
    3df4:	00 
    3df5:	48 85 c0             	test   %rax,%rax
    3df8:	0f 89 30 fb ff ff    	jns    392e <deflate_rle+0x3e>
    3dfe:	48 89 de             	mov    %rbx,%rsi
    3e01:	e9 2f fb ff ff       	jmpq   3935 <deflate_rle+0x45>
    3e06:	4c 8b 7d d8          	mov    -0x28(%rbp),%r15
    3e0a:	4c 8b 75 e0          	mov    -0x20(%rbp),%r14
    3e0e:	4c 8b 6d e8          	mov    -0x18(%rbp),%r13
    3e12:	4c 8b 65 f0          	mov    -0x10(%rbp),%r12
    3e16:	48 8b 5d f8          	mov    -0x8(%rbp),%rbx
    3e1a:	b8 01 00 00 00       	mov    $0x1,%eax
    3e1f:	c9                   	leaveq 
    3e20:	c3                   	retq   
    3e21:	66 66 2e 0f 1f 84 00 	data16 nopw %cs:0x0(%rax,%rax,1)
    3e28:	00 00 00 00 
    3e2c:	0f 1f 40 00          	nopl   0x0(%rax)

0000000000003e30 <deflate_huff>:
    3e30:	55                   	push   %rbp
    3e31:	48 89 e5             	mov    %rsp,%rbp
    3e34:	48 83 ec 20          	sub    $0x20,%rsp
    3e38:	4c 89 6d f8          	mov    %r13,-0x8(%rbp)
    3e3c:	4c 89 75 f0          	mov    %r14,-0x10(%rbp)
    3e40:	4c 89 7d e8          	mov    %r15,-0x18(%rbp)
    3e44:	48 89 75 e0          	mov    %rsi,-0x20(%rbp)
    3e48:	49 89 fe             	mov    %rdi,%r14
    3e4b:	45 31 ed             	xor    %r13d,%r13d
    3e4e:	41 bf 01 00 00 00    	mov    $0x1,%r15d
    3e54:	eb 46                	jmp    3e9c <deflate_huff+0x6c>
    3e56:	89 c6                	mov    %eax,%esi
    3e58:	49 03 76 60          	add    0x60(%r14),%rsi
    3e5c:	41 8b 96 ac 00 00 00 	mov    0xac(%r14),%edx
    3e63:	49 8b 86 98 00 00 00 	mov    0x98(%r14),%rax
    3e6a:	48 29 c2             	sub    %rax,%rdx
    3e6d:	4c 89 f7             	mov    %r14,%rdi
    3e70:	4c 89 e9             	mov    %r13,%rcx
    3e73:	e8 00 00 00 00       	callq  3e78 <deflate_huff+0x48>
    3e78:	41 8b 86 ac 00 00 00 	mov    0xac(%r14),%eax
    3e7f:	49 89 86 98 00 00 00 	mov    %rax,0x98(%r14)
    3e86:	49 8b 3e             	mov    (%r14),%rdi
    3e89:	e8 62 03 00 00       	callq  41f0 <flush_pending>
    3e8e:	49 8b 06             	mov    (%r14),%rax
    3e91:	8b 40 20             	mov    0x20(%rax),%eax
    3e94:	85 c0                	test   %eax,%eax
    3e96:	0f 84 85 00 00 00    	je     3f21 <deflate_huff+0xf1>
    3e9c:	41 8b 86 b4 00 00 00 	mov    0xb4(%r14),%eax
    3ea3:	85 c0                	test   %eax,%eax
    3ea5:	0f 84 87 00 00 00    	je     3f32 <deflate_huff+0x102>
    3eab:	41 c7 86 a0 00 00 00 	movl   $0x0,0xa0(%r14)
    3eb2:	00 00 00 00 
    3eb6:	49 8b 8e 10 17 00 00 	mov    0x1710(%r14),%rcx
    3ebd:	41 8b 86 0c 17 00 00 	mov    0x170c(%r14),%eax
    3ec4:	41 8b b6 ac 00 00 00 	mov    0xac(%r14),%esi
    3ecb:	49 8b 56 60          	mov    0x60(%r14),%rdx
    3ecf:	0f b6 14 16          	movzbl (%rsi,%rdx,1),%edx
    3ed3:	66 c7 04 41 00 00    	movw   $0x0,(%rcx,%rax,2)
    3ed9:	41 8b 8e 0c 17 00 00 	mov    0x170c(%r14),%ecx
    3ee0:	8d 41 01             	lea    0x1(%rcx),%eax
    3ee3:	41 89 86 0c 17 00 00 	mov    %eax,0x170c(%r14)
    3eea:	49 8b 86 00 17 00 00 	mov    0x1700(%r14),%rax
    3ef1:	88 14 01             	mov    %dl,(%rcx,%rax,1)
    3ef4:	41 0f b7 84 96 d4 00 	movzwl 0xd4(%r14,%rdx,4),%eax
    3efb:	00 00 
    3efd:	83 c0 01             	add    $0x1,%eax
    3f00:	66 41 89 84 96 d4 00 	mov    %ax,0xd4(%r14,%rdx,4)
    3f07:	00 00 
    3f09:	41 8b 86 08 17 00 00 	mov    0x1708(%r14),%eax
    3f10:	83 c0 ff             	add    $0xffffffff,%eax
    3f13:	41 3b 86 0c 17 00 00 	cmp    0x170c(%r14),%eax
    3f1a:	74 46                	je     3f62 <deflate_huff+0x132>
    3f1c:	4c 89 e9             	mov    %r13,%rcx
    3f1f:	eb 44                	jmp    3f65 <deflate_huff+0x135>
    3f21:	4c 89 e8             	mov    %r13,%rax
    3f24:	4c 8b 7d e8          	mov    -0x18(%rbp),%r15
    3f28:	4c 8b 75 f0          	mov    -0x10(%rbp),%r14
    3f2c:	4c 8b 6d f8          	mov    -0x8(%rbp),%r13
    3f30:	c9                   	leaveq 
    3f31:	c3                   	retq   
    3f32:	4c 89 f7             	mov    %r14,%rdi
    3f35:	e8 f6 e2 ff ff       	callq  2230 <fill_window>
    3f3a:	41 8b 86 b4 00 00 00 	mov    0xb4(%r14),%eax
    3f41:	85 c0                	test   %eax,%eax
    3f43:	0f 85 62 ff ff ff    	jne    3eab <deflate_huff+0x7b>
    3f49:	48 8b 45 e0          	mov    -0x20(%rbp),%rax
    3f4d:	85 c0                	test   %eax,%eax
    3f4f:	75 56                	jne    3fa7 <deflate_huff+0x177>
    3f51:	4c 89 e8             	mov    %r13,%rax
    3f54:	4c 8b 7d e8          	mov    -0x18(%rbp),%r15
    3f58:	4c 8b 75 f0          	mov    -0x10(%rbp),%r14
    3f5c:	4c 8b 6d f8          	mov    -0x8(%rbp),%r13
    3f60:	c9                   	leaveq 
    3f61:	c3                   	retq   
    3f62:	4c 89 f9             	mov    %r15,%rcx
    3f65:	41 8b 86 b4 00 00 00 	mov    0xb4(%r14),%eax
    3f6c:	83 c0 ff             	add    $0xffffffff,%eax
    3f6f:	41 89 86 b4 00 00 00 	mov    %eax,0xb4(%r14)
    3f76:	41 8b 86 ac 00 00 00 	mov    0xac(%r14),%eax
    3f7d:	83 c0 01             	add    $0x1,%eax
    3f80:	41 89 86 ac 00 00 00 	mov    %eax,0xac(%r14)
    3f87:	85 c9                	test   %ecx,%ecx
    3f89:	0f 8e 0d ff ff ff    	jle    3e9c <deflate_huff+0x6c>
    3f8f:	49 8b 86 98 00 00 00 	mov    0x98(%r14),%rax
    3f96:	48 85 c0             	test   %rax,%rax
    3f99:	0f 89 b7 fe ff ff    	jns    3e56 <deflate_huff+0x26>
    3f9f:	4c 89 ee             	mov    %r13,%rsi
    3fa2:	e9 b5 fe ff ff       	jmpq   3e5c <deflate_huff+0x2c>
    3fa7:	41 c7 86 2c 17 00 00 	movl   $0x0,0x172c(%r14)
    3fae:	00 00 00 00 
    3fb2:	83 f8 04             	cmp    $0x4,%eax
    3fb5:	74 1c                	je     3fd3 <deflate_huff+0x1a3>
    3fb7:	41 8b 86 0c 17 00 00 	mov    0x170c(%r14),%eax
    3fbe:	85 c0                	test   %eax,%eax
    3fc0:	75 76                	jne    4038 <deflate_huff+0x208>
    3fc2:	4c 89 f8             	mov    %r15,%rax
    3fc5:	4c 8b 7d e8          	mov    -0x18(%rbp),%r15
    3fc9:	4c 8b 75 f0          	mov    -0x10(%rbp),%r14
    3fcd:	4c 8b 6d f8          	mov    -0x8(%rbp),%r13
    3fd1:	c9                   	leaveq 
    3fd2:	c3                   	retq   
    3fd3:	49 8b 86 98 00 00 00 	mov    0x98(%r14),%rax
    3fda:	48 85 c0             	test   %rax,%rax
    3fdd:	78 07                	js     3fe6 <deflate_huff+0x1b6>
    3fdf:	41 89 c5             	mov    %eax,%r13d
    3fe2:	4d 03 6e 60          	add    0x60(%r14),%r13
    3fe6:	41 8b 96 ac 00 00 00 	mov    0xac(%r14),%edx
    3fed:	49 8b 86 98 00 00 00 	mov    0x98(%r14),%rax
    3ff4:	48 29 c2             	sub    %rax,%rdx
    3ff7:	4c 89 f9             	mov    %r15,%rcx
    3ffa:	4c 89 ee             	mov    %r13,%rsi
    3ffd:	4c 89 f7             	mov    %r14,%rdi
    4000:	e8 00 00 00 00       	callq  4005 <deflate_huff+0x1d5>
    4005:	41 8b 86 ac 00 00 00 	mov    0xac(%r14),%eax
    400c:	49 89 86 98 00 00 00 	mov    %rax,0x98(%r14)
    4013:	49 8b 3e             	mov    (%r14),%rdi
    4016:	e8 d5 01 00 00       	callq  41f0 <flush_pending>
    401b:	49 8b 06             	mov    (%r14),%rax
    401e:	8b 40 20             	mov    0x20(%rax),%eax
    4021:	85 c0                	test   %eax,%eax
    4023:	75 24                	jne    4049 <deflate_huff+0x219>
    4025:	b8 02 00 00 00       	mov    $0x2,%eax
    402a:	4c 8b 7d e8          	mov    -0x18(%rbp),%r15
    402e:	4c 8b 75 f0          	mov    -0x10(%rbp),%r14
    4032:	4c 8b 6d f8          	mov    -0x8(%rbp),%r13
    4036:	c9                   	leaveq 
    4037:	c3                   	retq   
    4038:	49 8b 86 98 00 00 00 	mov    0x98(%r14),%rax
    403f:	48 85 c0             	test   %rax,%rax
    4042:	79 18                	jns    405c <deflate_huff+0x22c>
    4044:	4c 89 ee             	mov    %r13,%rsi
    4047:	eb 19                	jmp    4062 <deflate_huff+0x232>
    4049:	b8 03 00 00 00       	mov    $0x3,%eax
    404e:	4c 8b 7d e8          	mov    -0x18(%rbp),%r15
    4052:	4c 8b 75 f0          	mov    -0x10(%rbp),%r14
    4056:	4c 8b 6d f8          	mov    -0x8(%rbp),%r13
    405a:	c9                   	leaveq 
    405b:	c3                   	retq   
    405c:	89 c6                	mov    %eax,%esi
    405e:	49 03 76 60          	add    0x60(%r14),%rsi
    4062:	41 8b 96 ac 00 00 00 	mov    0xac(%r14),%edx
    4069:	49 8b 86 98 00 00 00 	mov    0x98(%r14),%rax
    4070:	48 29 c2             	sub    %rax,%rdx
    4073:	4c 89 f7             	mov    %r14,%rdi
    4076:	4c 89 e9             	mov    %r13,%rcx
    4079:	e8 00 00 00 00       	callq  407e <deflate_huff+0x24e>
    407e:	41 8b 86 ac 00 00 00 	mov    0xac(%r14),%eax
    4085:	49 89 86 98 00 00 00 	mov    %rax,0x98(%r14)
    408c:	49 8b 3e             	mov    (%r14),%rdi
    408f:	e8 5c 01 00 00       	callq  41f0 <flush_pending>
    4094:	49 8b 06             	mov    (%r14),%rax
    4097:	8b 40 20             	mov    0x20(%rax),%eax
    409a:	85 c0                	test   %eax,%eax
    409c:	75 11                	jne    40af <deflate_huff+0x27f>
    409e:	4c 89 e8             	mov    %r13,%rax
    40a1:	4c 8b 7d e8          	mov    -0x18(%rbp),%r15
    40a5:	4c 8b 75 f0          	mov    -0x10(%rbp),%r14
    40a9:	4c 8b 6d f8          	mov    -0x8(%rbp),%r13
    40ad:	c9                   	leaveq 
    40ae:	c3                   	retq   
    40af:	4c 89 f8             	mov    %r15,%rax
    40b2:	4c 8b 7d e8          	mov    -0x18(%rbp),%r15
    40b6:	4c 8b 75 f0          	mov    -0x10(%rbp),%r14
    40ba:	4c 8b 6d f8          	mov    -0x8(%rbp),%r13
    40be:	c9                   	leaveq 
    40bf:	c3                   	retq   

00000000000040c0 <lm_init>:
    40c0:	55                   	push   %rbp
    40c1:	48 89 e5             	mov    %rsp,%rbp
    40c4:	48 83 ec 10          	sub    $0x10,%rsp
    40c8:	4c 89 7d f8          	mov    %r15,-0x8(%rbp)
    40cc:	8b 47 50             	mov    0x50(%rdi),%eax
    40cf:	48 01 c0             	add    %rax,%rax
    40d2:	48 89 47 68          	mov    %rax,0x68(%rdi)
    40d6:	48 8b 4f 78          	mov    0x78(%rdi),%rcx
    40da:	8b 87 84 00 00 00    	mov    0x84(%rdi),%eax
    40e0:	83 c0 ff             	add    $0xffffffff,%eax
    40e3:	89 c0                	mov    %eax,%eax
    40e5:	66 c7 04 41 00 00    	movw   $0x0,(%rcx,%rax,2)
    40eb:	48 8b 4f 78          	mov    0x78(%rdi),%rcx
    40ef:	31 f6                	xor    %esi,%esi
    40f1:	8b 87 84 00 00 00    	mov    0x84(%rdi),%eax
    40f7:	83 c0 ff             	add    $0xffffffff,%eax
    40fa:	89 c0                	mov    %eax,%eax
    40fc:	48 8d 14 00          	lea    (%rax,%rax,1),%rdx
    4100:	49 89 ff             	mov    %rdi,%r15
    4103:	48 89 cf             	mov    %rcx,%rdi
    4106:	e8 00 00 00 00       	callq  410b <lm_init+0x4b>
    410b:	48 8d 15 00 00 00 00 	lea    0x0(%rip),%rdx        # 4112 <lm_init+0x52>
    4112:	49 63 87 c4 00 00 00 	movslq 0xc4(%r15),%rax
    4119:	48 c1 e0 04          	shl    $0x4,%rax
    411d:	0f b7 4c 02 02       	movzwl 0x2(%rdx,%rax,1),%ecx
    4122:	41 89 8f c0 00 00 00 	mov    %ecx,0xc0(%r15)
    4129:	0f b7 0c 10          	movzwl (%rax,%rdx,1),%ecx
    412d:	41 89 8f cc 00 00 00 	mov    %ecx,0xcc(%r15)
    4134:	0f b7 4c 02 04       	movzwl 0x4(%rdx,%rax,1),%ecx
    4139:	41 89 8f d0 00 00 00 	mov    %ecx,0xd0(%r15)
    4140:	0f b7 44 02 06       	movzwl 0x6(%rdx,%rax,1),%eax
    4145:	41 89 87 bc 00 00 00 	mov    %eax,0xbc(%r15)
    414c:	41 c7 87 ac 00 00 00 	movl   $0x0,0xac(%r15)
    4153:	00 00 00 00 
    4157:	49 c7 87 98 00 00 00 	movq   $0x0,0x98(%r15)
    415e:	00 00 00 00 
    4162:	41 c7 87 b4 00 00 00 	movl   $0x0,0xb4(%r15)
    4169:	00 00 00 00 
    416d:	41 c7 87 2c 17 00 00 	movl   $0x0,0x172c(%r15)
    4174:	00 00 00 00 
    4178:	41 c7 87 b8 00 00 00 	movl   $0x2,0xb8(%r15)
    417f:	02 00 00 00 
    4183:	41 c7 87 a0 00 00 00 	movl   $0x2,0xa0(%r15)
    418a:	02 00 00 00 
    418e:	41 c7 87 a8 00 00 00 	movl   $0x0,0xa8(%r15)
    4195:	00 00 00 00 
    4199:	41 c7 87 80 00 00 00 	movl   $0x0,0x80(%r15)
    41a0:	00 00 00 00 
    41a4:	4c 8b 7d f8          	mov    -0x8(%rbp),%r15
    41a8:	c9                   	leaveq 
    41a9:	c3                   	retq   
    41aa:	66 0f 1f 44 00 00    	nopw   0x0(%rax,%rax,1)

00000000000041b0 <putShortMSB>:
    41b0:	55                   	push   %rbp
    41b1:	48 89 e5             	mov    %rsp,%rbp
    41b4:	48 8b 4f 28          	mov    0x28(%rdi),%rcx
    41b8:	48 8d 41 01          	lea    0x1(%rcx),%rax
    41bc:	48 89 47 28          	mov    %rax,0x28(%rdi)
    41c0:	48 89 f2             	mov    %rsi,%rdx
    41c3:	c1 ea 08             	shr    $0x8,%edx
    41c6:	48 8b 47 10          	mov    0x10(%rdi),%rax
    41ca:	88 14 01             	mov    %dl,(%rcx,%rax,1)
    41cd:	48 8b 4f 28          	mov    0x28(%rdi),%rcx
    41d1:	48 8d 41 01          	lea    0x1(%rcx),%rax
    41d5:	48 89 47 28          	mov    %rax,0x28(%rdi)
    41d9:	48 8b 47 10          	mov    0x10(%rdi),%rax
    41dd:	40 88 34 01          	mov    %sil,(%rcx,%rax,1)
    41e1:	c9                   	leaveq 
    41e2:	c3                   	retq   
    41e3:	66 66 2e 0f 1f 84 00 	data16 nopw %cs:0x0(%rax,%rax,1)
    41ea:	00 00 00 00 
    41ee:	66 90                	xchg   %ax,%ax

00000000000041f0 <flush_pending>:
    41f0:	55                   	push   %rbp
    41f1:	48 89 e5             	mov    %rsp,%rbp
    41f4:	48 83 ec 20          	sub    $0x20,%rsp
    41f8:	4c 89 75 e8          	mov    %r14,-0x18(%rbp)
    41fc:	4c 89 7d e0          	mov    %r15,-0x20(%rbp)
    4200:	4d 89 e7             	mov    %r12,%r15
    4203:	49 89 fc             	mov    %rdi,%r12
    4206:	4d 8b 74 24 38       	mov    0x38(%r12),%r14
    420b:	4c 89 f7             	mov    %r14,%rdi
    420e:	e8 00 00 00 00       	callq  4213 <flush_pending+0x23>
    4213:	41 8b 4c 24 20       	mov    0x20(%r12),%ecx
    4218:	41 8b 46 28          	mov    0x28(%r14),%eax
    421c:	39 c1                	cmp    %eax,%ecx
    421e:	73 03                	jae    4223 <flush_pending+0x33>
    4220:	48 89 c8             	mov    %rcx,%rax
    4223:	85 c0                	test   %eax,%eax
    4225:	75 0d                	jne    4234 <flush_pending+0x44>
    4227:	4d 89 fc             	mov    %r15,%r12
    422a:	4c 8b 7d e0          	mov    -0x20(%rbp),%r15
    422e:	4c 8b 75 e8          	mov    -0x18(%rbp),%r14
    4232:	c9                   	leaveq 
    4233:	c3                   	retq   
    4234:	89 c1                	mov    %eax,%ecx
    4236:	49 8b 7c 24 18       	mov    0x18(%r12),%rdi
    423b:	49 8b 76 20          	mov    0x20(%r14),%rsi
    423f:	48 89 ca             	mov    %rcx,%rdx
    4242:	4c 89 7d f8          	mov    %r15,-0x8(%rbp)
    4246:	4c 89 6d f0          	mov    %r13,-0x10(%rbp)
    424a:	49 89 cd             	mov    %rcx,%r13
    424d:	49 89 c7             	mov    %rax,%r15
    4250:	e8 00 00 00 00       	callq  4255 <flush_pending+0x65>
    4255:	4c 89 e8             	mov    %r13,%rax
    4258:	49 03 44 24 18       	add    0x18(%r12),%rax
    425d:	49 89 44 24 18       	mov    %rax,0x18(%r12)
    4262:	4c 89 e8             	mov    %r13,%rax
    4265:	49 03 46 20          	add    0x20(%r14),%rax
    4269:	49 89 46 20          	mov    %rax,0x20(%r14)
    426d:	4c 89 e8             	mov    %r13,%rax
    4270:	49 03 44 24 28       	add    0x28(%r12),%rax
    4275:	49 89 44 24 28       	mov    %rax,0x28(%r12)
    427a:	41 8b 44 24 20       	mov    0x20(%r12),%eax
    427f:	44 29 f8             	sub    %r15d,%eax
    4282:	41 89 44 24 20       	mov    %eax,0x20(%r12)
    4287:	49 8b 4e 28          	mov    0x28(%r14),%rcx
    428b:	48 89 c8             	mov    %rcx,%rax
    428e:	4c 29 e8             	sub    %r13,%rax
    4291:	49 89 46 28          	mov    %rax,0x28(%r14)
    4295:	4c 39 e9             	cmp    %r13,%rcx
    4298:	74 12                	je     42ac <flush_pending+0xbc>
    429a:	4c 8b 6d f0          	mov    -0x10(%rbp),%r13
    429e:	4c 8b 65 f8          	mov    -0x8(%rbp),%r12
    42a2:	4c 8b 7d e0          	mov    -0x20(%rbp),%r15
    42a6:	4c 8b 75 e8          	mov    -0x18(%rbp),%r14
    42aa:	c9                   	leaveq 
    42ab:	c3                   	retq   
    42ac:	49 8b 46 10          	mov    0x10(%r14),%rax
    42b0:	49 89 46 20          	mov    %rax,0x20(%r14)
    42b4:	4c 8b 6d f0          	mov    -0x10(%rbp),%r13
    42b8:	4c 8b 65 f8          	mov    -0x8(%rbp),%r12
    42bc:	4c 8b 7d e0          	mov    -0x20(%rbp),%r15
    42c0:	4c 8b 75 e8          	mov    -0x18(%rbp),%r14
    42c4:	c9                   	leaveq 
    42c5:	c3                   	retq   
    42c6:	66 2e 0f 1f 84 00 00 	nopw   %cs:0x0(%rax,%rax,1)
    42cd:	00 00 00 

00000000000042d0 <read_buf>:
    42d0:	55                   	push   %rbp
    42d1:	48 89 e5             	mov    %rsp,%rbp
    42d4:	48 83 ec 20          	sub    $0x20,%rsp
    42d8:	8b 47 08             	mov    0x8(%rdi),%eax
    42db:	39 d0                	cmp    %edx,%eax
    42dd:	77 05                	ja     42e4 <read_buf+0x14>
    42df:	49 89 c0             	mov    %rax,%r8
    42e2:	eb 03                	jmp    42e7 <read_buf+0x17>
    42e4:	49 89 d0             	mov    %rdx,%r8
    42e7:	45 85 c0             	test   %r8d,%r8d
    42ea:	75 04                	jne    42f0 <read_buf+0x20>
    42ec:	31 c0                	xor    %eax,%eax
    42ee:	c9                   	leaveq 
    42ef:	c3                   	retq   
    42f0:	44 29 c0             	sub    %r8d,%eax
    42f3:	89 47 08             	mov    %eax,0x8(%rdi)
    42f6:	44 89 c1             	mov    %r8d,%ecx
    42f9:	48 8b 07             	mov    (%rdi),%rax
    42fc:	49 89 f1             	mov    %rsi,%r9
    42ff:	48 89 ca             	mov    %rcx,%rdx
    4302:	4c 89 65 f8          	mov    %r12,-0x8(%rbp)
    4306:	4c 89 6d f0          	mov    %r13,-0x10(%rbp)
    430a:	4c 89 75 e8          	mov    %r14,-0x18(%rbp)
    430e:	4c 89 7d e0          	mov    %r15,-0x20(%rbp)
    4312:	4d 89 c4             	mov    %r8,%r12
    4315:	49 89 cd             	mov    %rcx,%r13
    4318:	49 89 fe             	mov    %rdi,%r14
    431b:	4c 89 cf             	mov    %r9,%rdi
    431e:	49 89 f7             	mov    %rsi,%r15
    4321:	48 89 c6             	mov    %rax,%rsi
    4324:	e8 00 00 00 00       	callq  4329 <read_buf+0x59>
    4329:	49 8b 46 38          	mov    0x38(%r14),%rax
    432d:	48 63 40 30          	movslq 0x30(%rax),%rax
    4331:	83 f8 01             	cmp    $0x1,%eax
    4334:	74 1a                	je     4350 <read_buf+0x80>
    4336:	83 f8 02             	cmp    $0x2,%eax
    4339:	75 28                	jne    4363 <read_buf+0x93>
    433b:	4c 89 fe             	mov    %r15,%rsi
    433e:	49 8b 7e 60          	mov    0x60(%r14),%rdi
    4342:	4c 89 e2             	mov    %r12,%rdx
    4345:	e8 00 00 00 00       	callq  434a <read_buf+0x7a>
    434a:	49 89 46 60          	mov    %rax,0x60(%r14)
    434e:	eb 13                	jmp    4363 <read_buf+0x93>
    4350:	4c 89 fe             	mov    %r15,%rsi
    4353:	49 8b 7e 60          	mov    0x60(%r14),%rdi
    4357:	4c 89 e2             	mov    %r12,%rdx
    435a:	e8 00 00 00 00       	callq  435f <read_buf+0x8f>
    435f:	49 89 46 60          	mov    %rax,0x60(%r14)
    4363:	44 89 e0             	mov    %r12d,%eax
    4366:	49 03 06             	add    (%r14),%rax
    4369:	49 89 06             	mov    %rax,(%r14)
    436c:	4d 03 6e 10          	add    0x10(%r14),%r13
    4370:	4d 89 6e 10          	mov    %r13,0x10(%r14)
    4374:	4c 89 e0             	mov    %r12,%rax
    4377:	4c 8b 7d e0          	mov    -0x20(%rbp),%r15
    437b:	4c 8b 75 e8          	mov    -0x18(%rbp),%r14
    437f:	4c 8b 6d f0          	mov    -0x10(%rbp),%r13
    4383:	4c 8b 65 f8          	mov    -0x8(%rbp),%r12
    4387:	c9                   	leaveq 
    4388:	c3                   	retq   
    4389:	0f 1f 80 00 00 00 00 	nopl   0x0(%rax)

0000000000004390 <longest_match>:
    4390:	55                   	push   %rbp
    4391:	48 89 e5             	mov    %rsp,%rbp
    4394:	48 83 ec 50          	sub    $0x50,%rsp
    4398:	4c 89 7d d8          	mov    %r15,-0x28(%rbp)
    439c:	4c 89 75 e0          	mov    %r14,-0x20(%rbp)
    43a0:	4c 89 6d e8          	mov    %r13,-0x18(%rbp)
    43a4:	4c 89 65 f0          	mov    %r12,-0x10(%rbp)
    43a8:	48 89 5d f8          	mov    %rbx,-0x8(%rbp)
    43ac:	44 8b 87 bc 00 00 00 	mov    0xbc(%rdi),%r8d
    43b3:	48 8b 57 60          	mov    0x60(%rdi),%rdx
    43b7:	48 63 87 b8 00 00 00 	movslq 0xb8(%rdi),%rax
    43be:	4c 63 a7 d0 00 00 00 	movslq 0xd0(%rdi),%r12
    43c5:	8b 9f ac 00 00 00    	mov    0xac(%rdi),%ebx
    43cb:	8b 4f 50             	mov    0x50(%rdi),%ecx
    43ce:	81 c1 fa fe ff ff    	add    $0xfffffefa,%ecx
    43d4:	39 d9                	cmp    %ebx,%ecx
    43d6:	72 05                	jb     43dd <longest_match+0x4d>
    43d8:	45 31 d2             	xor    %r10d,%r10d
    43db:	eb 06                	jmp    43e3 <longest_match+0x53>
    43dd:	49 89 da             	mov    %rbx,%r10
    43e0:	41 29 ca             	sub    %ecx,%r10d
    43e3:	4c 8b 77 70          	mov    0x70(%rdi),%r14
    43e7:	44 8b 6f 58          	mov    0x58(%rdi),%r13d
    43eb:	48 8d 0c 13          	lea    (%rbx,%rdx,1),%rcx
    43ef:	48 89 4d b8          	mov    %rcx,-0x48(%rbp)
    43f3:	8d 50 ff             	lea    -0x1(%rax),%edx
    43f6:	48 63 d2             	movslq %edx,%rdx
    43f9:	0f b6 14 11          	movzbl (%rcx,%rdx,1),%edx
    43fd:	0f b6 1c 08          	movzbl (%rax,%rcx,1),%ebx
    4401:	44 8b 8f cc 00 00 00 	mov    0xcc(%rdi),%r9d
    4408:	41 39 c1             	cmp    %eax,%r9d
    440b:	77 04                	ja     4411 <longest_match+0x81>
    440d:	41 c1 e8 02          	shr    $0x2,%r8d
    4411:	4c 8d 89 02 01 00 00 	lea    0x102(%rcx),%r9
    4418:	4c 89 4d d0          	mov    %r9,-0x30(%rbp)
    441c:	44 8b 8f b4 00 00 00 	mov    0xb4(%rdi),%r9d
    4423:	45 39 e1             	cmp    %r12d,%r9d
    4426:	0f 83 24 01 00 00    	jae    4550 <longest_match+0x1c0>
    442c:	4d 89 cc             	mov    %r9,%r12
    442f:	e9 1c 01 00 00       	jmpq   4550 <longest_match+0x1c0>
    4434:	44 8d 58 ff          	lea    -0x1(%rax),%r11d
    4438:	4d 63 db             	movslq %r11d,%r11
    443b:	47 0f b6 1c 19       	movzbl (%r9,%r11,1),%r11d
    4440:	44 38 da             	cmp    %r11b,%dl
    4443:	0f 85 ef 00 00 00    	jne    4538 <longest_match+0x1a8>
    4449:	44 0f b6 39          	movzbl (%rcx),%r15d
    444d:	45 0f b6 19          	movzbl (%r9),%r11d
    4451:	45 38 df             	cmp    %r11b,%r15b
    4454:	0f 85 de 00 00 00    	jne    4538 <longest_match+0x1a8>
    445a:	44 0f b6 79 01       	movzbl 0x1(%rcx),%r15d
    445f:	45 0f b6 59 01       	movzbl 0x1(%r9),%r11d
    4464:	45 38 df             	cmp    %r11b,%r15b
    4467:	0f 85 cb 00 00 00    	jne    4538 <longest_match+0x1a8>
    446d:	4c 8d 59 02          	lea    0x2(%rcx),%r11
    4471:	49 8d 49 02          	lea    0x2(%r9),%rcx
    4475:	48 89 55 c8          	mov    %rdx,-0x38(%rbp)
    4479:	48 89 5d c0          	mov    %rbx,-0x40(%rbp)
    447d:	48 8b 55 d0          	mov    -0x30(%rbp),%rdx
    4481:	44 0f b6 79 01       	movzbl 0x1(%rcx),%r15d
    4486:	49 8d 5b 01          	lea    0x1(%r11),%rbx
    448a:	44 0f b6 0b          	movzbl (%rbx),%r9d
    448e:	45 38 cf             	cmp    %r9b,%r15b
    4491:	0f 85 84 00 00 00    	jne    451b <longest_match+0x18b>
    4497:	44 0f b6 79 02       	movzbl 0x2(%rcx),%r15d
    449c:	49 8d 5b 02          	lea    0x2(%r11),%rbx
    44a0:	44 0f b6 0b          	movzbl (%rbx),%r9d
    44a4:	45 38 cf             	cmp    %r9b,%r15b
    44a7:	75 72                	jne    451b <longest_match+0x18b>
    44a9:	44 0f b6 79 03       	movzbl 0x3(%rcx),%r15d
    44ae:	49 8d 5b 03          	lea    0x3(%r11),%rbx
    44b2:	44 0f b6 0b          	movzbl (%rbx),%r9d
    44b6:	45 38 cf             	cmp    %r9b,%r15b
    44b9:	75 60                	jne    451b <longest_match+0x18b>
    44bb:	44 0f b6 79 04       	movzbl 0x4(%rcx),%r15d
    44c0:	49 8d 5b 04          	lea    0x4(%r11),%rbx
    44c4:	44 0f b6 0b          	movzbl (%rbx),%r9d
    44c8:	45 38 cf             	cmp    %r9b,%r15b
    44cb:	75 4e                	jne    451b <longest_match+0x18b>
    44cd:	44 0f b6 49 05       	movzbl 0x5(%rcx),%r9d
    44d2:	49 8d 5b 05          	lea    0x5(%r11),%rbx
    44d6:	44 0f b6 3b          	movzbl (%rbx),%r15d
    44da:	45 38 f9             	cmp    %r15b,%r9b
    44dd:	75 3c                	jne    451b <longest_match+0x18b>
    44df:	44 0f b6 79 06       	movzbl 0x6(%rcx),%r15d
    44e4:	49 8d 5b 06          	lea    0x6(%r11),%rbx
    44e8:	44 0f b6 0b          	movzbl (%rbx),%r9d
    44ec:	45 38 cf             	cmp    %r9b,%r15b
    44ef:	75 2a                	jne    451b <longest_match+0x18b>
    44f1:	44 0f b6 79 07       	movzbl 0x7(%rcx),%r15d
    44f6:	49 8d 5b 07          	lea    0x7(%r11),%rbx
    44fa:	44 0f b6 0b          	movzbl (%rbx),%r9d
    44fe:	45 38 cf             	cmp    %r9b,%r15b
    4501:	75 18                	jne    451b <longest_match+0x18b>
    4503:	48 83 c1 08          	add    $0x8,%rcx
    4507:	44 0f b6 09          	movzbl (%rcx),%r9d
    450b:	49 83 c3 08          	add    $0x8,%r11
    450f:	41 0f b6 1b          	movzbl (%r11),%ebx
    4513:	41 38 d9             	cmp    %bl,%r9b
    4516:	74 51                	je     4569 <longest_match+0x1d9>
    4518:	4c 89 db             	mov    %r11,%rbx
    451b:	48 29 da             	sub    %rbx,%rdx
    451e:	41 b9 02 01 00 00    	mov    $0x102,%r9d
    4524:	41 29 d1             	sub    %edx,%r9d
    4527:	41 39 c1             	cmp    %eax,%r9d
    452a:	7f 4b                	jg     4577 <longest_match+0x1e7>
    452c:	48 8b 5d c0          	mov    -0x40(%rbp),%rbx
    4530:	48 8b 55 c8          	mov    -0x38(%rbp),%rdx
    4534:	48 8b 4d b8          	mov    -0x48(%rbp),%rcx
    4538:	44 21 ee             	and    %r13d,%esi
    453b:	89 f6                	mov    %esi,%esi
    453d:	41 0f b7 34 76       	movzwl (%r14,%rsi,2),%esi
    4542:	44 39 d6             	cmp    %r10d,%esi
    4545:	76 3e                	jbe    4585 <longest_match+0x1f5>
    4547:	41 83 c0 ff          	add    $0xffffffff,%r8d
    454b:	45 85 c0             	test   %r8d,%r8d
    454e:	74 35                	je     4585 <longest_match+0x1f5>
    4550:	41 89 f1             	mov    %esi,%r9d
    4553:	4c 03 4f 60          	add    0x60(%rdi),%r9
    4557:	4c 63 d8             	movslq %eax,%r11
    455a:	47 0f b6 1c 19       	movzbl (%r9,%r11,1),%r11d
    455f:	44 38 db             	cmp    %r11b,%bl
    4562:	75 d4                	jne    4538 <longest_match+0x1a8>
    4564:	e9 cb fe ff ff       	jmpq   4434 <longest_match+0xa4>
    4569:	49 39 d3             	cmp    %rdx,%r11
    456c:	0f 82 0f ff ff ff    	jb     4481 <longest_match+0xf1>
    4572:	4c 89 db             	mov    %r11,%rbx
    4575:	eb a4                	jmp    451b <longest_match+0x18b>
    4577:	89 b7 b0 00 00 00    	mov    %esi,0xb0(%rdi)
    457d:	45 39 e1             	cmp    %r12d,%r9d
    4580:	7c 23                	jl     45a5 <longest_match+0x215>
    4582:	4c 89 c8             	mov    %r9,%rax
    4585:	8b 8f b4 00 00 00    	mov    0xb4(%rdi),%ecx
    458b:	39 c1                	cmp    %eax,%ecx
    458d:	72 37                	jb     45c6 <longest_match+0x236>
    458f:	48 8b 5d f8          	mov    -0x8(%rbp),%rbx
    4593:	4c 8b 65 f0          	mov    -0x10(%rbp),%r12
    4597:	4c 8b 6d e8          	mov    -0x18(%rbp),%r13
    459b:	4c 8b 75 e0          	mov    -0x20(%rbp),%r14
    459f:	4c 8b 7d d8          	mov    -0x28(%rbp),%r15
    45a3:	c9                   	leaveq 
    45a4:	c3                   	retq   
    45a5:	b8 01 01 00 00       	mov    $0x101,%eax
    45aa:	29 d0                	sub    %edx,%eax
    45ac:	48 63 c0             	movslq %eax,%rax
    45af:	48 8b 4d b8          	mov    -0x48(%rbp),%rcx
    45b3:	0f b6 14 01          	movzbl (%rcx,%rax,1),%edx
    45b7:	49 63 c1             	movslq %r9d,%rax
    45ba:	0f b6 1c 01          	movzbl (%rcx,%rax,1),%ebx
    45be:	4c 89 c8             	mov    %r9,%rax
    45c1:	e9 72 ff ff ff       	jmpq   4538 <longest_match+0x1a8>
    45c6:	48 89 c8             	mov    %rcx,%rax
    45c9:	48 8b 5d f8          	mov    -0x8(%rbp),%rbx
    45cd:	4c 8b 65 f0          	mov    -0x10(%rbp),%r12
    45d1:	4c 8b 6d e8          	mov    -0x18(%rbp),%r13
    45d5:	4c 8b 75 e0          	mov    -0x20(%rbp),%r14
    45d9:	4c 8b 7d d8          	mov    -0x28(%rbp),%r15
    45dd:	c9                   	leaveq 
    45de:	c3                   	retq   

infback.o:     file format elf64-x86-64


Disassembly of section .text:

0000000000000000 <inflateBack>:
       0:	55                   	push   %rbp
       1:	48 89 e5             	mov    %rsp,%rbp
       4:	48 81 ec e0 00 00 00 	sub    $0xe0,%rsp
       b:	48 89 95 38 ff ff ff 	mov    %rdx,-0xc8(%rbp)
      12:	48 89 b5 40 ff ff ff 	mov    %rsi,-0xc0(%rbp)
      19:	48 c7 c0 fe ff ff ff 	mov    $0xfffffffffffffffe,%rax
      20:	48 85 ff             	test   %rdi,%rdi
      23:	75 02                	jne    27 <inflateBack+0x27>
      25:	c9                   	leaveq 
      26:	c3                   	retq   
      27:	4c 8b 57 38          	mov    0x38(%rdi),%r10
      2b:	4c 89 95 70 ff ff ff 	mov    %r10,-0x90(%rbp)
      32:	4d 85 d2             	test   %r10,%r10
      35:	75 02                	jne    39 <inflateBack+0x39>
      37:	c9                   	leaveq 
      38:	c3                   	retq   
      39:	48 c7 47 30 00 00 00 	movq   $0x0,0x30(%rdi)
      40:	00 
      41:	41 c7 42 08 3f 3f 00 	movl   $0x3f3f,0x8(%r10)
      48:	00 
      49:	41 c7 42 0c 00 00 00 	movl   $0x0,0xc(%r10)
      50:	00 
      51:	41 c7 42 40 00 00 00 	movl   $0x0,0x40(%r10)
      58:	00 
      59:	48 8b 07             	mov    (%rdi),%rax
      5c:	48 89 85 28 ff ff ff 	mov    %rax,-0xd8(%rbp)
      63:	45 31 db             	xor    %r11d,%r11d
      66:	4c 89 5d d0          	mov    %r11,-0x30(%rbp)
      6a:	48 85 c0             	test   %rax,%rax
      6d:	75 05                	jne    74 <inflateBack+0x74>
      6f:	4c 89 d8             	mov    %r11,%rax
      72:	eb 03                	jmp    77 <inflateBack+0x77>
      74:	8b 47 08             	mov    0x8(%rdi),%eax
      77:	4d 8b 4a 48          	mov    0x48(%r10),%r9
      7b:	4c 89 85 60 ff ff ff 	mov    %r8,-0xa0(%rbp)
      82:	45 8b 42 3c          	mov    0x3c(%r10),%r8d
      86:	48 89 8d 68 ff ff ff 	mov    %rcx,-0x98(%rbp)
      8d:	48 8d 8d 28 ff ff ff 	lea    -0xd8(%rbp),%rcx
      94:	4c 89 7d d8          	mov    %r15,-0x28(%rbp)
      98:	41 bf 01 00 00 00    	mov    $0x1,%r15d
      9e:	4c 89 75 e0          	mov    %r14,-0x20(%rbp)
      a2:	4d 8d b2 58 05 00 00 	lea    0x558(%r10),%r14
      a9:	4c 89 75 88          	mov    %r14,-0x78(%rbp)
      ad:	4d 8d b2 98 00 00 00 	lea    0x98(%r10),%r14
      b4:	4c 89 75 80          	mov    %r14,-0x80(%rbp)
      b8:	4d 8d b2 90 00 00 00 	lea    0x90(%r10),%r14
      bf:	4c 89 75 a0          	mov    %r14,-0x60(%rbp)
      c3:	4d 8d 72 78          	lea    0x78(%r10),%r14
      c7:	4c 89 75 98          	mov    %r14,-0x68(%rbp)
      cb:	4d 8d b2 18 03 00 00 	lea    0x318(%r10),%r14
      d2:	4c 89 75 90          	mov    %r14,-0x70(%rbp)
      d6:	4d 8d 72 7c          	lea    0x7c(%r10),%r14
      da:	4c 89 75 b8          	mov    %r14,-0x48(%rbp)
      de:	48 89 5d f8          	mov    %rbx,-0x8(%rbp)
      e2:	4c 89 65 f0          	mov    %r12,-0x10(%rbp)
      e6:	4c 89 6d e8          	mov    %r13,-0x18(%rbp)
      ea:	49 89 cc             	mov    %rcx,%r12
      ed:	49 89 d5             	mov    %rdx,%r13
      f0:	49 89 f6             	mov    %rsi,%r14
      f3:	4c 89 f9             	mov    %r15,%rcx
      f6:	4d 89 df             	mov    %r11,%r15
      f9:	49 89 fb             	mov    %rdi,%r11
      fc:	48 89 cf             	mov    %rcx,%rdi
      ff:	4c 89 fb             	mov    %r15,%rbx
     102:	4c 89 85 58 ff ff ff 	mov    %r8,-0xa8(%rbp)
     109:	41 8b 4a 08          	mov    0x8(%r10),%ecx
     10d:	81 c1 c1 c0 ff ff    	add    $0xffffc0c1,%ecx
     113:	83 f9 12             	cmp    $0x12,%ecx
     116:	76 2e                	jbe    146 <inflateBack+0x146>
     118:	48 c7 c7 fe ff ff ff 	mov    $0xfffffffffffffffe,%rdi
     11f:	48 8b 8d 28 ff ff ff 	mov    -0xd8(%rbp),%rcx
     126:	49 89 0b             	mov    %rcx,(%r11)
     129:	41 89 43 08          	mov    %eax,0x8(%r11)
     12d:	48 89 f8             	mov    %rdi,%rax
     130:	4c 8b 6d e8          	mov    -0x18(%rbp),%r13
     134:	4c 8b 65 f0          	mov    -0x10(%rbp),%r12
     138:	48 8b 5d f8          	mov    -0x8(%rbp),%rbx
     13c:	4c 8b 75 e0          	mov    -0x20(%rbp),%r14
     140:	4c 8b 7d d8          	mov    -0x28(%rbp),%r15
     144:	c9                   	leaveq 
     145:	c3                   	retq   
     146:	48 8d 15 00 00 00 00 	lea    0x0(%rip),%rdx        # 14d <inflateBack+0x14d>
     14d:	48 63 0c 8a          	movslq (%rdx,%rcx,4),%rcx
     151:	48 01 d1             	add    %rdx,%rcx
     154:	ff e1                	jmpq   *%rcx
     156:	4c 89 9d 78 ff ff ff 	mov    %r11,-0x88(%rbp)
     15d:	83 f8 05             	cmp    $0x5,%eax
     160:	0f 87 a8 00 00 00    	ja     20e <inflateBack+0x20e>
     166:	4c 89 4d a8          	mov    %r9,-0x58(%rbp)
     16a:	e9 fd 00 00 00       	jmpq   26c <inflateBack+0x26c>
     16f:	41 8b 52 3c          	mov    0x3c(%r10),%edx
     173:	41 39 d0             	cmp    %edx,%r8d
     176:	73 a7                	jae    11f <inflateBack+0x11f>
     178:	44 29 c2             	sub    %r8d,%edx
     17b:	49 8b 72 48          	mov    0x48(%r10),%rsi
     17f:	48 89 fb             	mov    %rdi,%rbx
     182:	4d 89 dc             	mov    %r11,%r12
     185:	49 89 c5             	mov    %rax,%r13
     188:	48 8b 8d 68 ff ff ff 	mov    -0x98(%rbp),%rcx
     18f:	48 8b bd 60 ff ff ff 	mov    -0xa0(%rbp),%rdi
     196:	ff d1                	callq  *%rcx
     198:	85 c0                	test   %eax,%eax
     19a:	0f 85 1b 01 00 00    	jne    2bb <inflateBack+0x2bb>
     1a0:	4c 89 e8             	mov    %r13,%rax
     1a3:	48 89 df             	mov    %rbx,%rdi
     1a6:	4d 89 e3             	mov    %r12,%r11
     1a9:	e9 71 ff ff ff       	jmpq   11f <inflateBack+0x11f>
     1ae:	48 c7 c7 fd ff ff ff 	mov    $0xfffffffffffffffd,%rdi
     1b5:	e9 65 ff ff ff       	jmpq   11f <inflateBack+0x11f>
     1ba:	48 c7 c7 fe ff ff ff 	mov    $0xfffffffffffffffe,%rdi
     1c1:	e9 59 ff ff ff       	jmpq   11f <inflateBack+0x11f>
     1c6:	49 63 4a 0c          	movslq 0xc(%r10),%rcx
     1ca:	85 c9                	test   %ecx,%ecx
     1cc:	0f 85 fb 00 00 00    	jne    2cd <inflateBack+0x2cd>
     1d2:	4c 89 4d a8          	mov    %r9,-0x58(%rbp)
     1d6:	4c 89 5d b0          	mov    %r11,-0x50(%rbp)
     1da:	e9 33 01 00 00       	jmpq   312 <inflateBack+0x312>
     1df:	48 89 d9             	mov    %rbx,%rcx
     1e2:	83 e1 07             	and    $0x7,%ecx
     1e5:	49 d3 ef             	shr    %cl,%r15
     1e8:	83 e3 f8             	and    $0xfffffff8,%ebx
     1eb:	4c 89 8d 78 ff ff ff 	mov    %r9,-0x88(%rbp)
     1f2:	4c 89 5d b0          	mov    %r11,-0x50(%rbp)
     1f6:	e9 86 01 00 00       	jmpq   381 <inflateBack+0x381>
     1fb:	4c 89 8d 50 ff ff ff 	mov    %r9,-0xb0(%rbp)
     202:	4c 89 9d 78 ff ff ff 	mov    %r11,-0x88(%rbp)
     209:	e9 eb 01 00 00       	jmpq   3f9 <inflateBack+0x3f9>
     20e:	41 81 f8 01 01 00 00 	cmp    $0x101,%r8d
     215:	0f 87 51 02 00 00    	ja     46c <inflateBack+0x46c>
     21b:	4c 89 4d a8          	mov    %r9,-0x58(%rbp)
     21f:	eb 4b                	jmp    26c <inflateBack+0x26c>
     221:	85 c0                	test   %eax,%eax
     223:	75 23                	jne    248 <inflateBack+0x248>
     225:	4c 89 e6             	mov    %r12,%rsi
     228:	4d 89 d4             	mov    %r10,%r12
     22b:	4c 89 ef             	mov    %r13,%rdi
     22e:	41 ff d6             	callq  *%r14
     231:	85 c0                	test   %eax,%eax
     233:	0f 84 aa 02 00 00    	je     4e3 <inflateBack+0x4e3>
     239:	4d 89 e2             	mov    %r12,%r10
     23c:	bf 01 00 00 00       	mov    $0x1,%edi
     241:	4c 8d a5 28 ff ff ff 	lea    -0xd8(%rbp),%r12
     248:	48 8b 95 28 ff ff ff 	mov    -0xd8(%rbp),%rdx
     24f:	48 8d 4a 01          	lea    0x1(%rdx),%rcx
     253:	48 89 8d 28 ff ff ff 	mov    %rcx,-0xd8(%rbp)
     25a:	0f b6 12             	movzbl (%rdx),%edx
     25d:	48 89 d9             	mov    %rbx,%rcx
     260:	48 d3 e2             	shl    %cl,%rdx
     263:	49 01 d7             	add    %rdx,%r15
     266:	83 c0 ff             	add    $0xffffffff,%eax
     269:	8d 59 08             	lea    0x8(%rcx),%ebx
     26c:	41 8b 4a 78          	mov    0x78(%r10),%ecx
     270:	48 89 fa             	mov    %rdi,%rdx
     273:	d3 e2                	shl    %cl,%edx
     275:	8d 4a ff             	lea    -0x1(%rdx),%ecx
     278:	44 21 f9             	and    %r15d,%ecx
     27b:	89 c9                	mov    %ecx,%ecx
     27d:	49 8b 52 68          	mov    0x68(%r10),%rdx
     281:	8b 14 8a             	mov    (%rdx,%rcx,4),%edx
     284:	89 95 30 ff ff ff    	mov    %edx,-0xd0(%rbp)
     28a:	48 89 d1             	mov    %rdx,%rcx
     28d:	c1 e9 08             	shr    $0x8,%ecx
     290:	0f b6 c9             	movzbl %cl,%ecx
     293:	39 cb                	cmp    %ecx,%ebx
     295:	72 8a                	jb     221 <inflateBack+0x221>
     297:	84 d2                	test   %dl,%dl
     299:	0f 84 fc 02 00 00    	je     59b <inflateBack+0x59b>
     29f:	0f b6 ca             	movzbl %dl,%ecx
     2a2:	81 e1 f0 00 00 00    	and    $0xf0,%ecx
     2a8:	85 c9                	test   %ecx,%ecx
     2aa:	0f 85 eb 02 00 00    	jne    59b <inflateBack+0x59b>
     2b0:	89 95 34 ff ff ff    	mov    %edx,-0xcc(%rbp)
     2b6:	e9 93 02 00 00       	jmpq   54e <inflateBack+0x54e>
     2bb:	4c 89 e8             	mov    %r13,%rax
     2be:	4d 89 e3             	mov    %r12,%r11
     2c1:	48 c7 c7 fb ff ff ff 	mov    $0xfffffffffffffffb,%rdi
     2c8:	e9 52 fe ff ff       	jmpq   11f <inflateBack+0x11f>
     2cd:	48 89 d9             	mov    %rbx,%rcx
     2d0:	83 e1 07             	and    $0x7,%ecx
     2d3:	49 d3 ef             	shr    %cl,%r15
     2d6:	83 e3 f8             	and    $0xfffffff8,%ebx
     2d9:	41 c7 42 08 50 3f 00 	movl   $0x3f50,0x8(%r10)
     2e0:	00 
     2e1:	e9 1c fe ff ff       	jmpq   102 <inflateBack+0x102>
     2e6:	85 c0                	test   %eax,%eax
     2e8:	0f 84 03 03 00 00    	je     5f1 <inflateBack+0x5f1>
     2ee:	48 8b 95 28 ff ff ff 	mov    -0xd8(%rbp),%rdx
     2f5:	48 8d 4a 01          	lea    0x1(%rdx),%rcx
     2f9:	48 89 8d 28 ff ff ff 	mov    %rcx,-0xd8(%rbp)
     300:	0f b6 12             	movzbl (%rdx),%edx
     303:	48 89 d9             	mov    %rbx,%rcx
     306:	48 d3 e2             	shl    %cl,%rdx
     309:	49 01 d7             	add    %rdx,%r15
     30c:	83 c0 ff             	add    $0xffffffff,%eax
     30f:	8d 59 08             	lea    0x8(%rcx),%ebx
     312:	83 fb 02             	cmp    $0x2,%ebx
     315:	76 cf                	jbe    2e6 <inflateBack+0x2e6>
     317:	4c 89 f9             	mov    %r15,%rcx
     31a:	83 e1 01             	and    $0x1,%ecx
     31d:	4c 8b 95 70 ff ff ff 	mov    -0x90(%rbp),%r10
     324:	41 89 4a 0c          	mov    %ecx,0xc(%r10)
     328:	4c 89 f9             	mov    %r15,%rcx
     32b:	48 d1 e9             	shr    %rcx
     32e:	83 e1 03             	and    $0x3,%ecx
     331:	83 f9 01             	cmp    $0x1,%ecx
     334:	0f 86 e5 02 00 00    	jbe    61f <inflateBack+0x61f>
     33a:	83 f9 02             	cmp    $0x2,%ecx
     33d:	0f 84 ef 02 00 00    	je     632 <inflateBack+0x632>
     343:	83 f9 03             	cmp    $0x3,%ecx
     346:	0f 84 f4 02 00 00    	je     640 <inflateBack+0x640>
     34c:	4c 8b 5d b0          	mov    -0x50(%rbp),%r11
     350:	e9 10 03 00 00       	jmpq   665 <inflateBack+0x665>
     355:	85 c0                	test   %eax,%eax
     357:	0f 84 24 03 00 00    	je     681 <inflateBack+0x681>
     35d:	48 8b 95 28 ff ff ff 	mov    -0xd8(%rbp),%rdx
     364:	48 8d 4a 01          	lea    0x1(%rdx),%rcx
     368:	48 89 8d 28 ff ff ff 	mov    %rcx,-0xd8(%rbp)
     36f:	83 c0 ff             	add    $0xffffffff,%eax
     372:	0f b6 12             	movzbl (%rdx),%edx
     375:	48 89 d9             	mov    %rbx,%rcx
     378:	48 d3 e2             	shl    %cl,%rdx
     37b:	49 01 d7             	add    %rdx,%r15
     37e:	8d 59 08             	lea    0x8(%rcx),%ebx
     381:	83 fb 18             	cmp    $0x18,%ebx
     384:	76 cf                	jbe    355 <inflateBack+0x355>
     386:	4c 89 f9             	mov    %r15,%rcx
     389:	48 c1 e9 10          	shr    $0x10,%rcx
     38d:	48 81 f1 ff ff 00 00 	xor    $0xffff,%rcx
     394:	41 0f b7 d7          	movzwl %r15w,%edx
     398:	48 39 d1             	cmp    %rdx,%rcx
     39b:	0f 85 0e 03 00 00    	jne    6af <inflateBack+0x6af>
     3a1:	41 0f b7 df          	movzwl %r15w,%ebx
     3a5:	4c 8b bd 58 ff ff ff 	mov    -0xa8(%rbp),%r15
     3ac:	4c 8b 8d 78 ff ff ff 	mov    -0x88(%rbp),%r9
     3b3:	4c 8b 95 70 ff ff ff 	mov    -0x90(%rbp),%r10
     3ba:	48 8b 8d 68 ff ff ff 	mov    -0x98(%rbp),%rcx
     3c1:	48 8b bd 60 ff ff ff 	mov    -0xa0(%rbp),%rdi
     3c8:	e9 8b 03 00 00       	jmpq   758 <inflateBack+0x758>
     3cd:	85 c0                	test   %eax,%eax
     3cf:	0f 84 ad 03 00 00    	je     782 <inflateBack+0x782>
     3d5:	48 8b 95 28 ff ff ff 	mov    -0xd8(%rbp),%rdx
     3dc:	48 8d 4a 01          	lea    0x1(%rdx),%rcx
     3e0:	48 89 8d 28 ff ff ff 	mov    %rcx,-0xd8(%rbp)
     3e7:	0f b6 12             	movzbl (%rdx),%edx
     3ea:	48 89 d9             	mov    %rbx,%rcx
     3ed:	48 d3 e2             	shl    %cl,%rdx
     3f0:	49 01 d7             	add    %rdx,%r15
     3f3:	83 c0 ff             	add    $0xffffffff,%eax
     3f6:	8d 59 08             	lea    0x8(%rcx),%ebx
     3f9:	83 fb 0d             	cmp    $0xd,%ebx
     3fc:	76 cf                	jbe    3cd <inflateBack+0x3cd>
     3fe:	4c 89 f9             	mov    %r15,%rcx
     401:	83 e1 1f             	and    $0x1f,%ecx
     404:	8d b1 01 01 00 00    	lea    0x101(%rcx),%esi
     40a:	4c 8b 95 70 ff ff ff 	mov    -0x90(%rbp),%r10
     411:	41 89 b2 84 00 00 00 	mov    %esi,0x84(%r10)
     418:	4c 89 f9             	mov    %r15,%rcx
     41b:	48 c1 e9 05          	shr    $0x5,%rcx
     41f:	83 e1 1f             	and    $0x1f,%ecx
     422:	8d 51 01             	lea    0x1(%rcx),%edx
     425:	41 89 92 88 00 00 00 	mov    %edx,0x88(%r10)
     42c:	4c 89 f9             	mov    %r15,%rcx
     42f:	48 c1 e9 0a          	shr    $0xa,%rcx
     433:	83 e1 0f             	and    $0xf,%ecx
     436:	83 c1 04             	add    $0x4,%ecx
     439:	41 89 8a 80 00 00 00 	mov    %ecx,0x80(%r10)
     440:	49 c1 ef 0e          	shr    $0xe,%r15
     444:	83 c3 f2             	add    $0xfffffff2,%ebx
     447:	81 fe 1e 01 00 00    	cmp    $0x11e,%esi
     44d:	0f 87 60 03 00 00    	ja     7b3 <inflateBack+0x7b3>
     453:	83 fa 1e             	cmp    $0x1e,%edx
     456:	0f 87 57 03 00 00    	ja     7b3 <inflateBack+0x7b3>
     45c:	41 c7 82 8c 00 00 00 	movl   $0x0,0x8c(%r10)
     463:	00 00 00 00 
     467:	e9 f1 03 00 00       	jmpq   85d <inflateBack+0x85d>
     46c:	4d 89 4b 18          	mov    %r9,0x18(%r11)
     470:	45 89 43 20          	mov    %r8d,0x20(%r11)
     474:	48 8b 8d 28 ff ff ff 	mov    -0xd8(%rbp),%rcx
     47b:	49 89 0b             	mov    %rcx,(%r11)
     47e:	41 89 43 08          	mov    %eax,0x8(%r11)
     482:	4d 89 7a 50          	mov    %r15,0x50(%r10)
     486:	41 89 5a 58          	mov    %ebx,0x58(%r10)
     48a:	41 8b 42 3c          	mov    0x3c(%r10),%eax
     48e:	41 3b 42 40          	cmp    0x40(%r10),%eax
     492:	76 07                	jbe    49b <inflateBack+0x49b>
     494:	44 29 c0             	sub    %r8d,%eax
     497:	41 89 42 40          	mov    %eax,0x40(%r10)
     49b:	4c 89 db             	mov    %r11,%rbx
     49e:	49 89 fc             	mov    %rdi,%r12
     4a1:	4d 89 d7             	mov    %r10,%r15
     4a4:	41 8b 77 3c          	mov    0x3c(%r15),%esi
     4a8:	48 89 df             	mov    %rbx,%rdi
     4ab:	e8 00 00 00 00       	callq  4b0 <inflateBack+0x4b0>
     4b0:	4c 8b 4b 18          	mov    0x18(%rbx),%r9
     4b4:	44 8b 43 20          	mov    0x20(%rbx),%r8d
     4b8:	48 8b 03             	mov    (%rbx),%rax
     4bb:	48 89 85 28 ff ff ff 	mov    %rax,-0xd8(%rbp)
     4c2:	4c 89 e7             	mov    %r12,%rdi
     4c5:	4d 89 fa             	mov    %r15,%r10
     4c8:	49 89 db             	mov    %rbx,%r11
     4cb:	41 8b 43 08          	mov    0x8(%r11),%eax
     4cf:	4d 8b 7a 50          	mov    0x50(%r10),%r15
     4d3:	41 8b 5a 58          	mov    0x58(%r10),%ebx
     4d7:	4c 8d a5 28 ff ff ff 	lea    -0xd8(%rbp),%r12
     4de:	e9 1f fc ff ff       	jmpq   102 <inflateBack+0x102>
     4e3:	48 c7 85 28 ff ff ff 	movq   $0x0,-0xd8(%rbp)
     4ea:	00 00 00 00 
     4ee:	4c 8b 9d 78 ff ff ff 	mov    -0x88(%rbp),%r11
     4f5:	31 c0                	xor    %eax,%eax
     4f7:	48 c7 c7 fb ff ff ff 	mov    $0xfffffffffffffffb,%rdi
     4fe:	e9 1c fc ff ff       	jmpq   11f <inflateBack+0x11f>
     503:	85 c0                	test   %eax,%eax
     505:	75 23                	jne    52a <inflateBack+0x52a>
     507:	4c 89 e6             	mov    %r12,%rsi
     50a:	4d 89 d4             	mov    %r10,%r12
     50d:	4c 89 ef             	mov    %r13,%rdi
     510:	41 ff d6             	callq  *%r14
     513:	85 c0                	test   %eax,%eax
     515:	0f 84 65 03 00 00    	je     880 <inflateBack+0x880>
     51b:	4d 89 e2             	mov    %r12,%r10
     51e:	bf 01 00 00 00       	mov    $0x1,%edi
     523:	4c 8d a5 28 ff ff ff 	lea    -0xd8(%rbp),%r12
     52a:	48 8b 95 28 ff ff ff 	mov    -0xd8(%rbp),%rdx
     531:	48 8d 4a 01          	lea    0x1(%rdx),%rcx
     535:	48 89 8d 28 ff ff ff 	mov    %rcx,-0xd8(%rbp)
     53c:	0f b6 12             	movzbl (%rdx),%edx
     53f:	48 89 d9             	mov    %rbx,%rcx
     542:	48 d3 e2             	shl    %cl,%rdx
     545:	49 01 d7             	add    %rdx,%r15
     548:	83 c0 ff             	add    $0xffffffff,%eax
     54b:	8d 59 08             	lea    0x8(%rcx),%ebx
     54e:	0f b6 b5 35 ff ff ff 	movzbl -0xcb(%rbp),%esi
     555:	0f b6 8d 34 ff ff ff 	movzbl -0xcc(%rbp),%ecx
     55c:	01 f1                	add    %esi,%ecx
     55e:	48 89 fa             	mov    %rdi,%rdx
     561:	d3 e2                	shl    %cl,%edx
     563:	83 c2 ff             	add    $0xffffffff,%edx
     566:	44 21 fa             	and    %r15d,%edx
     569:	48 89 f1             	mov    %rsi,%rcx
     56c:	d3 ea                	shr    %cl,%edx
     56e:	0f b7 b5 36 ff ff ff 	movzwl -0xca(%rbp),%esi
     575:	01 f2                	add    %esi,%edx
     577:	89 d2                	mov    %edx,%edx
     579:	49 8b 72 68          	mov    0x68(%r10),%rsi
     57d:	8b 14 96             	mov    (%rsi,%rdx,4),%edx
     580:	89 95 30 ff ff ff    	mov    %edx,-0xd0(%rbp)
     586:	c1 ea 08             	shr    $0x8,%edx
     589:	0f b6 d2             	movzbl %dl,%edx
     58c:	01 ca                	add    %ecx,%edx
     58e:	39 da                	cmp    %ebx,%edx
     590:	0f 87 6d ff ff ff    	ja     503 <inflateBack+0x503>
     596:	49 d3 ef             	shr    %cl,%r15
     599:	29 cb                	sub    %ecx,%ebx
     59b:	0f b7 8d 32 ff ff ff 	movzwl -0xce(%rbp),%ecx
     5a2:	41 89 4a 5c          	mov    %ecx,0x5c(%r10)
     5a6:	0f b6 8d 31 ff ff ff 	movzbl -0xcf(%rbp),%ecx
     5ad:	49 d3 ef             	shr    %cl,%r15
     5b0:	29 cb                	sub    %ecx,%ebx
     5b2:	0f b6 8d 30 ff ff ff 	movzbl -0xd0(%rbp),%ecx
     5b9:	84 c9                	test   %cl,%cl
     5bb:	0f 84 df 02 00 00    	je     8a0 <inflateBack+0x8a0>
     5c1:	48 89 ca             	mov    %rcx,%rdx
     5c4:	83 e2 20             	and    $0x20,%edx
     5c7:	85 d2                	test   %edx,%edx
     5c9:	0f 8f 08 03 00 00    	jg     8d7 <inflateBack+0x8d7>
     5cf:	48 89 ca             	mov    %rcx,%rdx
     5d2:	83 e2 40             	and    $0x40,%edx
     5d5:	85 d2                	test   %edx,%edx
     5d7:	0f 8f 19 03 00 00    	jg     8f6 <inflateBack+0x8f6>
     5dd:	83 e1 0f             	and    $0xf,%ecx
     5e0:	41 89 4a 64          	mov    %ecx,0x64(%r10)
     5e4:	85 c9                	test   %ecx,%ecx
     5e6:	0f 85 5b 04 00 00    	jne    a47 <inflateBack+0xa47>
     5ec:	e9 7a 03 00 00       	jmpq   96b <inflateBack+0x96b>
     5f1:	4c 89 ef             	mov    %r13,%rdi
     5f4:	4c 89 e6             	mov    %r12,%rsi
     5f7:	41 ff d6             	callq  *%r14
     5fa:	85 c0                	test   %eax,%eax
     5fc:	0f 85 ec fc ff ff    	jne    2ee <inflateBack+0x2ee>
     602:	48 c7 85 28 ff ff ff 	movq   $0x0,-0xd8(%rbp)
     609:	00 00 00 00 
     60d:	4c 8b 5d b0          	mov    -0x50(%rbp),%r11
     611:	31 c0                	xor    %eax,%eax
     613:	48 c7 c7 fb ff ff ff 	mov    $0xfffffffffffffffb,%rdi
     61a:	e9 00 fb ff ff       	jmpq   11f <inflateBack+0x11f>
     61f:	85 c9                	test   %ecx,%ecx
     621:	74 36                	je     659 <inflateBack+0x659>
     623:	83 f9 01             	cmp    $0x1,%ecx
     626:	0f 84 4b 04 00 00    	je     a77 <inflateBack+0xa77>
     62c:	4c 8b 5d b0          	mov    -0x50(%rbp),%r11
     630:	eb 33                	jmp    665 <inflateBack+0x665>
     632:	41 c7 42 08 44 3f 00 	movl   $0x3f44,0x8(%r10)
     639:	00 
     63a:	4c 8b 5d b0          	mov    -0x50(%rbp),%r11
     63e:	eb 25                	jmp    665 <inflateBack+0x665>
     640:	4c 8b 5d b0          	mov    -0x50(%rbp),%r11
     644:	48 8d 0d 00 00 00 00 	lea    0x0(%rip),%rcx        # 64b <inflateBack+0x64b>
     64b:	49 89 4b 30          	mov    %rcx,0x30(%r11)
     64f:	41 c7 42 08 51 3f 00 	movl   $0x3f51,0x8(%r10)
     656:	00 
     657:	eb 0c                	jmp    665 <inflateBack+0x665>
     659:	41 c7 42 08 41 3f 00 	movl   $0x3f41,0x8(%r10)
     660:	00 
     661:	4c 8b 5d b0          	mov    -0x50(%rbp),%r11
     665:	49 c1 ef 03          	shr    $0x3,%r15
     669:	83 c3 fd             	add    $0xfffffffd,%ebx
     66c:	4c 8b 85 58 ff ff ff 	mov    -0xa8(%rbp),%r8
     673:	bf 01 00 00 00       	mov    $0x1,%edi
     678:	4c 8b 4d a8          	mov    -0x58(%rbp),%r9
     67c:	e9 81 fa ff ff       	jmpq   102 <inflateBack+0x102>
     681:	4c 89 ef             	mov    %r13,%rdi
     684:	4c 89 e6             	mov    %r12,%rsi
     687:	41 ff d6             	callq  *%r14
     68a:	85 c0                	test   %eax,%eax
     68c:	0f 85 cb fc ff ff    	jne    35d <inflateBack+0x35d>
     692:	48 c7 85 28 ff ff ff 	movq   $0x0,-0xd8(%rbp)
     699:	00 00 00 00 
     69d:	4c 8b 5d b0          	mov    -0x50(%rbp),%r11
     6a1:	31 c0                	xor    %eax,%eax
     6a3:	48 c7 c7 fb ff ff ff 	mov    $0xfffffffffffffffb,%rdi
     6aa:	e9 70 fa ff ff       	jmpq   11f <inflateBack+0x11f>
     6af:	4c 8b 5d b0          	mov    -0x50(%rbp),%r11
     6b3:	48 8d 0d 00 00 00 00 	lea    0x0(%rip),%rcx        # 6ba <inflateBack+0x6ba>
     6ba:	49 89 4b 30          	mov    %rcx,0x30(%r11)
     6be:	4c 8b 95 70 ff ff ff 	mov    -0x90(%rbp),%r10
     6c5:	41 c7 42 08 51 3f 00 	movl   $0x3f51,0x8(%r10)
     6cc:	00 
     6cd:	4c 8b 85 58 ff ff ff 	mov    -0xa8(%rbp),%r8
     6d4:	bf 01 00 00 00       	mov    $0x1,%edi
     6d9:	4c 8b 8d 78 ff ff ff 	mov    -0x88(%rbp),%r9
     6e0:	e9 1d fa ff ff       	jmpq   102 <inflateBack+0x102>
     6e5:	4d 89 fc             	mov    %r15,%r12
     6e8:	4c 89 cf             	mov    %r9,%rdi
     6eb:	4c 89 d3             	mov    %r10,%rbx
     6ee:	49 89 c6             	mov    %rax,%r14
     6f1:	45 89 e5             	mov    %r12d,%r13d
     6f4:	48 8b b5 28 ff ff ff 	mov    -0xd8(%rbp),%rsi
     6fb:	4c 89 ea             	mov    %r13,%rdx
     6fe:	e8 00 00 00 00       	callq  703 <inflateBack+0x703>
     703:	4c 89 e8             	mov    %r13,%rax
     706:	48 03 85 28 ff ff ff 	add    -0xd8(%rbp),%rax
     70d:	48 89 85 28 ff ff ff 	mov    %rax,-0xd8(%rbp)
     714:	8b 53 5c             	mov    0x5c(%rbx),%edx
     717:	44 29 e2             	sub    %r12d,%edx
     71a:	4c 89 f0             	mov    %r14,%rax
     71d:	44 29 e0             	sub    %r12d,%eax
     720:	45 29 e7             	sub    %r12d,%r15d
     723:	48 8b 8d 48 ff ff ff 	mov    -0xb8(%rbp),%rcx
     72a:	4d 8d 4c 0d 00       	lea    0x0(%r13,%rcx,1),%r9
     72f:	49 89 da             	mov    %rbx,%r10
     732:	48 89 d3             	mov    %rdx,%rbx
     735:	4c 8b b5 40 ff ff ff 	mov    -0xc0(%rbp),%r14
     73c:	4c 8b ad 38 ff ff ff 	mov    -0xc8(%rbp),%r13
     743:	4c 8d a5 28 ff ff ff 	lea    -0xd8(%rbp),%r12
     74a:	48 8b 8d 68 ff ff ff 	mov    -0x98(%rbp),%rcx
     751:	48 8b bd 60 ff ff ff 	mov    -0xa0(%rbp),%rdi
     758:	41 89 5a 5c          	mov    %ebx,0x5c(%r10)
     75c:	85 db                	test   %ebx,%ebx
     75e:	0f 85 46 03 00 00    	jne    aaa <inflateBack+0xaaa>
     764:	41 c7 42 08 3f 3f 00 	movl   $0x3f3f,0x8(%r10)
     76b:	00 
     76c:	4d 89 f8             	mov    %r15,%r8
     76f:	4c 8b 5d b0          	mov    -0x50(%rbp),%r11
     773:	bf 01 00 00 00       	mov    $0x1,%edi
     778:	31 db                	xor    %ebx,%ebx
     77a:	49 89 df             	mov    %rbx,%r15
     77d:	e9 80 f9 ff ff       	jmpq   102 <inflateBack+0x102>
     782:	4c 89 ef             	mov    %r13,%rdi
     785:	4c 89 e6             	mov    %r12,%rsi
     788:	41 ff d6             	callq  *%r14
     78b:	85 c0                	test   %eax,%eax
     78d:	0f 85 42 fc ff ff    	jne    3d5 <inflateBack+0x3d5>
     793:	48 c7 85 28 ff ff ff 	movq   $0x0,-0xd8(%rbp)
     79a:	00 00 00 00 
     79e:	4c 8b 9d 78 ff ff ff 	mov    -0x88(%rbp),%r11
     7a5:	31 c0                	xor    %eax,%eax
     7a7:	48 c7 c7 fb ff ff ff 	mov    $0xfffffffffffffffb,%rdi
     7ae:	e9 6c f9 ff ff       	jmpq   11f <inflateBack+0x11f>
     7b3:	4c 8b 9d 78 ff ff ff 	mov    -0x88(%rbp),%r11
     7ba:	48 8d 0d 00 00 00 00 	lea    0x0(%rip),%rcx        # 7c1 <inflateBack+0x7c1>
     7c1:	49 89 4b 30          	mov    %rcx,0x30(%r11)
     7c5:	41 c7 42 08 51 3f 00 	movl   $0x3f51,0x8(%r10)
     7cc:	00 
     7cd:	4c 8b 85 58 ff ff ff 	mov    -0xa8(%rbp),%r8
     7d4:	bf 01 00 00 00       	mov    $0x1,%edi
     7d9:	4c 8b 8d 50 ff ff ff 	mov    -0xb0(%rbp),%r9
     7e0:	e9 1d f9 ff ff       	jmpq   102 <inflateBack+0x102>
     7e5:	85 c0                	test   %eax,%eax
     7e7:	75 11                	jne    7fa <inflateBack+0x7fa>
     7e9:	4c 89 ef             	mov    %r13,%rdi
     7ec:	4c 89 e6             	mov    %r12,%rsi
     7ef:	41 ff d6             	callq  *%r14
     7f2:	85 c0                	test   %eax,%eax
     7f4:	0f 84 07 03 00 00    	je     b01 <inflateBack+0xb01>
     7fa:	48 8b 95 28 ff ff ff 	mov    -0xd8(%rbp),%rdx
     801:	48 8d 4a 01          	lea    0x1(%rdx),%rcx
     805:	48 89 8d 28 ff ff ff 	mov    %rcx,-0xd8(%rbp)
     80c:	0f b6 12             	movzbl (%rdx),%edx
     80f:	48 89 d9             	mov    %rbx,%rcx
     812:	48 d3 e2             	shl    %cl,%rdx
     815:	49 01 d7             	add    %rdx,%r15
     818:	83 c0 ff             	add    $0xffffffff,%eax
     81b:	8d 59 08             	lea    0x8(%rcx),%ebx
     81e:	83 fb 02             	cmp    $0x2,%ebx
     821:	76 c2                	jbe    7e5 <inflateBack+0x7e5>
     823:	4c 8b 95 70 ff ff ff 	mov    -0x90(%rbp),%r10
     82a:	41 8b 92 8c 00 00 00 	mov    0x8c(%r10),%edx
     831:	8d 4a 01             	lea    0x1(%rdx),%ecx
     834:	41 89 8a 8c 00 00 00 	mov    %ecx,0x8c(%r10)
     83b:	48 8d 0d 00 00 00 00 	lea    0x0(%rip),%rcx        # 842 <inflateBack+0x842>
     842:	0f b7 0c 51          	movzwl (%rcx,%rdx,2),%ecx
     846:	4c 89 fa             	mov    %r15,%rdx
     849:	66 83 e2 07          	and    $0x7,%dx
     84d:	66 41 89 94 4a 98 00 	mov    %dx,0x98(%r10,%rcx,2)
     854:	00 00 
     856:	49 c1 ef 03          	shr    $0x3,%r15
     85a:	83 c3 fd             	add    $0xfffffffd,%ebx
     85d:	41 8b 8a 80 00 00 00 	mov    0x80(%r10),%ecx
     864:	41 3b 8a 8c 00 00 00 	cmp    0x8c(%r10),%ecx
     86b:	77 b1                	ja     81e <inflateBack+0x81e>
     86d:	4c 8b a5 58 ff ff ff 	mov    -0xa8(%rbp),%r12
     874:	48 8d 35 00 00 00 00 	lea    0x0(%rip),%rsi        # 87b <inflateBack+0x87b>
     87b:	e9 ba 02 00 00       	jmpq   b3a <inflateBack+0xb3a>
     880:	48 c7 85 28 ff ff ff 	movq   $0x0,-0xd8(%rbp)
     887:	00 00 00 00 
     88b:	4c 8b 9d 78 ff ff ff 	mov    -0x88(%rbp),%r11
     892:	31 c0                	xor    %eax,%eax
     894:	48 c7 c7 fb ff ff ff 	mov    $0xfffffffffffffffb,%rdi
     89b:	e9 7f f8 ff ff       	jmpq   11f <inflateBack+0x11f>
     8a0:	48 8b 95 58 ff ff ff 	mov    -0xa8(%rbp),%rdx
     8a7:	85 d2                	test   %edx,%edx
     8a9:	0f 84 08 03 00 00    	je     bb7 <inflateBack+0xbb7>
     8af:	48 8b 4d a8          	mov    -0x58(%rbp),%rcx
     8b3:	41 0f b6 72 5c       	movzbl 0x5c(%r10),%esi
     8b8:	40 88 31             	mov    %sil,(%rcx)
     8bb:	41 c7 42 08 48 3f 00 	movl   $0x3f48,0x8(%r10)
     8c2:	00 
     8c3:	44 8d 42 ff          	lea    -0x1(%rdx),%r8d
     8c7:	4c 8d 49 01          	lea    0x1(%rcx),%r9
     8cb:	4c 8b 9d 78 ff ff ff 	mov    -0x88(%rbp),%r11
     8d2:	e9 2b f8 ff ff       	jmpq   102 <inflateBack+0x102>
     8d7:	41 c7 42 08 3f 3f 00 	movl   $0x3f3f,0x8(%r10)
     8de:	00 
     8df:	4c 8b 85 58 ff ff ff 	mov    -0xa8(%rbp),%r8
     8e6:	4c 8b 9d 78 ff ff ff 	mov    -0x88(%rbp),%r11
     8ed:	4c 8b 4d a8          	mov    -0x58(%rbp),%r9
     8f1:	e9 0c f8 ff ff       	jmpq   102 <inflateBack+0x102>
     8f6:	4c 8b 9d 78 ff ff ff 	mov    -0x88(%rbp),%r11
     8fd:	48 8d 0d 00 00 00 00 	lea    0x0(%rip),%rcx        # 904 <inflateBack+0x904>
     904:	49 89 4b 30          	mov    %rcx,0x30(%r11)
     908:	41 c7 42 08 51 3f 00 	movl   $0x3f51,0x8(%r10)
     90f:	00 
     910:	4c 8b 85 58 ff ff ff 	mov    -0xa8(%rbp),%r8
     917:	4c 8b 4d a8          	mov    -0x58(%rbp),%r9
     91b:	e9 e2 f7 ff ff       	jmpq   102 <inflateBack+0x102>
     920:	85 c0                	test   %eax,%eax
     922:	75 23                	jne    947 <inflateBack+0x947>
     924:	4c 89 e6             	mov    %r12,%rsi
     927:	4d 89 d4             	mov    %r10,%r12
     92a:	4c 89 ef             	mov    %r13,%rdi
     92d:	41 ff d6             	callq  *%r14
     930:	85 c0                	test   %eax,%eax
     932:	0f 84 e8 02 00 00    	je     c20 <inflateBack+0xc20>
     938:	4d 89 e2             	mov    %r12,%r10
     93b:	bf 01 00 00 00       	mov    $0x1,%edi
     940:	4c 8d a5 28 ff ff ff 	lea    -0xd8(%rbp),%r12
     947:	48 8b 95 28 ff ff ff 	mov    -0xd8(%rbp),%rdx
     94e:	48 8d 4a 01          	lea    0x1(%rdx),%rcx
     952:	48 89 8d 28 ff ff ff 	mov    %rcx,-0xd8(%rbp)
     959:	0f b6 12             	movzbl (%rdx),%edx
     95c:	48 89 d9             	mov    %rbx,%rcx
     95f:	48 d3 e2             	shl    %cl,%rdx
     962:	49 01 d7             	add    %rdx,%r15
     965:	83 c0 ff             	add    $0xffffffff,%eax
     968:	8d 59 08             	lea    0x8(%rcx),%ebx
     96b:	41 8b 4a 7c          	mov    0x7c(%r10),%ecx
     96f:	48 89 fa             	mov    %rdi,%rdx
     972:	d3 e2                	shl    %cl,%edx
     974:	8d 4a ff             	lea    -0x1(%rdx),%ecx
     977:	44 21 f9             	and    %r15d,%ecx
     97a:	89 c9                	mov    %ecx,%ecx
     97c:	49 8b 52 70          	mov    0x70(%r10),%rdx
     980:	8b 14 8a             	mov    (%rdx,%rcx,4),%edx
     983:	89 95 30 ff ff ff    	mov    %edx,-0xd0(%rbp)
     989:	48 89 d1             	mov    %rdx,%rcx
     98c:	c1 e9 08             	shr    $0x8,%ecx
     98f:	0f b6 c9             	movzbl %cl,%ecx
     992:	39 cb                	cmp    %ecx,%ebx
     994:	72 8a                	jb     920 <inflateBack+0x920>
     996:	0f b6 ca             	movzbl %dl,%ecx
     999:	81 e1 f0 00 00 00    	and    $0xf0,%ecx
     99f:	85 c9                	test   %ecx,%ecx
     9a1:	0f 84 99 02 00 00    	je     c40 <inflateBack+0xc40>
     9a7:	0f b6 8d 31 ff ff ff 	movzbl -0xcf(%rbp),%ecx
     9ae:	49 d3 ef             	shr    %cl,%r15
     9b1:	29 cb                	sub    %ecx,%ebx
     9b3:	0f b6 8d 30 ff ff ff 	movzbl -0xd0(%rbp),%ecx
     9ba:	48 89 ca             	mov    %rcx,%rdx
     9bd:	83 e2 40             	and    $0x40,%edx
     9c0:	85 d2                	test   %edx,%edx
     9c2:	0f 8f 83 02 00 00    	jg     c4b <inflateBack+0xc4b>
     9c8:	0f b7 95 32 ff ff ff 	movzwl -0xce(%rbp),%edx
     9cf:	41 89 52 60          	mov    %edx,0x60(%r10)
     9d3:	83 e1 0f             	and    $0xf,%ecx
     9d6:	41 89 4a 64          	mov    %ecx,0x64(%r10)
     9da:	85 c9                	test   %ecx,%ecx
     9dc:	0f 85 bf 02 00 00    	jne    ca1 <inflateBack+0xca1>
     9e2:	41 8b 52 60          	mov    0x60(%r10),%edx
     9e6:	41 8b 4a 3c          	mov    0x3c(%r10),%ecx
     9ea:	41 8b 72 40          	mov    0x40(%r10),%esi
     9ee:	39 ce                	cmp    %ecx,%esi
     9f0:	0f 82 da 02 00 00    	jb     cd0 <inflateBack+0xcd0>
     9f6:	ff 75 d0             	pushq  -0x30(%rbp)
     9f9:	8f 45 c8             	popq   -0x38(%rbp)
     9fc:	e9 d8 02 00 00       	jmpq   cd9 <inflateBack+0xcd9>
     a01:	85 c0                	test   %eax,%eax
     a03:	75 1e                	jne    a23 <inflateBack+0xa23>
     a05:	4c 89 e6             	mov    %r12,%rsi
     a08:	4d 89 d4             	mov    %r10,%r12
     a0b:	4c 89 ef             	mov    %r13,%rdi
     a0e:	41 ff d6             	callq  *%r14
     a11:	85 c0                	test   %eax,%eax
     a13:	0f 84 26 03 00 00    	je     d3f <inflateBack+0xd3f>
     a19:	4d 89 e2             	mov    %r12,%r10
     a1c:	4c 8d a5 28 ff ff ff 	lea    -0xd8(%rbp),%r12
     a23:	48 8b 95 28 ff ff ff 	mov    -0xd8(%rbp),%rdx
     a2a:	48 8d 4a 01          	lea    0x1(%rdx),%rcx
     a2e:	48 89 8d 28 ff ff ff 	mov    %rcx,-0xd8(%rbp)
     a35:	0f b6 12             	movzbl (%rdx),%edx
     a38:	48 89 d9             	mov    %rbx,%rcx
     a3b:	48 d3 e2             	shl    %cl,%rdx
     a3e:	49 01 d7             	add    %rdx,%r15
     a41:	83 c0 ff             	add    $0xffffffff,%eax
     a44:	8d 59 08             	lea    0x8(%rcx),%ebx
     a47:	41 8b 4a 64          	mov    0x64(%r10),%ecx
     a4b:	39 d9                	cmp    %ebx,%ecx
     a4d:	77 b2                	ja     a01 <inflateBack+0xa01>
     a4f:	4c 89 fa             	mov    %r15,%rdx
     a52:	48 d3 ea             	shr    %cl,%rdx
     a55:	29 cb                	sub    %ecx,%ebx
     a57:	bf 01 00 00 00       	mov    $0x1,%edi
     a5c:	48 89 fe             	mov    %rdi,%rsi
     a5f:	d3 e6                	shl    %cl,%esi
     a61:	8d 4e ff             	lea    -0x1(%rsi),%ecx
     a64:	44 21 f9             	and    %r15d,%ecx
     a67:	41 03 4a 5c          	add    0x5c(%r10),%ecx
     a6b:	41 89 4a 5c          	mov    %ecx,0x5c(%r10)
     a6f:	49 89 d7             	mov    %rdx,%r15
     a72:	e9 f4 fe ff ff       	jmpq   96b <inflateBack+0x96b>
     a77:	49 89 c4             	mov    %rax,%r12
     a7a:	4d 89 d6             	mov    %r10,%r14
     a7d:	4c 89 f7             	mov    %r14,%rdi
     a80:	e8 2b 0c 00 00       	callq  16b0 <fixedtables>
     a85:	4c 89 e0             	mov    %r12,%rax
     a88:	4d 89 f2             	mov    %r14,%r10
     a8b:	41 c7 42 08 48 3f 00 	movl   $0x3f48,0x8(%r10)
     a92:	00 
     a93:	4c 8b 5d b0          	mov    -0x50(%rbp),%r11
     a97:	4c 8b b5 40 ff ff ff 	mov    -0xc0(%rbp),%r14
     a9e:	4c 8d a5 28 ff ff ff 	lea    -0xd8(%rbp),%r12
     aa5:	e9 bb fb ff ff       	jmpq   665 <inflateBack+0x665>
     aaa:	85 c0                	test   %eax,%eax
     aac:	0f 84 ad 02 00 00    	je     d5f <inflateBack+0xd5f>
     ab2:	45 85 ff             	test   %r15d,%r15d
     ab5:	75 2b                	jne    ae2 <inflateBack+0xae2>
     ab7:	4d 89 d5             	mov    %r10,%r13
     aba:	49 89 c6             	mov    %rax,%r14
     abd:	45 8b 7d 3c          	mov    0x3c(%r13),%r15d
     ac1:	45 89 7d 40          	mov    %r15d,0x40(%r13)
     ac5:	4d 8b 65 48          	mov    0x48(%r13),%r12
     ac9:	4c 89 e6             	mov    %r12,%rsi
     acc:	4c 89 fa             	mov    %r15,%rdx
     acf:	ff d1                	callq  *%rcx
     ad1:	85 c0                	test   %eax,%eax
     ad3:	0f 85 b7 02 00 00    	jne    d90 <inflateBack+0xd90>
     ad9:	4c 89 f0             	mov    %r14,%rax
     adc:	4d 89 e1             	mov    %r12,%r9
     adf:	4d 89 ea             	mov    %r13,%r10
     ae2:	4c 89 8d 48 ff ff ff 	mov    %r9,-0xb8(%rbp)
     ae9:	39 c3                	cmp    %eax,%ebx
     aeb:	76 03                	jbe    af0 <inflateBack+0xaf0>
     aed:	48 89 c3             	mov    %rax,%rbx
     af0:	44 39 fb             	cmp    %r15d,%ebx
     af3:	0f 87 ec fb ff ff    	ja     6e5 <inflateBack+0x6e5>
     af9:	49 89 dc             	mov    %rbx,%r12
     afc:	e9 e7 fb ff ff       	jmpq   6e8 <inflateBack+0x6e8>
     b01:	48 c7 85 28 ff ff ff 	movq   $0x0,-0xd8(%rbp)
     b08:	00 00 00 00 
     b0c:	4c 8b 9d 78 ff ff ff 	mov    -0x88(%rbp),%r11
     b13:	31 c0                	xor    %eax,%eax
     b15:	48 c7 c7 fb ff ff ff 	mov    $0xfffffffffffffffb,%rdi
     b1c:	e9 fe f5 ff ff       	jmpq   11f <inflateBack+0x11f>
     b21:	8d 4a 01             	lea    0x1(%rdx),%ecx
     b24:	41 89 8a 8c 00 00 00 	mov    %ecx,0x8c(%r10)
     b2b:	0f b7 0c 56          	movzwl (%rsi,%rdx,2),%ecx
     b2f:	66 41 c7 84 4a 98 00 	movw   $0x0,0x98(%r10,%rcx,2)
     b36:	00 00 00 00 
     b3a:	41 8b 92 8c 00 00 00 	mov    0x8c(%r10),%edx
     b41:	83 fa 12             	cmp    $0x12,%edx
     b44:	76 db                	jbe    b21 <inflateBack+0xb21>
     b46:	48 8b 4d 88          	mov    -0x78(%rbp),%rcx
     b4a:	49 89 8a 90 00 00 00 	mov    %rcx,0x90(%r10)
     b51:	49 89 4a 68          	mov    %rcx,0x68(%r10)
     b55:	49 89 c5             	mov    %rax,%r13
     b58:	4d 89 d6             	mov    %r10,%r14
     b5b:	41 c7 46 78 07 00 00 	movl   $0x7,0x78(%r14)
     b62:	00 
     b63:	31 ff                	xor    %edi,%edi
     b65:	48 8b 75 80          	mov    -0x80(%rbp),%rsi
     b69:	ba 13 00 00 00       	mov    $0x13,%edx
     b6e:	48 8b 4d a0          	mov    -0x60(%rbp),%rcx
     b72:	4c 8b 45 98          	mov    -0x68(%rbp),%r8
     b76:	4c 8b 4d 90          	mov    -0x70(%rbp),%r9
     b7a:	e8 00 00 00 00       	callq  b7f <inflateBack+0xb7f>
     b7f:	85 c0                	test   %eax,%eax
     b81:	0f 85 1c 02 00 00    	jne    da3 <inflateBack+0xda3>
     b87:	4c 89 e8             	mov    %r13,%rax
     b8a:	4d 89 f2             	mov    %r14,%r10
     b8d:	41 c7 82 8c 00 00 00 	movl   $0x0,0x8c(%r10)
     b94:	00 00 00 00 
     b98:	bf 01 00 00 00       	mov    $0x1,%edi
     b9d:	4c 8b b5 40 ff ff ff 	mov    -0xc0(%rbp),%r14
     ba4:	4c 8b ad 38 ff ff ff 	mov    -0xc8(%rbp),%r13
     bab:	4c 8d a5 28 ff ff ff 	lea    -0xd8(%rbp),%r12
     bb2:	e9 54 02 00 00       	jmpq   e0b <inflateBack+0xe0b>
     bb7:	45 8b 6a 3c          	mov    0x3c(%r10),%r13d
     bbb:	45 89 6a 40          	mov    %r13d,0x40(%r10)
     bbf:	4d 8b 62 48          	mov    0x48(%r10),%r12
     bc3:	48 8b bd 60 ff ff ff 	mov    -0xa0(%rbp),%rdi
     bca:	4c 89 e6             	mov    %r12,%rsi
     bcd:	4c 89 ea             	mov    %r13,%rdx
     bd0:	48 89 9d 58 ff ff ff 	mov    %rbx,-0xa8(%rbp)
     bd7:	4c 89 d3             	mov    %r10,%rbx
     bda:	49 89 c6             	mov    %rax,%r14
     bdd:	48 8b 8d 68 ff ff ff 	mov    -0x98(%rbp),%rcx
     be4:	ff d1                	callq  *%rcx
     be6:	85 c0                	test   %eax,%eax
     be8:	0f 85 62 02 00 00    	jne    e50 <inflateBack+0xe50>
     bee:	4c 89 f0             	mov    %r14,%rax
     bf1:	4c 89 e1             	mov    %r12,%rcx
     bf4:	4c 89 ea             	mov    %r13,%rdx
     bf7:	49 89 da             	mov    %rbx,%r10
     bfa:	48 8b 9d 58 ff ff ff 	mov    -0xa8(%rbp),%rbx
     c01:	bf 01 00 00 00       	mov    $0x1,%edi
     c06:	4c 8b b5 40 ff ff ff 	mov    -0xc0(%rbp),%r14
     c0d:	4c 8b ad 38 ff ff ff 	mov    -0xc8(%rbp),%r13
     c14:	4c 8d a5 28 ff ff ff 	lea    -0xd8(%rbp),%r12
     c1b:	e9 93 fc ff ff       	jmpq   8b3 <inflateBack+0x8b3>
     c20:	48 c7 85 28 ff ff ff 	movq   $0x0,-0xd8(%rbp)
     c27:	00 00 00 00 
     c2b:	4c 8b 9d 78 ff ff ff 	mov    -0x88(%rbp),%r11
     c32:	31 c0                	xor    %eax,%eax
     c34:	48 c7 c7 fb ff ff ff 	mov    $0xfffffffffffffffb,%rdi
     c3b:	e9 df f4 ff ff       	jmpq   11f <inflateBack+0x11f>
     c40:	89 95 34 ff ff ff    	mov    %edx,-0xcc(%rbp)
     c46:	e9 47 02 00 00       	jmpq   e92 <inflateBack+0xe92>
     c4b:	4c 8b 9d 78 ff ff ff 	mov    -0x88(%rbp),%r11
     c52:	48 8d 0d 00 00 00 00 	lea    0x0(%rip),%rcx        # c59 <inflateBack+0xc59>
     c59:	49 89 4b 30          	mov    %rcx,0x30(%r11)
     c5d:	41 c7 42 08 51 3f 00 	movl   $0x3f51,0x8(%r10)
     c64:	00 
     c65:	4c 8b 85 58 ff ff ff 	mov    -0xa8(%rbp),%r8
     c6c:	4c 8b 4d a8          	mov    -0x58(%rbp),%r9
     c70:	e9 8d f4 ff ff       	jmpq   102 <inflateBack+0x102>
     c75:	85 c0                	test   %eax,%eax
     c77:	0f 84 63 02 00 00    	je     ee0 <inflateBack+0xee0>
     c7d:	48 8b 95 28 ff ff ff 	mov    -0xd8(%rbp),%rdx
     c84:	48 8d 4a 01          	lea    0x1(%rdx),%rcx
     c88:	48 89 8d 28 ff ff ff 	mov    %rcx,-0xd8(%rbp)
     c8f:	0f b6 12             	movzbl (%rdx),%edx
     c92:	48 89 d9             	mov    %rbx,%rcx
     c95:	48 d3 e2             	shl    %cl,%rdx
     c98:	49 01 d7             	add    %rdx,%r15
     c9b:	83 c0 ff             	add    $0xffffffff,%eax
     c9e:	8d 59 08             	lea    0x8(%rcx),%ebx
     ca1:	41 8b 4a 64          	mov    0x64(%r10),%ecx
     ca5:	39 d9                	cmp    %ebx,%ecx
     ca7:	77 cc                	ja     c75 <inflateBack+0xc75>
     ca9:	4c 89 fa             	mov    %r15,%rdx
     cac:	49 89 d7             	mov    %rdx,%r15
     caf:	49 d3 ef             	shr    %cl,%r15
     cb2:	29 cb                	sub    %ecx,%ebx
     cb4:	bf 01 00 00 00       	mov    $0x1,%edi
     cb9:	48 89 fe             	mov    %rdi,%rsi
     cbc:	d3 e6                	shl    %cl,%esi
     cbe:	8d 4e ff             	lea    -0x1(%rsi),%ecx
     cc1:	21 d1                	and    %edx,%ecx
     cc3:	41 03 4a 60          	add    0x60(%r10),%ecx
     cc7:	41 89 4a 60          	mov    %ecx,0x60(%r10)
     ccb:	e9 12 fd ff ff       	jmpq   9e2 <inflateBack+0x9e2>
     cd0:	ff b5 58 ff ff ff    	pushq  -0xa8(%rbp)
     cd6:	8f 45 c8             	popq   -0x38(%rbp)
     cd9:	48 8b 75 c8          	mov    -0x38(%rbp),%rsi
     cdd:	29 f1                	sub    %esi,%ecx
     cdf:	39 d1                	cmp    %edx,%ecx
     ce1:	0f 82 1c 02 00 00    	jb     f03 <inflateBack+0xf03>
     ce7:	48 89 85 50 ff ff ff 	mov    %rax,-0xb0(%rbp)
     cee:	4c 89 bd 48 ff ff ff 	mov    %r15,-0xb8(%rbp)
     cf5:	48 89 5d c0          	mov    %rbx,-0x40(%rbp)
     cf9:	4c 8b 85 58 ff ff ff 	mov    -0xa8(%rbp),%r8
     d00:	4c 8b 4d a8          	mov    -0x58(%rbp),%r9
     d04:	4c 8b a5 68 ff ff ff 	mov    -0x98(%rbp),%r12
     d0b:	4c 8b ad 60 ff ff ff 	mov    -0xa0(%rbp),%r13
     d12:	45 85 c0             	test   %r8d,%r8d
     d15:	0f 84 12 02 00 00    	je     f2d <inflateBack+0xf2d>
     d1b:	41 8b 4a 3c          	mov    0x3c(%r10),%ecx
     d1f:	41 8b 42 60          	mov    0x60(%r10),%eax
     d23:	48 89 ca             	mov    %rcx,%rdx
     d26:	29 c2                	sub    %eax,%edx
     d28:	41 39 d0             	cmp    %edx,%r8d
     d2b:	0f 87 2d 02 00 00    	ja     f5e <inflateBack+0xf5e>
     d31:	4c 89 c9             	mov    %r9,%rcx
     d34:	48 29 c1             	sub    %rax,%rcx
     d37:	4c 89 c6             	mov    %r8,%rsi
     d3a:	e9 2b 02 00 00       	jmpq   f6a <inflateBack+0xf6a>
     d3f:	48 c7 85 28 ff ff ff 	movq   $0x0,-0xd8(%rbp)
     d46:	00 00 00 00 
     d4a:	4c 8b 9d 78 ff ff ff 	mov    -0x88(%rbp),%r11
     d51:	31 c0                	xor    %eax,%eax
     d53:	48 c7 c7 fb ff ff ff 	mov    $0xfffffffffffffffb,%rdi
     d5a:	e9 c0 f3 ff ff       	jmpq   11f <inflateBack+0x11f>
     d5f:	4c 89 f0             	mov    %r14,%rax
     d62:	4d 89 ce             	mov    %r9,%r14
     d65:	4c 89 e6             	mov    %r12,%rsi
     d68:	49 89 fc             	mov    %rdi,%r12
     d6b:	4c 89 ef             	mov    %r13,%rdi
     d6e:	4d 89 d5             	mov    %r10,%r13
     d71:	ff d0                	callq  *%rax
     d73:	85 c0                	test   %eax,%eax
     d75:	0f 84 1a 02 00 00    	je     f95 <inflateBack+0xf95>
     d7b:	4c 89 e7             	mov    %r12,%rdi
     d7e:	4d 89 f1             	mov    %r14,%r9
     d81:	4d 89 ea             	mov    %r13,%r10
     d84:	48 8b 8d 68 ff ff ff 	mov    -0x98(%rbp),%rcx
     d8b:	e9 22 fd ff ff       	jmpq   ab2 <inflateBack+0xab2>
     d90:	4c 89 f0             	mov    %r14,%rax
     d93:	4c 8b 5d b0          	mov    -0x50(%rbp),%r11
     d97:	48 c7 c7 fb ff ff ff 	mov    $0xfffffffffffffffb,%rdi
     d9e:	e9 7c f3 ff ff       	jmpq   11f <inflateBack+0x11f>
     da3:	4c 8b 9d 78 ff ff ff 	mov    -0x88(%rbp),%r11
     daa:	48 8d 05 00 00 00 00 	lea    0x0(%rip),%rax        # db1 <inflateBack+0xdb1>
     db1:	49 89 43 30          	mov    %rax,0x30(%r11)
     db5:	4c 89 e8             	mov    %r13,%rax
     db8:	4d 89 e0             	mov    %r12,%r8
     dbb:	4d 89 f2             	mov    %r14,%r10
     dbe:	41 c7 42 08 51 3f 00 	movl   $0x3f51,0x8(%r10)
     dc5:	00 
     dc6:	bf 01 00 00 00       	mov    $0x1,%edi
     dcb:	4c 8b b5 40 ff ff ff 	mov    -0xc0(%rbp),%r14
     dd2:	4c 8b ad 38 ff ff ff 	mov    -0xc8(%rbp),%r13
     dd9:	4c 8b 8d 50 ff ff ff 	mov    -0xb0(%rbp),%r9
     de0:	4c 8d a5 28 ff ff ff 	lea    -0xd8(%rbp),%r12
     de7:	e9 16 f3 ff ff       	jmpq   102 <inflateBack+0x102>
     dec:	41 8b b2 8c 00 00 00 	mov    0x8c(%r10),%esi
     df3:	44 8d 46 01          	lea    0x1(%rsi),%r8d
     df7:	45 89 82 8c 00 00 00 	mov    %r8d,0x8c(%r10)
     dfe:	49 d3 ef             	shr    %cl,%r15
     e01:	29 cb                	sub    %ecx,%ebx
     e03:	48 8b 4d 80          	mov    -0x80(%rbp),%rcx
     e07:	66 89 14 71          	mov    %dx,(%rcx,%rsi,2)
     e0b:	41 8b 8a 88 00 00 00 	mov    0x88(%r10),%ecx
     e12:	41 03 8a 84 00 00 00 	add    0x84(%r10),%ecx
     e19:	41 3b 8a 8c 00 00 00 	cmp    0x8c(%r10),%ecx
     e20:	0f 87 b8 01 00 00    	ja     fde <inflateBack+0xfde>
     e26:	4c 8b 9d 78 ff ff ff 	mov    -0x88(%rbp),%r11
     e2d:	41 8b 4a 08          	mov    0x8(%r10),%ecx
     e31:	81 f9 51 3f 00 00    	cmp    $0x3f51,%ecx
     e37:	0f 85 f2 01 00 00    	jne    102f <inflateBack+0x102f>
     e3d:	4c 8b 85 58 ff ff ff 	mov    -0xa8(%rbp),%r8
     e44:	4c 8b 8d 50 ff ff ff 	mov    -0xb0(%rbp),%r9
     e4b:	e9 b2 f2 ff ff       	jmpq   102 <inflateBack+0x102>
     e50:	4c 89 f0             	mov    %r14,%rax
     e53:	4c 8b 9d 78 ff ff ff 	mov    -0x88(%rbp),%r11
     e5a:	48 c7 c7 fb ff ff ff 	mov    $0xfffffffffffffffb,%rdi
     e61:	e9 b9 f2 ff ff       	jmpq   11f <inflateBack+0x11f>
     e66:	85 c0                	test   %eax,%eax
     e68:	0f 84 a0 02 00 00    	je     110e <inflateBack+0x110e>
     e6e:	48 8b 95 28 ff ff ff 	mov    -0xd8(%rbp),%rdx
     e75:	48 8d 4a 01          	lea    0x1(%rdx),%rcx
     e79:	48 89 8d 28 ff ff ff 	mov    %rcx,-0xd8(%rbp)
     e80:	0f b6 12             	movzbl (%rdx),%edx
     e83:	48 89 d9             	mov    %rbx,%rcx
     e86:	48 d3 e2             	shl    %cl,%rdx
     e89:	49 01 d7             	add    %rdx,%r15
     e8c:	83 c0 ff             	add    $0xffffffff,%eax
     e8f:	8d 59 08             	lea    0x8(%rcx),%ebx
     e92:	0f b6 b5 35 ff ff ff 	movzbl -0xcb(%rbp),%esi
     e99:	0f b6 8d 34 ff ff ff 	movzbl -0xcc(%rbp),%ecx
     ea0:	01 f1                	add    %esi,%ecx
     ea2:	48 89 fa             	mov    %rdi,%rdx
     ea5:	d3 e2                	shl    %cl,%edx
     ea7:	83 c2 ff             	add    $0xffffffff,%edx
     eaa:	44 21 fa             	and    %r15d,%edx
     ead:	48 89 f1             	mov    %rsi,%rcx
     eb0:	d3 ea                	shr    %cl,%edx
     eb2:	0f b7 b5 36 ff ff ff 	movzwl -0xca(%rbp),%esi
     eb9:	01 f2                	add    %esi,%edx
     ebb:	89 d2                	mov    %edx,%edx
     ebd:	49 8b 72 70          	mov    0x70(%r10),%rsi
     ec1:	8b 14 96             	mov    (%rsi,%rdx,4),%edx
     ec4:	89 95 30 ff ff ff    	mov    %edx,-0xd0(%rbp)
     eca:	c1 ea 08             	shr    $0x8,%edx
     ecd:	0f b6 d2             	movzbl %dl,%edx
     ed0:	01 ca                	add    %ecx,%edx
     ed2:	39 da                	cmp    %ebx,%edx
     ed4:	77 90                	ja     e66 <inflateBack+0xe66>
     ed6:	49 d3 ef             	shr    %cl,%r15
     ed9:	29 cb                	sub    %ecx,%ebx
     edb:	e9 c7 fa ff ff       	jmpq   9a7 <inflateBack+0x9a7>
     ee0:	4c 89 e6             	mov    %r12,%rsi
     ee3:	4d 89 d4             	mov    %r10,%r12
     ee6:	4c 89 ef             	mov    %r13,%rdi
     ee9:	41 ff d6             	callq  *%r14
     eec:	85 c0                	test   %eax,%eax
     eee:	0f 84 42 02 00 00    	je     1136 <inflateBack+0x1136>
     ef4:	4d 89 e2             	mov    %r12,%r10
     ef7:	4c 8d a5 28 ff ff ff 	lea    -0xd8(%rbp),%r12
     efe:	e9 7a fd ff ff       	jmpq   c7d <inflateBack+0xc7d>
     f03:	48 8d 0d 00 00 00 00 	lea    0x0(%rip),%rcx        # f0a <inflateBack+0xf0a>
     f0a:	4c 8b 9d 78 ff ff ff 	mov    -0x88(%rbp),%r11
     f11:	49 89 4b 30          	mov    %rcx,0x30(%r11)
     f15:	41 c7 42 08 51 3f 00 	movl   $0x3f51,0x8(%r10)
     f1c:	00 
     f1d:	4c 8b 85 58 ff ff ff 	mov    -0xa8(%rbp),%r8
     f24:	4c 8b 4d a8          	mov    -0x58(%rbp),%r9
     f28:	e9 d5 f1 ff ff       	jmpq   102 <inflateBack+0x102>
     f2d:	4d 89 d7             	mov    %r10,%r15
     f30:	41 8b 5f 3c          	mov    0x3c(%r15),%ebx
     f34:	41 89 5f 40          	mov    %ebx,0x40(%r15)
     f38:	4d 8b 77 48          	mov    0x48(%r15),%r14
     f3c:	4c 89 ef             	mov    %r13,%rdi
     f3f:	4c 89 f6             	mov    %r14,%rsi
     f42:	48 89 da             	mov    %rbx,%rdx
     f45:	41 ff d4             	callq  *%r12
     f48:	85 c0                	test   %eax,%eax
     f4a:	0f 85 06 02 00 00    	jne    1156 <inflateBack+0x1156>
     f50:	49 89 d8             	mov    %rbx,%r8
     f53:	4d 89 f1             	mov    %r14,%r9
     f56:	4d 89 fa             	mov    %r15,%r10
     f59:	e9 bd fd ff ff       	jmpq   d1b <inflateBack+0xd1b>
     f5e:	29 c8                	sub    %ecx,%eax
     f60:	41 8d 34 00          	lea    (%r8,%rax,1),%esi
     f64:	89 d0                	mov    %edx,%eax
     f66:	49 8d 0c 01          	lea    (%r9,%rax,1),%rcx
     f6a:	41 8b 42 5c          	mov    0x5c(%r10),%eax
     f6e:	39 f0                	cmp    %esi,%eax
     f70:	73 03                	jae    f75 <inflateBack+0xf75>
     f72:	48 89 c6             	mov    %rax,%rsi
     f75:	29 f0                	sub    %esi,%eax
     f77:	41 89 42 5c          	mov    %eax,0x5c(%r10)
     f7b:	48 8b 5d c0          	mov    -0x40(%rbp),%rbx
     f7f:	4c 8b bd 48 ff ff ff 	mov    -0xb8(%rbp),%r15
     f86:	48 8b 85 50 ff ff ff 	mov    -0xb0(%rbp),%rax
     f8d:	48 89 f2             	mov    %rsi,%rdx
     f90:	e9 df 01 00 00       	jmpq   1174 <inflateBack+0x1174>
     f95:	48 c7 85 28 ff ff ff 	movq   $0x0,-0xd8(%rbp)
     f9c:	00 00 00 00 
     fa0:	4c 8b 5d b0          	mov    -0x50(%rbp),%r11
     fa4:	31 c0                	xor    %eax,%eax
     fa6:	48 c7 c7 fb ff ff ff 	mov    $0xfffffffffffffffb,%rdi
     fad:	e9 6d f1 ff ff       	jmpq   11f <inflateBack+0x11f>
     fb2:	85 c0                	test   %eax,%eax
     fb4:	0f 84 00 02 00 00    	je     11ba <inflateBack+0x11ba>
     fba:	48 8b 95 28 ff ff ff 	mov    -0xd8(%rbp),%rdx
     fc1:	48 8d 4a 01          	lea    0x1(%rdx),%rcx
     fc5:	48 89 8d 28 ff ff ff 	mov    %rcx,-0xd8(%rbp)
     fcc:	0f b6 12             	movzbl (%rdx),%edx
     fcf:	48 89 d9             	mov    %rbx,%rcx
     fd2:	48 d3 e2             	shl    %cl,%rdx
     fd5:	49 01 d7             	add    %rdx,%r15
     fd8:	83 c0 ff             	add    $0xffffffff,%eax
     fdb:	8d 59 08             	lea    0x8(%rcx),%ebx
     fde:	41 8b 4a 78          	mov    0x78(%r10),%ecx
     fe2:	48 89 fa             	mov    %rdi,%rdx
     fe5:	d3 e2                	shl    %cl,%edx
     fe7:	8d 4a ff             	lea    -0x1(%rdx),%ecx
     fea:	44 21 f9             	and    %r15d,%ecx
     fed:	89 c9                	mov    %ecx,%ecx
     fef:	49 8b 52 68          	mov    0x68(%r10),%rdx
     ff3:	8b 14 8a             	mov    (%rdx,%rcx,4),%edx
     ff6:	89 95 30 ff ff ff    	mov    %edx,-0xd0(%rbp)
     ffc:	48 89 d1             	mov    %rdx,%rcx
     fff:	c1 e9 08             	shr    $0x8,%ecx
    1002:	0f b6 c9             	movzbl %cl,%ecx
    1005:	39 d9                	cmp    %ebx,%ecx
    1007:	77 a9                	ja     fb2 <inflateBack+0xfb2>
    1009:	c1 ea 10             	shr    $0x10,%edx
    100c:	66 83 fa 0f          	cmp    $0xf,%dx
    1010:	0f 86 d6 fd ff ff    	jbe    dec <inflateBack+0xdec>
    1016:	66 83 fa 10          	cmp    $0x10,%dx
    101a:	0f 84 ee 01 00 00    	je     120e <inflateBack+0x120e>
    1020:	66 83 fa 11          	cmp    $0x11,%dx
    1024:	0f 84 02 03 00 00    	je     132c <inflateBack+0x132c>
    102a:	e9 9b 02 00 00       	jmpq   12ca <inflateBack+0x12ca>
    102f:	41 0f b7 8a 98 02 00 	movzwl 0x298(%r10),%ecx
    1036:	00 
    1037:	66 85 c9             	test   %cx,%cx
    103a:	0f 84 22 03 00 00    	je     1362 <inflateBack+0x1362>
    1040:	4c 8b 65 a0          	mov    -0x60(%rbp),%r12
    1044:	48 8b 4d 88          	mov    -0x78(%rbp),%rcx
    1048:	49 89 0c 24          	mov    %rcx,(%r12)
    104c:	49 89 4a 68          	mov    %rcx,0x68(%r10)
    1050:	4c 8b 45 98          	mov    -0x68(%rbp),%r8
    1054:	41 c7 00 09 00 00 00 	movl   $0x9,(%r8)
    105b:	41 8b 92 84 00 00 00 	mov    0x84(%r10),%edx
    1062:	48 8b 75 80          	mov    -0x80(%rbp),%rsi
    1066:	4c 89 e1             	mov    %r12,%rcx
    1069:	4c 8b 4d 90          	mov    -0x70(%rbp),%r9
    106d:	48 89 5d c0          	mov    %rbx,-0x40(%rbp)
    1071:	4c 89 e3             	mov    %r12,%rbx
    1074:	4d 89 dc             	mov    %r11,%r12
    1077:	49 89 c5             	mov    %rax,%r13
    107a:	4d 89 d6             	mov    %r10,%r14
    107d:	e8 00 00 00 00       	callq  1082 <inflateBack+0x1082>
    1082:	85 c0                	test   %eax,%eax
    1084:	0f 85 fe 02 00 00    	jne    1388 <inflateBack+0x1388>
    108a:	48 8b 03             	mov    (%rbx),%rax
    108d:	49 89 46 70          	mov    %rax,0x70(%r14)
    1091:	41 c7 46 7c 06 00 00 	movl   $0x6,0x7c(%r14)
    1098:	00 
    1099:	41 8b 86 84 00 00 00 	mov    0x84(%r14),%eax
    10a0:	49 8d b4 46 98 00 00 	lea    0x98(%r14,%rax,2),%rsi
    10a7:	00 
    10a8:	41 8b 96 88 00 00 00 	mov    0x88(%r14),%edx
    10af:	bf 02 00 00 00       	mov    $0x2,%edi
    10b4:	48 89 d9             	mov    %rbx,%rcx
    10b7:	4c 8b 45 b8          	mov    -0x48(%rbp),%r8
    10bb:	4c 8b 4d 90          	mov    -0x70(%rbp),%r9
    10bf:	e8 00 00 00 00       	callq  10c4 <inflateBack+0x10c4>
    10c4:	85 c0                	test   %eax,%eax
    10c6:	0f 85 0a 03 00 00    	jne    13d6 <inflateBack+0x13d6>
    10cc:	4c 89 e8             	mov    %r13,%rax
    10cf:	4d 89 f2             	mov    %r14,%r10
    10d2:	4d 89 e3             	mov    %r12,%r11
    10d5:	41 c7 42 08 48 3f 00 	movl   $0x3f48,0x8(%r10)
    10dc:	00 
    10dd:	4c 8b 85 58 ff ff ff 	mov    -0xa8(%rbp),%r8
    10e4:	48 8b 5d c0          	mov    -0x40(%rbp),%rbx
    10e8:	bf 01 00 00 00       	mov    $0x1,%edi
    10ed:	4c 8b b5 40 ff ff ff 	mov    -0xc0(%rbp),%r14
    10f4:	4c 8b ad 38 ff ff ff 	mov    -0xc8(%rbp),%r13
    10fb:	4c 8b 8d 50 ff ff ff 	mov    -0xb0(%rbp),%r9
    1102:	4c 8d a5 28 ff ff ff 	lea    -0xd8(%rbp),%r12
    1109:	e9 4f f0 ff ff       	jmpq   15d <inflateBack+0x15d>
    110e:	4c 89 e6             	mov    %r12,%rsi
    1111:	4d 89 d4             	mov    %r10,%r12
    1114:	4c 89 ef             	mov    %r13,%rdi
    1117:	41 ff d6             	callq  *%r14
    111a:	85 c0                	test   %eax,%eax
    111c:	0f 84 02 03 00 00    	je     1424 <inflateBack+0x1424>
    1122:	4d 89 e2             	mov    %r12,%r10
    1125:	bf 01 00 00 00       	mov    $0x1,%edi
    112a:	4c 8d a5 28 ff ff ff 	lea    -0xd8(%rbp),%r12
    1131:	e9 38 fd ff ff       	jmpq   e6e <inflateBack+0xe6e>
    1136:	48 c7 85 28 ff ff ff 	movq   $0x0,-0xd8(%rbp)
    113d:	00 00 00 00 
    1141:	4c 8b 9d 78 ff ff ff 	mov    -0x88(%rbp),%r11
    1148:	31 c0                	xor    %eax,%eax
    114a:	48 c7 c7 fb ff ff ff 	mov    $0xfffffffffffffffb,%rdi
    1151:	e9 c9 ef ff ff       	jmpq   11f <inflateBack+0x11f>
    1156:	48 8b 85 50 ff ff ff 	mov    -0xb0(%rbp),%rax
    115d:	4c 8b 9d 78 ff ff ff 	mov    -0x88(%rbp),%r11
    1164:	48 c7 c7 fb ff ff ff 	mov    $0xfffffffffffffffb,%rdi
    116b:	e9 af ef ff ff       	jmpq   11f <inflateBack+0x11f>
    1170:	48 83 c1 01          	add    $0x1,%rcx
    1174:	0f b6 39             	movzbl (%rcx),%edi
    1177:	41 88 39             	mov    %dil,(%r9)
    117a:	49 83 c1 01          	add    $0x1,%r9
    117e:	83 c2 ff             	add    $0xffffffff,%edx
    1181:	85 d2                	test   %edx,%edx
    1183:	75 eb                	jne    1170 <inflateBack+0x1170>
    1185:	41 29 f0             	sub    %esi,%r8d
    1188:	41 8b 4a 5c          	mov    0x5c(%r10),%ecx
    118c:	85 c9                	test   %ecx,%ecx
    118e:	0f 85 7e fb ff ff    	jne    d12 <inflateBack+0xd12>
    1194:	4c 8b 9d 78 ff ff ff 	mov    -0x88(%rbp),%r11
    119b:	bf 01 00 00 00       	mov    $0x1,%edi
    11a0:	4c 8b b5 40 ff ff ff 	mov    -0xc0(%rbp),%r14
    11a7:	4c 8b ad 38 ff ff ff 	mov    -0xc8(%rbp),%r13
    11ae:	4c 8d a5 28 ff ff ff 	lea    -0xd8(%rbp),%r12
    11b5:	e9 48 ef ff ff       	jmpq   102 <inflateBack+0x102>
    11ba:	4c 89 e6             	mov    %r12,%rsi
    11bd:	4d 89 d4             	mov    %r10,%r12
    11c0:	4c 89 ef             	mov    %r13,%rdi
    11c3:	41 ff d6             	callq  *%r14
    11c6:	85 c0                	test   %eax,%eax
    11c8:	0f 84 76 02 00 00    	je     1444 <inflateBack+0x1444>
    11ce:	4d 89 e2             	mov    %r12,%r10
    11d1:	bf 01 00 00 00       	mov    $0x1,%edi
    11d6:	4c 8d a5 28 ff ff ff 	lea    -0xd8(%rbp),%r12
    11dd:	e9 d8 fd ff ff       	jmpq   fba <inflateBack+0xfba>
    11e2:	85 c0                	test   %eax,%eax
    11e4:	0f 84 7a 02 00 00    	je     1464 <inflateBack+0x1464>
    11ea:	48 89 d9             	mov    %rbx,%rcx
    11ed:	48 8b b5 28 ff ff ff 	mov    -0xd8(%rbp),%rsi
    11f4:	48 8d 56 01          	lea    0x1(%rsi),%rdx
    11f8:	48 89 95 28 ff ff ff 	mov    %rdx,-0xd8(%rbp)
    11ff:	83 c0 ff             	add    $0xffffffff,%eax
    1202:	8d 59 08             	lea    0x8(%rcx),%ebx
    1205:	0f b6 16             	movzbl (%rsi),%edx
    1208:	48 d3 e2             	shl    %cl,%rdx
    120b:	49 01 d7             	add    %rdx,%r15
    120e:	0f b6 8d 31 ff ff ff 	movzbl -0xcf(%rbp),%ecx
    1215:	8d 51 02             	lea    0x2(%rcx),%edx
    1218:	39 da                	cmp    %ebx,%edx
    121a:	77 c6                	ja     11e2 <inflateBack+0x11e2>
    121c:	49 d3 ef             	shr    %cl,%r15
    121f:	29 cb                	sub    %ecx,%ebx
    1221:	4c 8b 95 70 ff ff ff 	mov    -0x90(%rbp),%r10
    1228:	41 8b 8a 8c 00 00 00 	mov    0x8c(%r10),%ecx
    122f:	85 c9                	test   %ecx,%ecx
    1231:	0f 84 46 02 00 00    	je     147d <inflateBack+0x147d>
    1237:	83 c1 ff             	add    $0xffffffff,%ecx
    123a:	89 c9                	mov    %ecx,%ecx
    123c:	41 0f b7 b4 4a 98 00 	movzwl 0x98(%r10,%rcx,2),%esi
    1243:	00 00 
    1245:	4c 89 f9             	mov    %r15,%rcx
    1248:	48 c1 e9 02          	shr    $0x2,%rcx
    124c:	41 83 e7 03          	and    $0x3,%r15d
    1250:	41 8d 57 03          	lea    0x3(%r15),%edx
    1254:	83 c3 fe             	add    $0xfffffffe,%ebx
    1257:	49 89 cf             	mov    %rcx,%r15
    125a:	41 8b 8a 88 00 00 00 	mov    0x88(%r10),%ecx
    1261:	41 03 8a 84 00 00 00 	add    0x84(%r10),%ecx
    1268:	48 89 d7             	mov    %rdx,%rdi
    126b:	41 03 ba 8c 00 00 00 	add    0x8c(%r10),%edi
    1272:	39 f9                	cmp    %edi,%ecx
    1274:	0f 83 44 02 00 00    	jae    14be <inflateBack+0x14be>
    127a:	4c 8b 9d 78 ff ff ff 	mov    -0x88(%rbp),%r11
    1281:	48 8d 0d 00 00 00 00 	lea    0x0(%rip),%rcx        # 1288 <inflateBack+0x1288>
    1288:	49 89 4b 30          	mov    %rcx,0x30(%r11)
    128c:	41 c7 42 08 51 3f 00 	movl   $0x3f51,0x8(%r10)
    1293:	00 
    1294:	bf 01 00 00 00       	mov    $0x1,%edi
    1299:	e9 8f fb ff ff       	jmpq   e2d <inflateBack+0xe2d>
    129e:	85 c0                	test   %eax,%eax
    12a0:	0f 84 26 02 00 00    	je     14cc <inflateBack+0x14cc>
    12a6:	48 89 d9             	mov    %rbx,%rcx
    12a9:	48 8b b5 28 ff ff ff 	mov    -0xd8(%rbp),%rsi
    12b0:	48 8d 56 01          	lea    0x1(%rsi),%rdx
    12b4:	48 89 95 28 ff ff ff 	mov    %rdx,-0xd8(%rbp)
    12bb:	83 c0 ff             	add    $0xffffffff,%eax
    12be:	8d 59 08             	lea    0x8(%rcx),%ebx
    12c1:	0f b6 16             	movzbl (%rsi),%edx
    12c4:	48 d3 e2             	shl    %cl,%rdx
    12c7:	49 01 d7             	add    %rdx,%r15
    12ca:	0f b6 8d 31 ff ff ff 	movzbl -0xcf(%rbp),%ecx
    12d1:	8d 51 07             	lea    0x7(%rcx),%edx
    12d4:	39 da                	cmp    %ebx,%edx
    12d6:	77 c6                	ja     129e <inflateBack+0x129e>
    12d8:	49 d3 ef             	shr    %cl,%r15
    12db:	4c 89 ff             	mov    %r15,%rdi
    12de:	48 c1 ef 07          	shr    $0x7,%rdi
    12e2:	41 83 e7 7f          	and    $0x7f,%r15d
    12e6:	41 8d 57 0b          	lea    0xb(%r15),%edx
    12ea:	29 cb                	sub    %ecx,%ebx
    12ec:	83 c3 f9             	add    $0xfffffff9,%ebx
    12ef:	49 89 ff             	mov    %rdi,%r15
    12f2:	31 f6                	xor    %esi,%esi
    12f4:	4c 8b 95 70 ff ff ff 	mov    -0x90(%rbp),%r10
    12fb:	e9 5a ff ff ff       	jmpq   125a <inflateBack+0x125a>
    1300:	85 c0                	test   %eax,%eax
    1302:	0f 84 d9 01 00 00    	je     14e1 <inflateBack+0x14e1>
    1308:	48 89 d9             	mov    %rbx,%rcx
    130b:	48 8b b5 28 ff ff ff 	mov    -0xd8(%rbp),%rsi
    1312:	48 8d 56 01          	lea    0x1(%rsi),%rdx
    1316:	48 89 95 28 ff ff ff 	mov    %rdx,-0xd8(%rbp)
    131d:	83 c0 ff             	add    $0xffffffff,%eax
    1320:	8d 59 08             	lea    0x8(%rcx),%ebx
    1323:	0f b6 16             	movzbl (%rsi),%edx
    1326:	48 d3 e2             	shl    %cl,%rdx
    1329:	49 01 d7             	add    %rdx,%r15
    132c:	0f b6 8d 31 ff ff ff 	movzbl -0xcf(%rbp),%ecx
    1333:	8d 51 03             	lea    0x3(%rcx),%edx
    1336:	39 da                	cmp    %ebx,%edx
    1338:	77 c6                	ja     1300 <inflateBack+0x1300>
    133a:	49 d3 ef             	shr    %cl,%r15
    133d:	4c 89 ff             	mov    %r15,%rdi
    1340:	48 c1 ef 03          	shr    $0x3,%rdi
    1344:	41 83 e7 07          	and    $0x7,%r15d
    1348:	41 8d 57 03          	lea    0x3(%r15),%edx
    134c:	29 cb                	sub    %ecx,%ebx
    134e:	83 c3 fd             	add    $0xfffffffd,%ebx
    1351:	49 89 ff             	mov    %rdi,%r15
    1354:	31 f6                	xor    %esi,%esi
    1356:	4c 8b 95 70 ff ff ff 	mov    -0x90(%rbp),%r10
    135d:	e9 f8 fe ff ff       	jmpq   125a <inflateBack+0x125a>
    1362:	48 8d 0d 00 00 00 00 	lea    0x0(%rip),%rcx        # 1369 <inflateBack+0x1369>
    1369:	49 89 4b 30          	mov    %rcx,0x30(%r11)
    136d:	41 c7 42 08 51 3f 00 	movl   $0x3f51,0x8(%r10)
    1374:	00 
    1375:	4c 8b 85 58 ff ff ff 	mov    -0xa8(%rbp),%r8
    137c:	4c 8b 8d 50 ff ff ff 	mov    -0xb0(%rbp),%r9
    1383:	e9 7a ed ff ff       	jmpq   102 <inflateBack+0x102>
    1388:	48 8d 05 00 00 00 00 	lea    0x0(%rip),%rax        # 138f <inflateBack+0x138f>
    138f:	49 89 44 24 30       	mov    %rax,0x30(%r12)
    1394:	4c 89 e8             	mov    %r13,%rax
    1397:	4d 89 f2             	mov    %r14,%r10
    139a:	4d 89 e3             	mov    %r12,%r11
    139d:	41 c7 42 08 51 3f 00 	movl   $0x3f51,0x8(%r10)
    13a4:	00 
    13a5:	4c 8b 85 58 ff ff ff 	mov    -0xa8(%rbp),%r8
    13ac:	48 8b 5d c0          	mov    -0x40(%rbp),%rbx
    13b0:	bf 01 00 00 00       	mov    $0x1,%edi
    13b5:	4c 8b b5 40 ff ff ff 	mov    -0xc0(%rbp),%r14
    13bc:	4c 8b ad 38 ff ff ff 	mov    -0xc8(%rbp),%r13
    13c3:	4c 8b 8d 50 ff ff ff 	mov    -0xb0(%rbp),%r9
    13ca:	4c 8d a5 28 ff ff ff 	lea    -0xd8(%rbp),%r12
    13d1:	e9 2c ed ff ff       	jmpq   102 <inflateBack+0x102>
    13d6:	48 8d 05 00 00 00 00 	lea    0x0(%rip),%rax        # 13dd <inflateBack+0x13dd>
    13dd:	49 89 44 24 30       	mov    %rax,0x30(%r12)
    13e2:	4c 89 e8             	mov    %r13,%rax
    13e5:	4d 89 f2             	mov    %r14,%r10
    13e8:	4d 89 e3             	mov    %r12,%r11
    13eb:	41 c7 42 08 51 3f 00 	movl   $0x3f51,0x8(%r10)
    13f2:	00 
    13f3:	4c 8b 85 58 ff ff ff 	mov    -0xa8(%rbp),%r8
    13fa:	48 8b 5d c0          	mov    -0x40(%rbp),%rbx
    13fe:	bf 01 00 00 00       	mov    $0x1,%edi
    1403:	4c 8b b5 40 ff ff ff 	mov    -0xc0(%rbp),%r14
    140a:	4c 8b ad 38 ff ff ff 	mov    -0xc8(%rbp),%r13
    1411:	4c 8b 8d 50 ff ff ff 	mov    -0xb0(%rbp),%r9
    1418:	4c 8d a5 28 ff ff ff 	lea    -0xd8(%rbp),%r12
    141f:	e9 de ec ff ff       	jmpq   102 <inflateBack+0x102>
    1424:	48 c7 85 28 ff ff ff 	movq   $0x0,-0xd8(%rbp)
    142b:	00 00 00 00 
    142f:	4c 8b 9d 78 ff ff ff 	mov    -0x88(%rbp),%r11
    1436:	31 c0                	xor    %eax,%eax
    1438:	48 c7 c7 fb ff ff ff 	mov    $0xfffffffffffffffb,%rdi
    143f:	e9 db ec ff ff       	jmpq   11f <inflateBack+0x11f>
    1444:	48 c7 85 28 ff ff ff 	movq   $0x0,-0xd8(%rbp)
    144b:	00 00 00 00 
    144f:	4c 8b 9d 78 ff ff ff 	mov    -0x88(%rbp),%r11
    1456:	31 c0                	xor    %eax,%eax
    1458:	48 c7 c7 fb ff ff ff 	mov    $0xfffffffffffffffb,%rdi
    145f:	e9 bb ec ff ff       	jmpq   11f <inflateBack+0x11f>
    1464:	4c 89 ef             	mov    %r13,%rdi
    1467:	4c 89 e6             	mov    %r12,%rsi
    146a:	41 ff d6             	callq  *%r14
    146d:	85 c0                	test   %eax,%eax
    146f:	0f 84 81 00 00 00    	je     14f6 <inflateBack+0x14f6>
    1475:	48 89 d9             	mov    %rbx,%rcx
    1478:	e9 70 fd ff ff       	jmpq   11ed <inflateBack+0x11ed>
    147d:	4c 8b 9d 78 ff ff ff 	mov    -0x88(%rbp),%r11
    1484:	48 8d 0d 00 00 00 00 	lea    0x0(%rip),%rcx        # 148b <inflateBack+0x148b>
    148b:	49 89 4b 30          	mov    %rcx,0x30(%r11)
    148f:	41 c7 42 08 51 3f 00 	movl   $0x3f51,0x8(%r10)
    1496:	00 
    1497:	bf 01 00 00 00       	mov    $0x1,%edi
    149c:	e9 8c f9 ff ff       	jmpq   e2d <inflateBack+0xe2d>
    14a1:	41 8b ba 8c 00 00 00 	mov    0x8c(%r10),%edi
    14a8:	8d 4f 01             	lea    0x1(%rdi),%ecx
    14ab:	41 89 8a 8c 00 00 00 	mov    %ecx,0x8c(%r10)
    14b2:	66 41 89 b4 7a 98 00 	mov    %si,0x98(%r10,%rdi,2)
    14b9:	00 00 
    14bb:	83 c2 ff             	add    $0xffffffff,%edx
    14be:	85 d2                	test   %edx,%edx
    14c0:	75 df                	jne    14a1 <inflateBack+0x14a1>
    14c2:	bf 01 00 00 00       	mov    $0x1,%edi
    14c7:	e9 3f f9 ff ff       	jmpq   e0b <inflateBack+0xe0b>
    14cc:	4c 89 ef             	mov    %r13,%rdi
    14cf:	4c 89 e6             	mov    %r12,%rsi
    14d2:	41 ff d6             	callq  *%r14
    14d5:	85 c0                	test   %eax,%eax
    14d7:	74 3d                	je     1516 <inflateBack+0x1516>
    14d9:	48 89 d9             	mov    %rbx,%rcx
    14dc:	e9 c8 fd ff ff       	jmpq   12a9 <inflateBack+0x12a9>
    14e1:	4c 89 ef             	mov    %r13,%rdi
    14e4:	4c 89 e6             	mov    %r12,%rsi
    14e7:	41 ff d6             	callq  *%r14
    14ea:	85 c0                	test   %eax,%eax
    14ec:	74 48                	je     1536 <inflateBack+0x1536>
    14ee:	48 89 d9             	mov    %rbx,%rcx
    14f1:	e9 15 fe ff ff       	jmpq   130b <inflateBack+0x130b>
    14f6:	48 c7 85 28 ff ff ff 	movq   $0x0,-0xd8(%rbp)
    14fd:	00 00 00 00 
    1501:	4c 8b 9d 78 ff ff ff 	mov    -0x88(%rbp),%r11
    1508:	31 c0                	xor    %eax,%eax
    150a:	48 c7 c7 fb ff ff ff 	mov    $0xfffffffffffffffb,%rdi
    1511:	e9 09 ec ff ff       	jmpq   11f <inflateBack+0x11f>
    1516:	48 c7 85 28 ff ff ff 	movq   $0x0,-0xd8(%rbp)
    151d:	00 00 00 00 
    1521:	4c 8b 9d 78 ff ff ff 	mov    -0x88(%rbp),%r11
    1528:	31 c0                	xor    %eax,%eax
    152a:	48 c7 c7 fb ff ff ff 	mov    $0xfffffffffffffffb,%rdi
    1531:	e9 e9 eb ff ff       	jmpq   11f <inflateBack+0x11f>
    1536:	48 c7 85 28 ff ff ff 	movq   $0x0,-0xd8(%rbp)
    153d:	00 00 00 00 
    1541:	4c 8b 9d 78 ff ff ff 	mov    -0x88(%rbp),%r11
    1548:	31 c0                	xor    %eax,%eax
    154a:	48 c7 c7 fb ff ff ff 	mov    $0xfffffffffffffffb,%rdi
    1551:	e9 c9 eb ff ff       	jmpq   11f <inflateBack+0x11f>
    1556:	66 2e 0f 1f 84 00 00 	nopw   %cs:0x0(%rax,%rax,1)
    155d:	00 00 00 

0000000000001560 <inflateBackEnd>:
    1560:	55                   	push   %rbp
    1561:	48 89 e5             	mov    %rsp,%rbp
    1564:	48 83 ec 10          	sub    $0x10,%rsp
    1568:	48 c7 c0 fe ff ff ff 	mov    $0xfffffffffffffffe,%rax
    156f:	48 85 ff             	test   %rdi,%rdi
    1572:	75 02                	jne    1576 <inflateBackEnd+0x16>
    1574:	c9                   	leaveq 
    1575:	c3                   	retq   
    1576:	48 8b 77 38          	mov    0x38(%rdi),%rsi
    157a:	48 85 f6             	test   %rsi,%rsi
    157d:	75 02                	jne    1581 <inflateBackEnd+0x21>
    157f:	c9                   	leaveq 
    1580:	c3                   	retq   
    1581:	48 8b 4f 48          	mov    0x48(%rdi),%rcx
    1585:	48 85 c9             	test   %rcx,%rcx
    1588:	75 02                	jne    158c <inflateBackEnd+0x2c>
    158a:	c9                   	leaveq 
    158b:	c3                   	retq   
    158c:	48 8b 47 50          	mov    0x50(%rdi),%rax
    1590:	4c 89 7d f8          	mov    %r15,-0x8(%rbp)
    1594:	49 89 ff             	mov    %rdi,%r15
    1597:	48 89 c7             	mov    %rax,%rdi
    159a:	ff d1                	callq  *%rcx
    159c:	49 c7 47 38 00 00 00 	movq   $0x0,0x38(%r15)
    15a3:	00 
    15a4:	31 c0                	xor    %eax,%eax
    15a6:	4c 8b 7d f8          	mov    -0x8(%rbp),%r15
    15aa:	c9                   	leaveq 
    15ab:	c3                   	retq   
    15ac:	0f 1f 40 00          	nopl   0x0(%rax)

00000000000015b0 <inflateBackInit_>:
    15b0:	55                   	push   %rbp
    15b1:	48 89 e5             	mov    %rsp,%rbp
    15b4:	48 83 ec 20          	sub    $0x20,%rsp
    15b8:	48 c7 c0 fa ff ff ff 	mov    $0xfffffffffffffffa,%rax
    15bf:	48 85 c9             	test   %rcx,%rcx
    15c2:	75 02                	jne    15c6 <inflateBackInit_+0x16>
    15c4:	c9                   	leaveq 
    15c5:	c3                   	retq   
    15c6:	48 0f be 09          	movsbq (%rcx),%rcx
    15ca:	80 f9 31             	cmp    $0x31,%cl
    15cd:	74 02                	je     15d1 <inflateBackInit_+0x21>
    15cf:	c9                   	leaveq 
    15d0:	c3                   	retq   
    15d1:	41 83 f8 70          	cmp    $0x70,%r8d
    15d5:	74 02                	je     15d9 <inflateBackInit_+0x29>
    15d7:	c9                   	leaveq 
    15d8:	c3                   	retq   
    15d9:	48 c7 c0 fe ff ff ff 	mov    $0xfffffffffffffffe,%rax
    15e0:	48 85 ff             	test   %rdi,%rdi
    15e3:	75 02                	jne    15e7 <inflateBackInit_+0x37>
    15e5:	c9                   	leaveq 
    15e6:	c3                   	retq   
    15e7:	48 85 d2             	test   %rdx,%rdx
    15ea:	75 02                	jne    15ee <inflateBackInit_+0x3e>
    15ec:	c9                   	leaveq 
    15ed:	c3                   	retq   
    15ee:	83 fe 07             	cmp    $0x7,%esi
    15f1:	7f 02                	jg     15f5 <inflateBackInit_+0x45>
    15f3:	c9                   	leaveq 
    15f4:	c3                   	retq   
    15f5:	83 fe 0f             	cmp    $0xf,%esi
    15f8:	7e 02                	jle    15fc <inflateBackInit_+0x4c>
    15fa:	c9                   	leaveq 
    15fb:	c3                   	retq   
    15fc:	48 c7 47 30 00 00 00 	movq   $0x0,0x30(%rdi)
    1603:	00 
    1604:	48 8b 47 40          	mov    0x40(%rdi),%rax
    1608:	48 85 c0             	test   %rax,%rax
    160b:	75 13                	jne    1620 <inflateBackInit_+0x70>
    160d:	48 8b 05 00 00 00 00 	mov    0x0(%rip),%rax        # 1614 <inflateBackInit_+0x64>
    1614:	48 89 47 40          	mov    %rax,0x40(%rdi)
    1618:	48 c7 47 50 00 00 00 	movq   $0x0,0x50(%rdi)
    161f:	00 
    1620:	48 8b 47 48          	mov    0x48(%rdi),%rax
    1624:	48 85 c0             	test   %rax,%rax
    1627:	75 0b                	jne    1634 <inflateBackInit_+0x84>
    1629:	48 8b 05 00 00 00 00 	mov    0x0(%rip),%rax        # 1630 <inflateBackInit_+0x80>
    1630:	48 89 47 48          	mov    %rax,0x48(%rdi)
    1634:	48 8b 4f 40          	mov    0x40(%rdi),%rcx
    1638:	4c 8b 47 50          	mov    0x50(%rdi),%r8
    163c:	b8 01 00 00 00       	mov    $0x1,%eax
    1641:	41 b9 f8 1b 00 00    	mov    $0x1bf8,%r9d
    1647:	4c 89 7d e8          	mov    %r15,-0x18(%rbp)
    164b:	48 89 75 f8          	mov    %rsi,-0x8(%rbp)
    164f:	48 89 55 f0          	mov    %rdx,-0x10(%rbp)
    1653:	4c 89 ca             	mov    %r9,%rdx
    1656:	48 89 c6             	mov    %rax,%rsi
    1659:	49 89 ff             	mov    %rdi,%r15
    165c:	4c 89 c7             	mov    %r8,%rdi
    165f:	ff d1                	callq  *%rcx
    1661:	48 85 c0             	test   %rax,%rax
    1664:	75 0d                	jne    1673 <inflateBackInit_+0xc3>
    1666:	48 c7 c0 fc ff ff ff 	mov    $0xfffffffffffffffc,%rax
    166d:	4c 8b 7d e8          	mov    -0x18(%rbp),%r15
    1671:	c9                   	leaveq 
    1672:	c3                   	retq   
    1673:	49 89 47 38          	mov    %rax,0x38(%r15)
    1677:	c7 40 1c 00 80 00 00 	movl   $0x8000,0x1c(%rax)
    167e:	48 8b 4d f8          	mov    -0x8(%rbp),%rcx
    1682:	89 48 38             	mov    %ecx,0x38(%rax)
    1685:	ba 01 00 00 00       	mov    $0x1,%edx
    168a:	d3 e2                	shl    %cl,%edx
    168c:	89 50 3c             	mov    %edx,0x3c(%rax)
    168f:	48 8b 4d f0          	mov    -0x10(%rbp),%rcx
    1693:	48 89 48 48          	mov    %rcx,0x48(%rax)
    1697:	c7 40 44 00 00 00 00 	movl   $0x0,0x44(%rax)
    169e:	c7 40 40 00 00 00 00 	movl   $0x0,0x40(%rax)
    16a5:	31 c0                	xor    %eax,%eax
    16a7:	4c 8b 7d e8          	mov    -0x18(%rbp),%r15
    16ab:	c9                   	leaveq 
    16ac:	c3                   	retq   
    16ad:	0f 1f 00             	nopl   (%rax)

00000000000016b0 <fixedtables>:
    16b0:	55                   	push   %rbp
    16b1:	48 89 e5             	mov    %rsp,%rbp
    16b4:	48 8d 05 00 00 00 00 	lea    0x0(%rip),%rax        # 16bb <fixedtables+0xb>
    16bb:	48 89 47 68          	mov    %rax,0x68(%rdi)
    16bf:	c7 47 78 09 00 00 00 	movl   $0x9,0x78(%rdi)
    16c6:	48 8d 05 00 00 00 00 	lea    0x0(%rip),%rax        # 16cd <fixedtables+0x1d>
    16cd:	48 89 47 70          	mov    %rax,0x70(%rdi)
    16d1:	c7 47 7c 05 00 00 00 	movl   $0x5,0x7c(%rdi)
    16d8:	c9                   	leaveq 
    16d9:	c3                   	retq   

inffast.o:     file format elf64-x86-64


Disassembly of section .text:

0000000000000000 <inflate_fast>:
   0:	55                   	push   %rbp
   1:	48 89 e5             	mov    %rsp,%rbp
   4:	48 81 ec b0 00 00 00 	sub    $0xb0,%rsp
   b:	4c 89 7d d0          	mov    %r15,-0x30(%rbp)
   f:	4c 89 75 d8          	mov    %r14,-0x28(%rbp)
  13:	4c 89 6d e0          	mov    %r13,-0x20(%rbp)
  17:	4c 89 65 e8          	mov    %r12,-0x18(%rbp)
  1b:	48 89 5d f0          	mov    %rbx,-0x10(%rbp)
  1f:	48 89 7d f8          	mov    %rdi,-0x8(%rbp)
  23:	4c 8b 77 38          	mov    0x38(%rdi),%r14
  27:	4c 89 b5 78 ff ff ff 	mov    %r14,-0x88(%rbp)
  2e:	41 8b 46 40          	mov    0x40(%r14),%eax
  32:	48 89 85 70 ff ff ff 	mov    %rax,-0x90(%rbp)
  39:	49 8b 46 48          	mov    0x48(%r14),%rax
  3d:	48 89 45 98          	mov    %rax,-0x68(%rbp)
  41:	49 8b 56 50          	mov    0x50(%r14),%rdx
  45:	41 8b 46 58          	mov    0x58(%r14),%eax
  49:	4d 8b 56 68          	mov    0x68(%r14),%r10
  4d:	4c 89 55 b8          	mov    %r10,-0x48(%rbp)
  51:	4d 8b 5e 70          	mov    0x70(%r14),%r11
  55:	4c 89 5d c8          	mov    %r11,-0x38(%rbp)
  59:	41 b8 01 00 00 00    	mov    $0x1,%r8d
  5f:	41 8b 4e 7c          	mov    0x7c(%r14),%ecx
  63:	4c 89 c3             	mov    %r8,%rbx
  66:	d3 e3                	shl    %cl,%ebx
  68:	8d 4b ff             	lea    -0x1(%rbx),%ecx
  6b:	41 89 c9             	mov    %ecx,%r9d
  6e:	4c 89 4d c0          	mov    %r9,-0x40(%rbp)
  72:	41 8b 4e 78          	mov    0x78(%r14),%ecx
  76:	4c 89 c3             	mov    %r8,%rbx
  79:	d3 e3                	shl    %cl,%ebx
  7b:	8d 4b ff             	lea    -0x1(%rbx),%ecx
  7e:	41 89 cc             	mov    %ecx,%r12d
  81:	4c 89 65 b0          	mov    %r12,-0x50(%rbp)
  85:	8b 4f 20             	mov    0x20(%rdi),%ecx
  88:	29 ce                	sub    %ecx,%esi
  8a:	48 89 b5 60 ff ff ff 	mov    %rsi,-0xa0(%rbp)
  91:	45 8b 7e 44          	mov    0x44(%r14),%r15d
  95:	4c 89 7d 80          	mov    %r15,-0x80(%rbp)
  99:	48 8b 77 18          	mov    0x18(%rdi),%rsi
  9d:	48 89 b5 68 ff ff ff 	mov    %rsi,-0x98(%rbp)
  a4:	81 c1 ff fe ff ff    	add    $0xfffffeff,%ecx
  aa:	89 c9                	mov    %ecx,%ecx
  ac:	48 8d 1c 0e          	lea    (%rsi,%rcx,1),%rbx
  b0:	4c 8b 2f             	mov    (%rdi),%r13
  b3:	8b 4f 08             	mov    0x8(%rdi),%ecx
  b6:	83 c1 fb             	add    $0xfffffffb,%ecx
  b9:	89 c9                	mov    %ecx,%ecx
  bb:	49 8d 7c 0d 00       	lea    0x0(%r13,%rcx,1),%rdi
  c0:	41 8b 4e 3c          	mov    0x3c(%r14),%ecx
  c4:	48 89 4d a8          	mov    %rcx,-0x58(%rbp)
  c8:	44 01 f9             	add    %r15d,%ecx
  cb:	48 89 4d a0          	mov    %rcx,-0x60(%rbp)
  cf:	eb 0b                	jmp    dc <inflate_fast+0xdc>
  d1:	48 39 de             	cmp    %rbx,%rsi
  d4:	73 3f                	jae    115 <inflate_fast+0x115>
  d6:	41 b8 01 00 00 00    	mov    $0x1,%r8d
  dc:	83 f8 0e             	cmp    $0xe,%eax
  df:	77 28                	ja     109 <inflate_fast+0x109>
  e1:	4d 8d 7d 02          	lea    0x2(%r13),%r15
  e5:	45 0f b6 75 01       	movzbl 0x1(%r13),%r14d
  ea:	8d 48 08             	lea    0x8(%rax),%ecx
  ed:	49 d3 e6             	shl    %cl,%r14
  f0:	45 0f b6 6d 00       	movzbl 0x0(%r13),%r13d
  f5:	48 89 c1             	mov    %rax,%rcx
  f8:	49 d3 e5             	shl    %cl,%r13
  fb:	4a 8d 04 2a          	lea    (%rdx,%r13,1),%rax
  ff:	49 8d 14 06          	lea    (%r14,%rax,1),%rdx
 103:	8d 41 10             	lea    0x10(%rcx),%eax
 106:	4d 89 fd             	mov    %r15,%r13
 109:	4c 89 e1             	mov    %r12,%rcx
 10c:	48 21 d1             	and    %rdx,%rcx
 10f:	45 8b 34 8a          	mov    (%r10,%rcx,4),%r14d
 113:	eb 58                	jmp    16d <inflate_fast+0x16d>
 115:	41 b8 01 00 00 00    	mov    $0x1,%r8d
 11b:	4c 8b 4d f8          	mov    -0x8(%rbp),%r9
 11f:	4c 8b 95 78 ff ff ff 	mov    -0x88(%rbp),%r10
 126:	e9 83 00 00 00       	jmpq   1ae <inflate_fast+0x1ae>
 12b:	41 0f b6 ce          	movzbl %r14b,%ecx
 12f:	49 89 ce             	mov    %rcx,%r14
 132:	41 83 e6 10          	and    $0x10,%r14d
 136:	45 85 f6             	test   %r14d,%r14d
 139:	0f 85 97 00 00 00    	jne    1d6 <inflate_fast+0x1d6>
 13f:	49 89 ce             	mov    %rcx,%r14
 142:	41 83 e6 40          	and    $0x40,%r14d
 146:	45 85 f6             	test   %r14d,%r14d
 149:	0f 85 a3 00 00 00    	jne    1f2 <inflate_fast+0x1f2>
 14f:	4d 89 c6             	mov    %r8,%r14
 152:	41 d3 e6             	shl    %cl,%r14d
 155:	41 8d 4e ff          	lea    -0x1(%r14),%ecx
 159:	89 c9                	mov    %ecx,%ecx
 15b:	48 21 d1             	and    %rdx,%rcx
 15e:	44 0f b7 b5 5e ff ff 	movzwl -0xa2(%rbp),%r14d
 165:	ff 
 166:	4c 01 f1             	add    %r14,%rcx
 169:	45 8b 34 8a          	mov    (%r10,%rcx,4),%r14d
 16d:	4c 89 f1             	mov    %r14,%rcx
 170:	c1 e9 08             	shr    $0x8,%ecx
 173:	0f b6 c9             	movzbl %cl,%ecx
 176:	48 d3 ea             	shr    %cl,%rdx
 179:	29 c8                	sub    %ecx,%eax
 17b:	44 89 b5 5c ff ff ff 	mov    %r14d,-0xa4(%rbp)
 182:	45 84 f6             	test   %r14b,%r14b
 185:	75 a4                	jne    12b <inflate_fast+0x12b>
 187:	0f b6 8d 5e ff ff ff 	movzbl -0xa2(%rbp),%ecx
 18e:	88 0e                	mov    %cl,(%rsi)
 190:	48 83 c6 01          	add    $0x1,%rsi
 194:	49 39 fd             	cmp    %rdi,%r13
 197:	0f 82 34 ff ff ff    	jb     d1 <inflate_fast+0xd1>
 19d:	41 b8 01 00 00 00    	mov    $0x1,%r8d
 1a3:	4c 8b 4d f8          	mov    -0x8(%rbp),%r9
 1a7:	4c 8b 95 78 ff ff ff 	mov    -0x88(%rbp),%r10
 1ae:	49 89 c4             	mov    %rax,%r12
 1b1:	41 c1 ec 03          	shr    $0x3,%r12d
 1b5:	45 89 e3             	mov    %r12d,%r11d
 1b8:	4c 89 e9             	mov    %r13,%rcx
 1bb:	4c 29 d9             	sub    %r11,%rcx
 1be:	49 89 09             	mov    %rcx,(%r9)
 1c1:	49 89 71 18          	mov    %rsi,0x18(%r9)
 1c5:	48 39 cf             	cmp    %rcx,%rdi
 1c8:	77 53                	ja     21d <inflate_fast+0x21d>
 1ca:	4a 8d 0c 1f          	lea    (%rdi,%r11,1),%rcx
 1ce:	4c 29 e9             	sub    %r13,%rcx
 1d1:	83 c1 05             	add    $0x5,%ecx
 1d4:	eb 4f                	jmp    225 <inflate_fast+0x225>
 1d6:	44 0f b7 b5 5e ff ff 	movzwl -0xa2(%rbp),%r14d
 1dd:	ff 
 1de:	83 e1 0f             	and    $0xf,%ecx
 1e1:	85 c9                	test   %ecx,%ecx
 1e3:	0f 84 97 00 00 00    	je     280 <inflate_fast+0x280>
 1e9:	39 c8                	cmp    %ecx,%eax
 1eb:	72 4d                	jb     23a <inflate_fast+0x23a>
 1ed:	49 89 d2             	mov    %rdx,%r10
 1f0:	eb 6d                	jmp    25f <inflate_fast+0x25f>
 1f2:	83 e1 20             	and    $0x20,%ecx
 1f5:	85 c9                	test   %ecx,%ecx
 1f7:	0f 85 94 00 00 00    	jne    291 <inflate_fast+0x291>
 1fd:	48 8d 0d 00 00 00 00 	lea    0x0(%rip),%rcx        # 204 <inflate_fast+0x204>
 204:	4c 8b 4d f8          	mov    -0x8(%rbp),%r9
 208:	49 89 49 30          	mov    %rcx,0x30(%r9)
 20c:	4c 8b 95 78 ff ff ff 	mov    -0x88(%rbp),%r10
 213:	41 c7 42 08 51 3f 00 	movl   $0x3f51,0x8(%r10)
 21a:	00 
 21b:	eb 91                	jmp    1ae <inflate_fast+0x1ae>
 21d:	4c 29 ef             	sub    %r13,%rdi
 220:	41 8d 4c 3c 05       	lea    0x5(%r12,%rdi,1),%ecx
 225:	41 89 49 08          	mov    %ecx,0x8(%r9)
 229:	48 39 f3             	cmp    %rsi,%rbx
 22c:	77 7b                	ja     2a9 <inflate_fast+0x2a9>
 22e:	48 29 f3             	sub    %rsi,%rbx
 231:	48 8d 8b 01 01 00 00 	lea    0x101(%rbx),%rcx
 238:	eb 79                	jmp    2b3 <inflate_fast+0x2b3>
 23a:	4d 8d 65 01          	lea    0x1(%r13),%r12
 23e:	44 8d 78 08          	lea    0x8(%rax),%r15d
 242:	45 0f b6 55 00       	movzbl 0x0(%r13),%r10d
 247:	49 89 cd             	mov    %rcx,%r13
 24a:	48 89 c1             	mov    %rax,%rcx
 24d:	4c 89 e8             	mov    %r13,%rax
 250:	49 d3 e2             	shl    %cl,%r10
 253:	49 01 d2             	add    %rdx,%r10
 256:	48 89 c1             	mov    %rax,%rcx
 259:	4c 89 f8             	mov    %r15,%rax
 25c:	4d 89 e5             	mov    %r12,%r13
 25f:	29 c8                	sub    %ecx,%eax
 261:	4c 89 d2             	mov    %r10,%rdx
 264:	48 d3 ea             	shr    %cl,%rdx
 267:	4d 89 c4             	mov    %r8,%r12
 26a:	41 d3 e4             	shl    %cl,%r12d
 26d:	41 8d 4c 24 ff       	lea    -0x1(%r12),%ecx
 272:	44 21 d1             	and    %r10d,%ecx
 275:	41 01 ce             	add    %ecx,%r14d
 278:	4c 8b 65 b0          	mov    -0x50(%rbp),%r12
 27c:	4c 8b 55 b8          	mov    -0x48(%rbp),%r10
 280:	4c 89 75 88          	mov    %r14,-0x78(%rbp)
 284:	83 f8 0e             	cmp    $0xe,%eax
 287:	76 5e                	jbe    2e7 <inflate_fast+0x2e7>
 289:	4d 89 ee             	mov    %r13,%r14
 28c:	e9 83 00 00 00       	jmpq   314 <inflate_fast+0x314>
 291:	4c 8b 95 78 ff ff ff 	mov    -0x88(%rbp),%r10
 298:	41 c7 42 08 3f 3f 00 	movl   $0x3f3f,0x8(%r10)
 29f:	00 
 2a0:	4c 8b 4d f8          	mov    -0x8(%rbp),%r9
 2a4:	e9 05 ff ff ff       	jmpq   1ae <inflate_fast+0x1ae>
 2a9:	48 29 f3             	sub    %rsi,%rbx
 2ac:	48 8d 8b 01 01 00 00 	lea    0x101(%rbx),%rcx
 2b3:	41 89 49 20          	mov    %ecx,0x20(%r9)
 2b7:	83 e0 07             	and    $0x7,%eax
 2ba:	48 89 c1             	mov    %rax,%rcx
 2bd:	41 d3 e0             	shl    %cl,%r8d
 2c0:	41 8d 40 ff          	lea    -0x1(%r8),%eax
 2c4:	89 c0                	mov    %eax,%eax
 2c6:	48 21 c2             	and    %rax,%rdx
 2c9:	49 89 52 50          	mov    %rdx,0x50(%r10)
 2cd:	41 89 4a 58          	mov    %ecx,0x58(%r10)
 2d1:	48 8b 5d f0          	mov    -0x10(%rbp),%rbx
 2d5:	4c 8b 65 e8          	mov    -0x18(%rbp),%r12
 2d9:	4c 8b 6d e0          	mov    -0x20(%rbp),%r13
 2dd:	4c 8b 75 d8          	mov    -0x28(%rbp),%r14
 2e1:	4c 8b 7d d0          	mov    -0x30(%rbp),%r15
 2e5:	c9                   	leaveq 
 2e6:	c3                   	retq   
 2e7:	4d 8d 75 02          	lea    0x2(%r13),%r14
 2eb:	45 0f b6 55 01       	movzbl 0x1(%r13),%r10d
 2f0:	8d 48 08             	lea    0x8(%rax),%ecx
 2f3:	49 d3 e2             	shl    %cl,%r10
 2f6:	45 0f b6 65 00       	movzbl 0x0(%r13),%r12d
 2fb:	48 89 c1             	mov    %rax,%rcx
 2fe:	49 d3 e4             	shl    %cl,%r12
 301:	4a 8d 04 22          	lea    (%rdx,%r12,1),%rax
 305:	49 8d 14 02          	lea    (%r10,%rax,1),%rdx
 309:	8d 41 10             	lea    0x10(%rcx),%eax
 30c:	4c 8b 65 b0          	mov    -0x50(%rbp),%r12
 310:	4c 8b 55 b8          	mov    -0x48(%rbp),%r10
 314:	4c 89 c9             	mov    %r9,%rcx
 317:	48 21 d1             	and    %rdx,%rcx
 31a:	45 8b 3c 8b          	mov    (%r11,%rcx,4),%r15d
 31e:	eb 2e                	jmp    34e <inflate_fast+0x34e>
 320:	49 89 cd             	mov    %rcx,%r13
 323:	41 83 e5 40          	and    $0x40,%r13d
 327:	45 85 ed             	test   %r13d,%r13d
 32a:	0f 85 9a 00 00 00    	jne    3ca <inflate_fast+0x3ca>
 330:	4d 89 c5             	mov    %r8,%r13
 333:	41 d3 e5             	shl    %cl,%r13d
 336:	41 8d 4d ff          	lea    -0x1(%r13),%ecx
 33a:	89 c9                	mov    %ecx,%ecx
 33c:	48 21 d1             	and    %rdx,%rcx
 33f:	44 0f b7 ad 5e ff ff 	movzwl -0xa2(%rbp),%r13d
 346:	ff 
 347:	4c 01 e9             	add    %r13,%rcx
 34a:	45 8b 3c 8b          	mov    (%r11,%rcx,4),%r15d
 34e:	4c 89 f9             	mov    %r15,%rcx
 351:	c1 e9 08             	shr    $0x8,%ecx
 354:	0f b6 c9             	movzbl %cl,%ecx
 357:	48 d3 ea             	shr    %cl,%rdx
 35a:	29 c8                	sub    %ecx,%eax
 35c:	44 89 bd 5c ff ff ff 	mov    %r15d,-0xa4(%rbp)
 363:	41 0f b6 cf          	movzbl %r15b,%ecx
 367:	49 89 cd             	mov    %rcx,%r13
 36a:	41 83 e5 10          	and    $0x10,%r13d
 36e:	45 85 ed             	test   %r13d,%r13d
 371:	74 ad                	je     320 <inflate_fast+0x320>
 373:	83 e1 0f             	and    $0xf,%ecx
 376:	39 c1                	cmp    %eax,%ecx
 378:	77 76                	ja     3f0 <inflate_fast+0x3f0>
 37a:	49 89 d3             	mov    %rdx,%r11
 37d:	4d 89 f5             	mov    %r14,%r13
 380:	4c 89 da             	mov    %r11,%rdx
 383:	48 d3 ea             	shr    %cl,%rdx
 386:	29 c8                	sub    %ecx,%eax
 388:	4d 89 c6             	mov    %r8,%r14
 38b:	41 d3 e6             	shl    %cl,%r14d
 38e:	41 8d 4e ff          	lea    -0x1(%r14),%ecx
 392:	44 21 d9             	and    %r11d,%ecx
 395:	41 c1 ef 10          	shr    $0x10,%r15d
 399:	41 01 cf             	add    %ecx,%r15d
 39c:	48 8b 8d 68 ff ff ff 	mov    -0x98(%rbp),%rcx
 3a3:	49 89 f3             	mov    %rsi,%r11
 3a6:	49 29 cb             	sub    %rcx,%r11
 3a9:	48 8b 8d 60 ff ff ff 	mov    -0xa0(%rbp),%rcx
 3b0:	41 01 cb             	add    %ecx,%r11d
 3b3:	45 39 fb             	cmp    %r15d,%r11d
 3b6:	72 5e                	jb     416 <inflate_fast+0x416>
 3b8:	44 89 f9             	mov    %r15d,%ecx
 3bb:	49 89 f0             	mov    %rsi,%r8
 3be:	49 29 c8             	sub    %rcx,%r8
 3c1:	48 8b 4d 88          	mov    -0x78(%rbp),%rcx
 3c5:	e9 a8 00 00 00       	jmpq   472 <inflate_fast+0x472>
 3ca:	48 8d 0d 00 00 00 00 	lea    0x0(%rip),%rcx        # 3d1 <inflate_fast+0x3d1>
 3d1:	4c 8b 4d f8          	mov    -0x8(%rbp),%r9
 3d5:	49 89 49 30          	mov    %rcx,0x30(%r9)
 3d9:	4c 8b 95 78 ff ff ff 	mov    -0x88(%rbp),%r10
 3e0:	41 c7 42 08 51 3f 00 	movl   $0x3f51,0x8(%r10)
 3e7:	00 
 3e8:	4d 89 f5             	mov    %r14,%r13
 3eb:	e9 be fd ff ff       	jmpq   1ae <inflate_fast+0x1ae>
 3f0:	48 91                	xchg   %rax,%rcx
 3f2:	4d 8d 6e 01          	lea    0x1(%r14),%r13
 3f6:	45 0f b6 1e          	movzbl (%r14),%r11d
 3fa:	49 d3 e3             	shl    %cl,%r11
 3fd:	49 01 d3             	add    %rdx,%r11
 400:	8d 51 08             	lea    0x8(%rcx),%edx
 403:	39 d0                	cmp    %edx,%eax
 405:	0f 87 a8 00 00 00    	ja     4b3 <inflate_fast+0x4b3>
 40b:	48 89 c1             	mov    %rax,%rcx
 40e:	48 89 d0             	mov    %rdx,%rax
 411:	e9 6a ff ff ff       	jmpq   380 <inflate_fast+0x380>
 416:	4d 89 f9             	mov    %r15,%r9
 419:	45 29 d9             	sub    %r11d,%r9d
 41c:	48 8b 8d 70 ff ff ff 	mov    -0x90(%rbp),%rcx
 423:	41 39 c9             	cmp    %ecx,%r9d
 426:	0f 87 a6 00 00 00    	ja     4d2 <inflate_fast+0x4d2>
 42c:	4d 89 da             	mov    %r11,%r10
 42f:	45 29 fa             	sub    %r15d,%r10d
 432:	4c 8b 75 80          	mov    -0x80(%rbp),%r14
 436:	45 85 f6             	test   %r14d,%r14d
 439:	0f 84 c5 00 00 00    	je     504 <inflate_fast+0x504>
 43f:	45 39 f1             	cmp    %r14d,%r9d
 442:	0f 87 df 00 00 00    	ja     527 <inflate_fast+0x527>
 448:	43 8d 0c 16          	lea    (%r14,%r10,1),%ecx
 44c:	41 89 c8             	mov    %ecx,%r8d
 44f:	48 8b 4d 98          	mov    -0x68(%rbp),%rcx
 453:	4c 01 c1             	add    %r8,%rcx
 456:	4c 8b 45 88          	mov    -0x78(%rbp),%r8
 45a:	45 39 c8             	cmp    %r9d,%r8d
 45d:	0f 86 14 01 00 00    	jbe    577 <inflate_fast+0x577>
 463:	4c 89 55 88          	mov    %r10,-0x78(%rbp)
 467:	e9 2f 01 00 00       	jmpq   59b <inflate_fast+0x59b>
 46c:	4c 89 f6             	mov    %r14,%rsi
 46f:	4d 89 d8             	mov    %r11,%r8
 472:	45 0f b6 18          	movzbl (%r8),%r11d
 476:	44 88 1e             	mov    %r11b,(%rsi)
 479:	45 0f b6 58 01       	movzbl 0x1(%r8),%r11d
 47e:	44 88 5e 01          	mov    %r11b,0x1(%rsi)
 482:	45 0f b6 58 02       	movzbl 0x2(%r8),%r11d
 487:	44 88 5e 02          	mov    %r11b,0x2(%rsi)
 48b:	4d 8d 58 03          	lea    0x3(%r8),%r11
 48f:	4c 8d 76 03          	lea    0x3(%rsi),%r14
 493:	83 c1 fd             	add    $0xfffffffd,%ecx
 496:	83 f9 02             	cmp    $0x2,%ecx
 499:	77 d1                	ja     46c <inflate_fast+0x46c>
 49b:	85 c9                	test   %ecx,%ecx
 49d:	0f 85 1e 01 00 00    	jne    5c1 <inflate_fast+0x5c1>
 4a3:	4c 89 f6             	mov    %r14,%rsi
 4a6:	4c 8b 5d c8          	mov    -0x38(%rbp),%r11
 4aa:	4c 8b 65 b0          	mov    -0x50(%rbp),%r12
 4ae:	e9 e1 fc ff ff       	jmpq   194 <inflate_fast+0x194>
 4b3:	45 0f b6 6d 00       	movzbl 0x0(%r13),%r13d
 4b8:	48 87 d1             	xchg   %rdx,%rcx
 4bb:	48 92                	xchg   %rax,%rdx
 4bd:	49 d3 e5             	shl    %cl,%r13
 4c0:	4d 01 eb             	add    %r13,%r11
 4c3:	83 c0 10             	add    $0x10,%eax
 4c6:	4d 8d 6e 02          	lea    0x2(%r14),%r13
 4ca:	48 89 d1             	mov    %rdx,%rcx
 4cd:	e9 ae fe ff ff       	jmpq   380 <inflate_fast+0x380>
 4d2:	4c 8b 95 78 ff ff ff 	mov    -0x88(%rbp),%r10
 4d9:	49 63 8a e8 1b 00 00 	movslq 0x1be8(%r10),%rcx
 4e0:	85 c9                	test   %ecx,%ecx
 4e2:	0f 84 44 ff ff ff    	je     42c <inflate_fast+0x42c>
 4e8:	48 8d 0d 00 00 00 00 	lea    0x0(%rip),%rcx        # 4ef <inflate_fast+0x4ef>
 4ef:	4c 8b 4d f8          	mov    -0x8(%rbp),%r9
 4f3:	49 89 49 30          	mov    %rcx,0x30(%r9)
 4f7:	41 c7 42 08 51 3f 00 	movl   $0x3f51,0x8(%r10)
 4fe:	00 
 4ff:	e9 aa fc ff ff       	jmpq   1ae <inflate_fast+0x1ae>
 504:	48 8b 4d a8          	mov    -0x58(%rbp),%rcx
 508:	44 01 d1             	add    %r10d,%ecx
 50b:	41 89 c8             	mov    %ecx,%r8d
 50e:	48 8b 4d 98          	mov    -0x68(%rbp),%rcx
 512:	4c 01 c1             	add    %r8,%rcx
 515:	4c 8b 45 88          	mov    -0x78(%rbp),%r8
 519:	45 39 c8             	cmp    %r9d,%r8d
 51c:	76 59                	jbe    577 <inflate_fast+0x577>
 51e:	4c 89 55 90          	mov    %r10,-0x70(%rbp)
 522:	e9 c2 00 00 00       	jmpq   5e9 <inflate_fast+0x5e9>
 527:	48 8b 4d a0          	mov    -0x60(%rbp),%rcx
 52b:	44 01 d1             	add    %r10d,%ecx
 52e:	89 c9                	mov    %ecx,%ecx
 530:	4c 8b 55 98          	mov    -0x68(%rbp),%r10
 534:	4c 01 d1             	add    %r10,%rcx
 537:	45 01 f3             	add    %r14d,%r11d
 53a:	4d 89 f9             	mov    %r15,%r9
 53d:	45 29 d9             	sub    %r11d,%r9d
 540:	4c 8b 45 88          	mov    -0x78(%rbp),%r8
 544:	45 39 c8             	cmp    %r9d,%r8d
 547:	76 2e                	jbe    577 <inflate_fast+0x577>
 549:	4c 89 5d 90          	mov    %r11,-0x70(%rbp)
 54d:	e9 c4 00 00 00       	jmpq   616 <inflate_fast+0x616>
 552:	44 0f b6 09          	movzbl (%rcx),%r9d
 556:	44 88 0e             	mov    %r9b,(%rsi)
 559:	44 0f b6 49 01       	movzbl 0x1(%rcx),%r9d
 55e:	44 88 4e 01          	mov    %r9b,0x1(%rsi)
 562:	44 0f b6 49 02       	movzbl 0x2(%rcx),%r9d
 567:	44 88 4e 02          	mov    %r9b,0x2(%rsi)
 56b:	48 83 c1 03          	add    $0x3,%rcx
 56f:	48 83 c6 03          	add    $0x3,%rsi
 573:	41 83 c0 fd          	add    $0xfffffffd,%r8d
 577:	41 83 f8 02          	cmp    $0x2,%r8d
 57b:	77 d5                	ja     552 <inflate_fast+0x552>
 57d:	45 85 c0             	test   %r8d,%r8d
 580:	0f 85 bb 00 00 00    	jne    641 <inflate_fast+0x641>
 586:	4c 8b 4d c0          	mov    -0x40(%rbp),%r9
 58a:	4c 8b 5d c8          	mov    -0x38(%rbp),%r11
 58e:	4c 8b 55 b8          	mov    -0x48(%rbp),%r10
 592:	e9 fd fb ff ff       	jmpq   194 <inflate_fast+0x194>
 597:	48 83 c1 01          	add    $0x1,%rcx
 59b:	44 0f b6 11          	movzbl (%rcx),%r10d
 59f:	44 88 16             	mov    %r10b,(%rsi)
 5a2:	48 83 c6 01          	add    $0x1,%rsi
 5a6:	41 83 c1 ff          	add    $0xffffffff,%r9d
 5aa:	45 85 c9             	test   %r9d,%r9d
 5ad:	75 e8                	jne    597 <inflate_fast+0x597>
 5af:	44 89 f9             	mov    %r15d,%ecx
 5b2:	48 f7 d9             	neg    %rcx
 5b5:	48 01 f1             	add    %rsi,%rcx
 5b8:	4c 8b 4d 88          	mov    -0x78(%rbp),%r9
 5bc:	45 01 c8             	add    %r9d,%r8d
 5bf:	eb b6                	jmp    577 <inflate_fast+0x577>
 5c1:	45 0f b6 1b          	movzbl (%r11),%r11d
 5c5:	45 88 1e             	mov    %r11b,(%r14)
 5c8:	4c 8d 76 04          	lea    0x4(%rsi),%r14
 5cc:	83 f9 01             	cmp    $0x1,%ecx
 5cf:	0f 87 91 00 00 00    	ja     666 <inflate_fast+0x666>
 5d5:	4c 89 f6             	mov    %r14,%rsi
 5d8:	4c 8b 5d c8          	mov    -0x38(%rbp),%r11
 5dc:	4c 8b 65 b0          	mov    -0x50(%rbp),%r12
 5e0:	e9 af fb ff ff       	jmpq   194 <inflate_fast+0x194>
 5e5:	48 83 c1 01          	add    $0x1,%rcx
 5e9:	44 0f b6 11          	movzbl (%rcx),%r10d
 5ed:	44 88 16             	mov    %r10b,(%rsi)
 5f0:	48 83 c6 01          	add    $0x1,%rsi
 5f4:	41 83 c1 ff          	add    $0xffffffff,%r9d
 5f8:	45 85 c9             	test   %r9d,%r9d
 5fb:	75 e8                	jne    5e5 <inflate_fast+0x5e5>
 5fd:	44 89 f9             	mov    %r15d,%ecx
 600:	48 f7 d9             	neg    %rcx
 603:	48 01 f1             	add    %rsi,%rcx
 606:	4c 8b 4d 90          	mov    -0x70(%rbp),%r9
 60a:	45 01 c8             	add    %r9d,%r8d
 60d:	e9 65 ff ff ff       	jmpq   577 <inflate_fast+0x577>
 612:	48 83 c1 01          	add    $0x1,%rcx
 616:	44 0f b6 19          	movzbl (%rcx),%r11d
 61a:	44 88 1e             	mov    %r11b,(%rsi)
 61d:	48 83 c6 01          	add    $0x1,%rsi
 621:	41 83 c1 ff          	add    $0xffffffff,%r9d
 625:	45 85 c9             	test   %r9d,%r9d
 628:	75 e8                	jne    612 <inflate_fast+0x612>
 62a:	48 8b 4d 90          	mov    -0x70(%rbp),%rcx
 62e:	44 29 f9             	sub    %r15d,%ecx
 631:	41 01 c8             	add    %ecx,%r8d
 634:	45 39 c6             	cmp    %r8d,%r14d
 637:	72 46                	jb     67f <inflate_fast+0x67f>
 639:	4c 89 d1             	mov    %r10,%rcx
 63c:	e9 36 ff ff ff       	jmpq   577 <inflate_fast+0x577>
 641:	44 0f b6 09          	movzbl (%rcx),%r9d
 645:	44 88 0e             	mov    %r9b,(%rsi)
 648:	4c 8d 76 01          	lea    0x1(%rsi),%r14
 64c:	41 83 f8 01          	cmp    $0x1,%r8d
 650:	77 32                	ja     684 <inflate_fast+0x684>
 652:	4c 89 f6             	mov    %r14,%rsi
 655:	4c 8b 4d c0          	mov    -0x40(%rbp),%r9
 659:	4c 8b 5d c8          	mov    -0x38(%rbp),%r11
 65d:	4c 8b 55 b8          	mov    -0x48(%rbp),%r10
 661:	e9 2e fb ff ff       	jmpq   194 <inflate_fast+0x194>
 666:	41 0f b6 48 04       	movzbl 0x4(%r8),%ecx
 66b:	41 88 0e             	mov    %cl,(%r14)
 66e:	48 83 c6 05          	add    $0x5,%rsi
 672:	4c 8b 5d c8          	mov    -0x38(%rbp),%r11
 676:	4c 8b 65 b0          	mov    -0x50(%rbp),%r12
 67a:	e9 15 fb ff ff       	jmpq   194 <inflate_fast+0x194>
 67f:	4c 89 f1             	mov    %r14,%rcx
 682:	eb 20                	jmp    6a4 <inflate_fast+0x6a4>
 684:	0f b6 49 01          	movzbl 0x1(%rcx),%ecx
 688:	41 88 0e             	mov    %cl,(%r14)
 68b:	48 83 c6 02          	add    $0x2,%rsi
 68f:	4c 8b 4d c0          	mov    -0x40(%rbp),%r9
 693:	4c 8b 5d c8          	mov    -0x38(%rbp),%r11
 697:	4c 8b 55 b8          	mov    -0x48(%rbp),%r10
 69b:	e9 f4 fa ff ff       	jmpq   194 <inflate_fast+0x194>
 6a0:	49 83 c2 01          	add    $0x1,%r10
 6a4:	45 0f b6 0a          	movzbl (%r10),%r9d
 6a8:	44 88 0e             	mov    %r9b,(%rsi)
 6ab:	48 83 c6 01          	add    $0x1,%rsi
 6af:	83 c1 ff             	add    $0xffffffff,%ecx
 6b2:	85 c9                	test   %ecx,%ecx
 6b4:	75 ea                	jne    6a0 <inflate_fast+0x6a0>
 6b6:	44 89 f9             	mov    %r15d,%ecx
 6b9:	48 f7 d9             	neg    %rcx
 6bc:	48 01 f1             	add    %rsi,%rcx
 6bf:	45 29 f0             	sub    %r14d,%r8d
 6c2:	e9 b0 fe ff ff       	jmpq   577 <inflate_fast+0x577>

inflate.o:     file format elf64-x86-64


Disassembly of section .text:

0000000000000000 <inflate>:
       0:	55                   	push   %rbp
       1:	48 89 e5             	mov    %rsp,%rbp
       4:	48 81 ec d0 01 00 00 	sub    $0x1d0,%rsp
       b:	4c 89 7d d8          	mov    %r15,-0x28(%rbp)
       f:	48 89 b5 98 fe ff ff 	mov    %rsi,-0x168(%rbp)
      16:	49 89 df             	mov    %rbx,%r15
      19:	48 89 fb             	mov    %rdi,%rbx
      1c:	e8 1f 32 00 00       	callq  3240 <inflateStateCheck>
      21:	85 c0                	test   %eax,%eax
      23:	74 10                	je     35 <inflate+0x35>
      25:	4c 89 fb             	mov    %r15,%rbx
      28:	48 c7 c0 fe ff ff ff 	mov    $0xfffffffffffffffe,%rax
      2f:	4c 8b 7d d8          	mov    -0x28(%rbp),%r15
      33:	c9                   	leaveq 
      34:	c3                   	retq   
      35:	48 8b 43 18          	mov    0x18(%rbx),%rax
      39:	48 85 c0             	test   %rax,%rax
      3c:	75 10                	jne    4e <inflate+0x4e>
      3e:	4c 89 fb             	mov    %r15,%rbx
      41:	48 c7 c0 fe ff ff ff 	mov    $0xfffffffffffffffe,%rax
      48:	4c 8b 7d d8          	mov    -0x28(%rbp),%r15
      4c:	c9                   	leaveq 
      4d:	c3                   	retq   
      4e:	48 8b 03             	mov    (%rbx),%rax
      51:	48 85 c0             	test   %rax,%rax
      54:	0f 84 f0 00 00 00    	je     14a <inflate+0x14a>
      5a:	48 8b 53 38          	mov    0x38(%rbx),%rdx
      5e:	8b 42 08             	mov    0x8(%rdx),%eax
      61:	3d 3f 3f 00 00       	cmp    $0x3f3f,%eax
      66:	75 07                	jne    6f <inflate+0x6f>
      68:	c7 42 08 40 3f 00 00 	movl   $0x3f40,0x8(%rdx)
      6f:	48 8b 7b 18          	mov    0x18(%rbx),%rdi
      73:	8b 73 20             	mov    0x20(%rbx),%esi
      76:	4c 8b 03             	mov    (%rbx),%r8
      79:	44 8b 5b 08          	mov    0x8(%rbx),%r11d
      7d:	4c 89 5d d0          	mov    %r11,-0x30(%rbp)
      81:	4c 8b 52 50          	mov    0x50(%rdx),%r10
      85:	8b 4a 58             	mov    0x58(%rdx),%ecx
      88:	31 c0                	xor    %eax,%eax
      8a:	48 89 85 c8 fe ff ff 	mov    %rax,-0x138(%rbp)
      91:	4c 89 75 e0          	mov    %r14,-0x20(%rbp)
      95:	4c 8d 8a 58 05 00 00 	lea    0x558(%rdx),%r9
      9c:	4c 89 8d 60 fe ff ff 	mov    %r9,-0x1a0(%rbp)
      a3:	4c 8d 8a 98 00 00 00 	lea    0x98(%rdx),%r9
      aa:	4c 89 8d 50 fe ff ff 	mov    %r9,-0x1b0(%rbp)
      b1:	4c 8d 8a 90 00 00 00 	lea    0x90(%rdx),%r9
      b8:	4c 89 8d 78 fe ff ff 	mov    %r9,-0x188(%rbp)
      bf:	4c 8d 4a 78          	lea    0x78(%rdx),%r9
      c3:	4c 89 6d e8          	mov    %r13,-0x18(%rbp)
      c7:	4c 89 8d 70 fe ff ff 	mov    %r9,-0x190(%rbp)
      ce:	4c 8d 8a 18 03 00 00 	lea    0x318(%rdx),%r9
      d5:	4c 89 8d 68 fe ff ff 	mov    %r9,-0x198(%rbp)
      dc:	4c 8d 4a 7c          	lea    0x7c(%rdx),%r9
      e0:	4c 89 65 f0          	mov    %r12,-0x10(%rbp)
      e4:	4c 89 8d 40 fe ff ff 	mov    %r9,-0x1c0(%rbp)
      eb:	4c 89 7d f8          	mov    %r15,-0x8(%rbp)
      ef:	41 bc 3d 3f 00 00    	mov    $0x3f3d,%r12d
      f5:	4c 89 65 c0          	mov    %r12,-0x40(%rbp)
      f9:	41 bc 3f 3f 00 00    	mov    $0x3f3f,%r12d
      ff:	4c 89 65 c8          	mov    %r12,-0x38(%rbp)
     103:	49 89 d4             	mov    %rdx,%r12
     106:	49 89 f6             	mov    %rsi,%r14
     109:	49 89 ff             	mov    %rdi,%r15
     10c:	48 8b b5 98 fe ff ff 	mov    -0x168(%rbp),%rsi
     113:	4d 89 f5             	mov    %r14,%r13
     116:	48 89 85 b8 fe ff ff 	mov    %rax,-0x148(%rbp)
     11d:	41 8b 54 24 08       	mov    0x8(%r12),%edx
     122:	81 c2 cc c0 ff ff    	add    $0xffffc0cc,%edx
     128:	83 fa 1e             	cmp    $0x1e,%edx
     12b:	76 38                	jbe    165 <inflate+0x165>
     12d:	48 8b 5d f8          	mov    -0x8(%rbp),%rbx
     131:	4c 8b 65 f0          	mov    -0x10(%rbp),%r12
     135:	4c 8b 6d e8          	mov    -0x18(%rbp),%r13
     139:	4c 8b 75 e0          	mov    -0x20(%rbp),%r14
     13d:	48 c7 c0 fe ff ff ff 	mov    $0xfffffffffffffffe,%rax
     144:	4c 8b 7d d8          	mov    -0x28(%rbp),%r15
     148:	c9                   	leaveq 
     149:	c3                   	retq   
     14a:	8b 43 08             	mov    0x8(%rbx),%eax
     14d:	85 c0                	test   %eax,%eax
     14f:	0f 84 05 ff ff ff    	je     5a <inflate+0x5a>
     155:	4c 89 fb             	mov    %r15,%rbx
     158:	48 c7 c0 fe ff ff ff 	mov    $0xfffffffffffffffe,%rax
     15f:	4c 8b 7d d8          	mov    -0x28(%rbp),%r15
     163:	c9                   	leaveq 
     164:	c3                   	retq   
     165:	48 8d 3d 00 00 00 00 	lea    0x0(%rip),%rdi        # 16c <inflate+0x16c>
     16c:	48 63 14 97          	movslq (%rdi,%rdx,4),%rdx
     170:	48 01 fa             	add    %rdi,%rdx
     173:	ff e2                	jmpq   *%rdx
     175:	49 63 54 24 10       	movslq 0x10(%r12),%rdx
     17a:	85 d2                	test   %edx,%edx
     17c:	74 0d                	je     18b <inflate+0x18b>
     17e:	49 63 54 24 18       	movslq 0x18(%r12),%rdx
     183:	85 d2                	test   %edx,%edx
     185:	0f 85 d8 0a 00 00    	jne    c63 <inflate+0xc63>
     18b:	41 c7 44 24 08 50 3f 	movl   $0x3f50,0x8(%r12)
     192:	00 00 
     194:	b8 01 00 00 00       	mov    $0x1,%eax
     199:	48 8b b5 98 fe ff ff 	mov    -0x168(%rbp),%rsi
     1a0:	4c 89 7b 18          	mov    %r15,0x18(%rbx)
     1a4:	44 89 6b 20          	mov    %r13d,0x20(%rbx)
     1a8:	4c 89 03             	mov    %r8,(%rbx)
     1ab:	44 89 5b 08          	mov    %r11d,0x8(%rbx)
     1af:	4d 89 54 24 50       	mov    %r10,0x50(%r12)
     1b4:	41 89 4c 24 58       	mov    %ecx,0x58(%r12)
     1b9:	41 8b 4c 24 3c       	mov    0x3c(%r12),%ecx
     1be:	85 c9                	test   %ecx,%ecx
     1c0:	0f 84 d0 0a 00 00    	je     c96 <inflate+0xc96>
     1c6:	8b 4b 20             	mov    0x20(%rbx),%ecx
     1c9:	4c 89 f2             	mov    %r14,%rdx
     1cc:	29 ca                	sub    %ecx,%edx
     1ce:	49 89 f5             	mov    %rsi,%r13
     1d1:	49 89 c7             	mov    %rax,%r15
     1d4:	48 8b 73 18          	mov    0x18(%rbx),%rsi
     1d8:	48 89 df             	mov    %rbx,%rdi
     1db:	e8 f0 30 00 00       	callq  32d0 <updatewindow>
     1e0:	85 c0                	test   %eax,%eax
     1e2:	0f 85 e5 0a 00 00    	jne    ccd <inflate+0xccd>
     1e8:	4c 89 f8             	mov    %r15,%rax
     1eb:	4c 89 ee             	mov    %r13,%rsi
     1ee:	44 8b 6b 08          	mov    0x8(%rbx),%r13d
     1f2:	4c 8b 7d d0          	mov    -0x30(%rbp),%r15
     1f6:	4c 89 f9             	mov    %r15,%rcx
     1f9:	44 29 e9             	sub    %r13d,%ecx
     1fc:	89 c9                	mov    %ecx,%ecx
     1fe:	48 03 4b 10          	add    0x10(%rbx),%rcx
     202:	48 89 4b 10          	mov    %rcx,0x10(%rbx)
     206:	44 8b 43 20          	mov    0x20(%rbx),%r8d
     20a:	4c 89 f2             	mov    %r14,%rdx
     20d:	44 29 c2             	sub    %r8d,%edx
     210:	89 d1                	mov    %edx,%ecx
     212:	48 89 cf             	mov    %rcx,%rdi
     215:	48 03 7b 28          	add    0x28(%rbx),%rdi
     219:	48 89 7b 28          	mov    %rdi,0x28(%rbx)
     21d:	49 03 4c 24 28       	add    0x28(%r12),%rcx
     222:	49 89 4c 24 28       	mov    %rcx,0x28(%r12)
     227:	49 63 4c 24 10       	movslq 0x10(%r12),%rcx
     22c:	83 e1 04             	and    $0x4,%ecx
     22f:	85 c9                	test   %ecx,%ecx
     231:	0f 8e fb 0a 00 00    	jle    d32 <inflate+0xd32>
     237:	45 39 c6             	cmp    %r8d,%r14d
     23a:	0f 84 f2 0a 00 00    	je     d32 <inflate+0xd32>
     240:	49 63 4c 24 18       	movslq 0x18(%r12),%rcx
     245:	85 c9                	test   %ecx,%ecx
     247:	0f 85 a6 0a 00 00    	jne    cf3 <inflate+0xcf3>
     24d:	48 8b 73 18          	mov    0x18(%rbx),%rsi
     251:	89 d1                	mov    %edx,%ecx
     253:	48 29 ce             	sub    %rcx,%rsi
     256:	49 8b 7c 24 20       	mov    0x20(%r12),%rdi
     25b:	4c 89 85 40 fe ff ff 	mov    %r8,-0x1c0(%rbp)
     262:	48 89 85 50 fe ff ff 	mov    %rax,-0x1b0(%rbp)
     269:	e8 00 00 00 00       	callq  26e <inflate+0x26e>
     26e:	e9 a1 0a 00 00       	jmpq   d14 <inflate+0xd14>
     273:	45 85 db             	test   %r11d,%r11d
     276:	0f 84 cf 0a 00 00    	je     d4b <inflate+0xd4b>
     27c:	41 0f b6 10          	movzbl (%r8),%edx
     280:	48 d3 e2             	shl    %cl,%rdx
     283:	49 01 d2             	add    %rdx,%r10
     286:	49 83 c0 01          	add    $0x1,%r8
     28a:	41 83 c3 ff          	add    $0xffffffff,%r11d
     28e:	83 c1 08             	add    $0x8,%ecx
     291:	83 f9 1f             	cmp    $0x1f,%ecx
     294:	76 dd                	jbe    273 <inflate+0x273>
     296:	b8 00 00 00 ff       	mov    $0xff000000,%eax
     29b:	4c 21 d0             	and    %r10,%rax
     29e:	48 c1 e8 18          	shr    $0x18,%rax
     2a2:	4c 89 d1             	mov    %r10,%rcx
     2a5:	48 81 e1 00 00 ff 00 	and    $0xff0000,%rcx
     2ac:	48 c1 e9 08          	shr    $0x8,%rcx
     2b0:	48 01 c1             	add    %rax,%rcx
     2b3:	4c 89 d0             	mov    %r10,%rax
     2b6:	48 25 00 ff 00 00    	and    $0xff00,%rax
     2bc:	48 c1 e0 08          	shl    $0x8,%rax
     2c0:	48 01 c1             	add    %rax,%rcx
     2c3:	41 0f b6 c2          	movzbl %r10b,%eax
     2c7:	48 c1 e0 18          	shl    $0x18,%rax
     2cb:	48 01 c8             	add    %rcx,%rax
     2ce:	49 89 44 24 20       	mov    %rax,0x20(%r12)
     2d3:	48 89 43 60          	mov    %rax,0x60(%rbx)
     2d7:	41 c7 44 24 08 3e 3f 	movl   $0x3f3e,0x8(%r12)
     2de:	00 00 
     2e0:	31 c9                	xor    %ecx,%ecx
     2e2:	49 89 ca             	mov    %rcx,%r10
     2e5:	49 63 44 24 14       	movslq 0x14(%r12),%rax
     2ea:	85 c0                	test   %eax,%eax
     2ec:	0f 84 61 0a 00 00    	je     d53 <inflate+0xd53>
     2f2:	31 d2                	xor    %edx,%edx
     2f4:	48 89 d6             	mov    %rdx,%rsi
     2f7:	31 ff                	xor    %edi,%edi
     2f9:	4c 89 bd d0 fe ff ff 	mov    %r15,-0x130(%rbp)
     300:	4c 89 b5 50 ff ff ff 	mov    %r14,-0xb0(%rbp)
     307:	48 89 8d 90 fe ff ff 	mov    %rcx,-0x170(%rbp)
     30e:	4c 89 ad 28 ff ff ff 	mov    %r13,-0xd8(%rbp)
     315:	4d 89 c5             	mov    %r8,%r13
     318:	4d 89 d6             	mov    %r10,%r14
     31b:	4d 89 df             	mov    %r11,%r15
     31e:	e8 00 00 00 00       	callq  323 <inflate+0x323>
     323:	49 89 44 24 20       	mov    %rax,0x20(%r12)
     328:	48 89 43 60          	mov    %rax,0x60(%rbx)
     32c:	41 c7 44 24 08 3f 3f 	movl   $0x3f3f,0x8(%r12)
     333:	00 00 
     335:	4d 89 e8             	mov    %r13,%r8
     338:	4d 89 f2             	mov    %r14,%r10
     33b:	4d 89 fb             	mov    %r15,%r11
     33e:	4c 8b ad 28 ff ff ff 	mov    -0xd8(%rbp),%r13
     345:	48 8b 8d 90 fe ff ff 	mov    -0x170(%rbp),%rcx
     34c:	4c 8b b5 50 ff ff ff 	mov    -0xb0(%rbp),%r14
     353:	4c 8b 8d 40 fe ff ff 	mov    -0x1c0(%rbp),%r9
     35a:	48 8b 85 b8 fe ff ff 	mov    -0x148(%rbp),%rax
     361:	4c 8b bd d0 fe ff ff 	mov    -0x130(%rbp),%r15
     368:	48 8b b5 98 fe ff ff 	mov    -0x168(%rbp),%rsi
     36f:	83 fe 05             	cmp    $0x5,%esi
     372:	0f 84 28 fe ff ff    	je     1a0 <inflate+0x1a0>
     378:	83 fe 06             	cmp    $0x6,%esi
     37b:	0f 84 1f fe ff ff    	je     1a0 <inflate+0x1a0>
     381:	49 63 54 24 0c       	movslq 0xc(%r12),%rdx
     386:	85 d2                	test   %edx,%edx
     388:	0f 84 17 0a 00 00    	je     da5 <inflate+0xda5>
     38e:	48 89 ca             	mov    %rcx,%rdx
     391:	48 89 d1             	mov    %rdx,%rcx
     394:	83 e1 07             	and    $0x7,%ecx
     397:	49 d3 ea             	shr    %cl,%r10
     39a:	48 89 d1             	mov    %rdx,%rcx
     39d:	83 e1 f8             	and    $0xfffffff8,%ecx
     3a0:	41 c7 44 24 08 4e 3f 	movl   $0x3f4e,0x8(%r12)
     3a7:	00 00 
     3a9:	e9 68 fd ff ff       	jmpq   116 <inflate+0x116>
     3ae:	41 0f b7 94 24 98 02 	movzwl 0x298(%r12),%edx
     3b5:	00 00 
     3b7:	66 85 d2             	test   %dx,%dx
     3ba:	0f 84 32 0a 00 00    	je     df2 <inflate+0xdf2>
     3c0:	48 8b 85 78 fe ff ff 	mov    -0x188(%rbp),%rax
     3c7:	48 8b 95 60 fe ff ff 	mov    -0x1a0(%rbp),%rdx
     3ce:	48 89 10             	mov    %rdx,(%rax)
     3d1:	49 89 54 24 68       	mov    %rdx,0x68(%r12)
     3d6:	c7 06 09 00 00 00    	movl   $0x9,(%rsi)
     3dc:	41 8b 94 24 84 00 00 	mov    0x84(%r12),%edx
     3e3:	00 
     3e4:	48 89 8d 80 fe ff ff 	mov    %rcx,-0x180(%rbp)
     3eb:	48 89 c1             	mov    %rax,%rcx
     3ee:	4c 89 9d 48 fe ff ff 	mov    %r11,-0x1b8(%rbp)
     3f5:	4c 8b 9d 68 fe ff ff 	mov    -0x198(%rbp),%r11
     3fc:	4c 89 b5 b8 fe ff ff 	mov    %r14,-0x148(%rbp)
     403:	4c 89 95 88 fe ff ff 	mov    %r10,-0x178(%rbp)
     40a:	4c 89 85 08 ff ff ff 	mov    %r8,-0xf8(%rbp)
     411:	49 89 f0             	mov    %rsi,%r8
     414:	4c 89 ce             	mov    %r9,%rsi
     417:	4d 89 d9             	mov    %r11,%r9
     41a:	49 89 c6             	mov    %rax,%r14
     41d:	e8 00 00 00 00       	callq  422 <inflate+0x422>
     422:	85 c0                	test   %eax,%eax
     424:	0f 85 ef 09 00 00    	jne    e19 <inflate+0xe19>
     42a:	49 8b 06             	mov    (%r14),%rax
     42d:	49 89 44 24 70       	mov    %rax,0x70(%r12)
     432:	41 c7 44 24 7c 06 00 	movl   $0x6,0x7c(%r12)
     439:	00 00 
     43b:	41 8b 84 24 84 00 00 	mov    0x84(%r12),%eax
     442:	00 
     443:	49 8d b4 44 98 00 00 	lea    0x98(%r12,%rax,2),%rsi
     44a:	00 
     44b:	41 8b 94 24 88 00 00 	mov    0x88(%r12),%edx
     452:	00 
     453:	bf 02 00 00 00       	mov    $0x2,%edi
     458:	4c 89 f1             	mov    %r14,%rcx
     45b:	4c 8b b5 40 fe ff ff 	mov    -0x1c0(%rbp),%r14
     462:	4d 89 f0             	mov    %r14,%r8
     465:	4c 8b 8d 68 fe ff ff 	mov    -0x198(%rbp),%r9
     46c:	e8 00 00 00 00       	callq  471 <inflate+0x471>
     471:	85 c0                	test   %eax,%eax
     473:	0f 85 ea 09 00 00    	jne    e63 <inflate+0xe63>
     479:	48 8b b5 98 fe ff ff 	mov    -0x168(%rbp),%rsi
     480:	83 fe 06             	cmp    $0x6,%esi
     483:	41 c7 44 24 08 47 3f 	movl   $0x3f47,0x8(%r12)
     48a:	00 00 
     48c:	0f 84 17 0a 00 00    	je     ea9 <inflate+0xea9>
     492:	4d 89 f1             	mov    %r14,%r9
     495:	4c 8b 85 08 ff ff ff 	mov    -0xf8(%rbp),%r8
     49c:	4c 8b 95 88 fe ff ff 	mov    -0x178(%rbp),%r10
     4a3:	4c 8b 9d 48 fe ff ff 	mov    -0x1b8(%rbp),%r11
     4aa:	48 8b 8d 80 fe ff ff 	mov    -0x180(%rbp),%rcx
     4b1:	4c 8b b5 b8 fe ff ff 	mov    -0x148(%rbp),%r14
     4b8:	31 c0                	xor    %eax,%eax
     4ba:	41 c7 44 24 08 48 3f 	movl   $0x3f48,0x8(%r12)
     4c1:	00 00 
     4c3:	41 83 fb 05          	cmp    $0x5,%r11d
     4c7:	0f 87 06 0a 00 00    	ja     ed3 <inflate+0xed3>
     4cd:	41 c7 84 24 ec 1b 00 	movl   $0x0,0x1bec(%r12)
     4d4:	00 00 00 00 00 
     4d9:	48 89 85 c0 fe ff ff 	mov    %rax,-0x140(%rbp)
     4e0:	48 8b 85 70 fe ff ff 	mov    -0x190(%rbp),%rax
     4e7:	ba 01 00 00 00       	mov    $0x1,%edx
     4ec:	e9 7a 0a 00 00       	jmpq   f6b <inflate+0xf6b>
     4f1:	45 85 db             	test   %r11d,%r11d
     4f4:	0f 84 1c 0b 00 00    	je     1016 <inflate+0x1016>
     4fa:	49 8d 70 01          	lea    0x1(%r8),%rsi
     4fe:	41 0f b6 10          	movzbl (%r8),%edx
     502:	48 d3 e2             	shl    %cl,%rdx
     505:	49 01 d2             	add    %rdx,%r10
     508:	83 c1 08             	add    $0x8,%ecx
     50b:	41 83 c3 ff          	add    $0xffffffff,%r11d
     50f:	49 89 f0             	mov    %rsi,%r8
     512:	83 f9 02             	cmp    $0x2,%ecx
     515:	76 da                	jbe    4f1 <inflate+0x4f1>
     517:	41 8b b4 24 8c 00 00 	mov    0x8c(%r12),%esi
     51e:	00 
     51f:	8d 56 01             	lea    0x1(%rsi),%edx
     522:	41 89 94 24 8c 00 00 	mov    %edx,0x8c(%r12)
     529:	00 
     52a:	48 8d 15 00 00 00 00 	lea    0x0(%rip),%rdx        # 531 <inflate+0x531>
     531:	0f b7 14 72          	movzwl (%rdx,%rsi,2),%edx
     535:	4c 89 d6             	mov    %r10,%rsi
     538:	66 83 e6 07          	and    $0x7,%si
     53c:	48 8b bd 50 fe ff ff 	mov    -0x1b0(%rbp),%rdi
     543:	66 89 34 57          	mov    %si,(%rdi,%rdx,2)
     547:	49 c1 ea 03          	shr    $0x3,%r10
     54b:	83 c1 fd             	add    $0xfffffffd,%ecx
     54e:	41 8b 94 24 80 00 00 	mov    0x80(%r12),%edx
     555:	00 
     556:	41 3b 94 24 8c 00 00 	cmp    0x8c(%r12),%edx
     55d:	00 
     55e:	77 b2                	ja     512 <inflate+0x512>
     560:	48 8d 3d 00 00 00 00 	lea    0x0(%rip),%rdi        # 567 <inflate+0x567>
     567:	48 8b b5 50 fe ff ff 	mov    -0x1b0(%rbp),%rsi
     56e:	e9 c7 0a 00 00       	jmpq   103a <inflate+0x103a>
     573:	45 85 db             	test   %r11d,%r11d
     576:	0f 84 8f 0b 00 00    	je     110b <inflate+0x110b>
     57c:	41 0f b6 10          	movzbl (%r8),%edx
     580:	48 d3 e2             	shl    %cl,%rdx
     583:	49 01 d2             	add    %rdx,%r10
     586:	49 83 c0 01          	add    $0x1,%r8
     58a:	41 83 c3 ff          	add    $0xffffffff,%r11d
     58e:	83 c1 08             	add    $0x8,%ecx
     591:	83 f9 0d             	cmp    $0xd,%ecx
     594:	76 dd                	jbe    573 <inflate+0x573>
     596:	4c 89 d2             	mov    %r10,%rdx
     599:	83 e2 1f             	and    $0x1f,%edx
     59c:	8d ba 01 01 00 00    	lea    0x101(%rdx),%edi
     5a2:	41 89 bc 24 84 00 00 	mov    %edi,0x84(%r12)
     5a9:	00 
     5aa:	4c 89 d2             	mov    %r10,%rdx
     5ad:	48 c1 ea 05          	shr    $0x5,%rdx
     5b1:	83 e2 1f             	and    $0x1f,%edx
     5b4:	8d 72 01             	lea    0x1(%rdx),%esi
     5b7:	41 89 b4 24 88 00 00 	mov    %esi,0x88(%r12)
     5be:	00 
     5bf:	4c 89 d2             	mov    %r10,%rdx
     5c2:	48 c1 ea 0a          	shr    $0xa,%rdx
     5c6:	83 e2 0f             	and    $0xf,%edx
     5c9:	83 c2 04             	add    $0x4,%edx
     5cc:	41 89 94 24 80 00 00 	mov    %edx,0x80(%r12)
     5d3:	00 
     5d4:	49 c1 ea 0e          	shr    $0xe,%r10
     5d8:	83 c1 f2             	add    $0xfffffff2,%ecx
     5db:	81 ff 1e 01 00 00    	cmp    $0x11e,%edi
     5e1:	0f 86 2c 0b 00 00    	jbe    1113 <inflate+0x1113>
     5e7:	48 8d 15 00 00 00 00 	lea    0x0(%rip),%rdx        # 5ee <inflate+0x5ee>
     5ee:	48 89 53 30          	mov    %rdx,0x30(%rbx)
     5f2:	41 c7 44 24 08 51 3f 	movl   $0x3f51,0x8(%r12)
     5f9:	00 00 
     5fb:	48 8b b5 98 fe ff ff 	mov    -0x168(%rbp),%rsi
     602:	e9 0f fb ff ff       	jmpq   116 <inflate+0x116>
     607:	45 85 db             	test   %r11d,%r11d
     60a:	0f 84 26 0b 00 00    	je     1136 <inflate+0x1136>
     610:	41 0f b6 10          	movzbl (%r8),%edx
     614:	48 d3 e2             	shl    %cl,%rdx
     617:	49 01 d2             	add    %rdx,%r10
     61a:	49 83 c0 01          	add    $0x1,%r8
     61e:	41 83 c3 ff          	add    $0xffffffff,%r11d
     622:	83 c1 08             	add    $0x8,%ecx
     625:	83 f9 18             	cmp    $0x18,%ecx
     628:	76 dd                	jbe    607 <inflate+0x607>
     62a:	4c 89 d2             	mov    %r10,%rdx
     62d:	48 c1 ea 10          	shr    $0x10,%rdx
     631:	48 81 f2 ff ff 00 00 	xor    $0xffff,%rdx
     638:	41 0f b7 fa          	movzwl %r10w,%edi
     63c:	48 39 fa             	cmp    %rdi,%rdx
     63f:	0f 85 f9 0a 00 00    	jne    113e <inflate+0x113e>
     645:	83 fe 06             	cmp    $0x6,%esi
     648:	41 0f b7 ca          	movzwl %r10w,%ecx
     64c:	41 89 4c 24 5c       	mov    %ecx,0x5c(%r12)
     651:	41 c7 44 24 08 42 3f 	movl   $0x3f42,0x8(%r12)
     658:	00 00 
     65a:	0f 84 f7 0a 00 00    	je     1157 <inflate+0x1157>
     660:	31 c9                	xor    %ecx,%ecx
     662:	49 89 ca             	mov    %rcx,%r10
     665:	41 c7 44 24 08 43 3f 	movl   $0x3f43,0x8(%r12)
     66c:	00 00 
     66e:	41 8b 54 24 5c       	mov    0x5c(%r12),%edx
     673:	85 d2                	test   %edx,%edx
     675:	0f 85 e6 0a 00 00    	jne    1161 <inflate+0x1161>
     67b:	41 c7 44 24 08 3f 3f 	movl   $0x3f3f,0x8(%r12)
     682:	00 00 
     684:	e9 8d fa ff ff       	jmpq   116 <inflate+0x116>
     689:	49 63 54 24 18       	movslq 0x18(%r12),%rdx
     68e:	81 e2 00 02 00 00    	and    $0x200,%edx
     694:	85 d2                	test   %edx,%edx
     696:	0f 8f 72 0b 00 00    	jg     120e <inflate+0x120e>
     69c:	41 29 cb             	sub    %ecx,%r11d
     69f:	45 84 d2             	test   %r10b,%r10b
     6a2:	89 c9                	mov    %ecx,%ecx
     6a4:	4d 8d 04 08          	lea    (%r8,%rcx,1),%r8
     6a8:	0f 85 e2 0b 00 00    	jne    1290 <inflate+0x1290>
     6ae:	48 8b 8d a8 fe ff ff 	mov    -0x158(%rbp),%rcx
     6b5:	4c 8b 95 b0 fe ff ff 	mov    -0x150(%rbp),%r10
     6bc:	41 c7 44 24 08 3c 3f 	movl   $0x3f3c,0x8(%r12)
     6c3:	00 00 
     6c5:	48 8b b5 98 fe ff ff 	mov    -0x168(%rbp),%rsi
     6cc:	49 63 54 24 18       	movslq 0x18(%r12),%rdx
     6d1:	81 e2 00 02 00 00    	and    $0x200,%edx
     6d7:	85 d2                	test   %edx,%edx
     6d9:	0f 8f ec 0b 00 00    	jg     12cb <inflate+0x12cb>
     6df:	49 8b 54 24 30       	mov    0x30(%r12),%rdx
     6e4:	48 85 d2             	test   %rdx,%rdx
     6e7:	74 1c                	je     705 <inflate+0x705>
     6e9:	49 63 44 24 18       	movslq 0x18(%r12),%rax
     6ee:	25 00 02 00 00       	and    $0x200,%eax
     6f3:	c1 e8 09             	shr    $0x9,%eax
     6f6:	89 42 44             	mov    %eax,0x44(%rdx)
     6f9:	49 8b 44 24 30       	mov    0x30(%r12),%rax
     6fe:	c7 40 48 01 00 00 00 	movl   $0x1,0x48(%rax)
     705:	31 d2                	xor    %edx,%edx
     707:	48 89 d6             	mov    %rdx,%rsi
     70a:	31 ff                	xor    %edi,%edi
     70c:	4c 89 95 10 ff ff ff 	mov    %r10,-0xf0(%rbp)
     713:	4c 89 45 a8          	mov    %r8,-0x58(%rbp)
     717:	4c 89 9d f8 fe ff ff 	mov    %r11,-0x108(%rbp)
     71e:	48 89 8d 20 ff ff ff 	mov    %rcx,-0xe0(%rbp)
     725:	e8 00 00 00 00       	callq  72a <inflate+0x72a>
     72a:	49 89 44 24 20       	mov    %rax,0x20(%r12)
     72f:	48 89 43 60          	mov    %rax,0x60(%rbx)
     733:	41 c7 44 24 08 3f 3f 	movl   $0x3f3f,0x8(%r12)
     73a:	00 00 
     73c:	48 8b 8d 20 ff ff ff 	mov    -0xe0(%rbp),%rcx
     743:	4c 8b 9d f8 fe ff ff 	mov    -0x108(%rbp),%r11
     74a:	4c 8b 45 a8          	mov    -0x58(%rbp),%r8
     74e:	4c 8b 95 10 ff ff ff 	mov    -0xf0(%rbp),%r10
     755:	4c 8b 8d 40 fe ff ff 	mov    -0x1c0(%rbp),%r9
     75c:	48 8b 85 b8 fe ff ff 	mov    -0x148(%rbp),%rax
     763:	48 8b b5 98 fe ff ff 	mov    -0x168(%rbp),%rsi
     76a:	e9 a7 f9 ff ff       	jmpq   116 <inflate+0x116>
     76f:	49 63 54 24 18       	movslq 0x18(%r12),%rdx
     774:	81 e2 00 02 00 00    	and    $0x200,%edx
     77a:	85 d2                	test   %edx,%edx
     77c:	7e 79                	jle    7f7 <inflate+0x7f7>
     77e:	49 63 54 24 10       	movslq 0x10(%r12),%rdx
     783:	83 e2 04             	and    $0x4,%edx
     786:	85 d2                	test   %edx,%edx
     788:	7e 6d                	jle    7f7 <inflate+0x7f7>
     78a:	49 8b 7c 24 20       	mov    0x20(%r12),%rdi
     78f:	4c 89 c6             	mov    %r8,%rsi
     792:	48 89 ca             	mov    %rcx,%rdx
     795:	4c 89 bd e8 fe ff ff 	mov    %r15,-0x118(%rbp)
     79c:	48 89 5d 98          	mov    %rbx,-0x68(%rbp)
     7a0:	4c 89 b5 70 ff ff ff 	mov    %r14,-0x90(%rbp)
     7a7:	4c 89 ad 48 ff ff ff 	mov    %r13,-0xb8(%rbp)
     7ae:	48 89 cb             	mov    %rcx,%rbx
     7b1:	4d 89 d5             	mov    %r10,%r13
     7b4:	4d 89 c6             	mov    %r8,%r14
     7b7:	4d 89 df             	mov    %r11,%r15
     7ba:	e8 00 00 00 00       	callq  7bf <inflate+0x7bf>
     7bf:	49 89 44 24 20       	mov    %rax,0x20(%r12)
     7c4:	48 89 d9             	mov    %rbx,%rcx
     7c7:	4d 89 f0             	mov    %r14,%r8
     7ca:	4d 89 ea             	mov    %r13,%r10
     7cd:	4d 89 fb             	mov    %r15,%r11
     7d0:	4c 8b ad 48 ff ff ff 	mov    -0xb8(%rbp),%r13
     7d7:	4c 8b b5 70 ff ff ff 	mov    -0x90(%rbp),%r14
     7de:	48 8b 5d 98          	mov    -0x68(%rbp),%rbx
     7e2:	4c 8b 8d 40 fe ff ff 	mov    -0x1c0(%rbp),%r9
     7e9:	48 8b 85 b8 fe ff ff 	mov    -0x148(%rbp),%rax
     7f0:	4c 8b bd e8 fe ff ff 	mov    -0x118(%rbp),%r15
     7f7:	41 29 cb             	sub    %ecx,%r11d
     7fa:	45 84 d2             	test   %r10b,%r10b
     7fd:	89 c9                	mov    %ecx,%ecx
     7ff:	4d 8d 04 08          	lea    (%r8,%rcx,1),%r8
     803:	0f 85 e1 0a 00 00    	jne    12ea <inflate+0x12ea>
     809:	48 8b 8d a8 fe ff ff 	mov    -0x158(%rbp),%rcx
     810:	4c 8b 95 b0 fe ff ff 	mov    -0x150(%rbp),%r10
     817:	41 c7 44 24 5c 00 00 	movl   $0x0,0x5c(%r12)
     81e:	00 00 
     820:	41 c7 44 24 08 3b 3f 	movl   $0x3f3b,0x8(%r12)
     827:	00 00 
     829:	49 63 54 24 18       	movslq 0x18(%r12),%rdx
     82e:	81 e2 00 10 00 00    	and    $0x1000,%edx
     834:	85 d2                	test   %edx,%edx
     836:	0f 8f c8 0a 00 00    	jg     1304 <inflate+0x1304>
     83c:	49 8b 54 24 30       	mov    0x30(%r12),%rdx
     841:	48 85 d2             	test   %rdx,%rdx
     844:	0f 84 72 fe ff ff    	je     6bc <inflate+0x6bc>
     84a:	48 c7 42 38 00 00 00 	movq   $0x0,0x38(%rdx)
     851:	00 
     852:	e9 65 fe ff ff       	jmpq   6bc <inflate+0x6bc>
     857:	45 85 db             	test   %r11d,%r11d
     85a:	0f 84 c2 0a 00 00    	je     1322 <inflate+0x1322>
     860:	49 8d 70 01          	lea    0x1(%r8),%rsi
     864:	41 0f b6 10          	movzbl (%r8),%edx
     868:	48 d3 e2             	shl    %cl,%rdx
     86b:	49 01 d2             	add    %rdx,%r10
     86e:	83 c1 08             	add    $0x8,%ecx
     871:	41 83 c3 ff          	add    $0xffffffff,%r11d
     875:	49 89 f0             	mov    %rsi,%r8
     878:	83 f9 0f             	cmp    $0xf,%ecx
     87b:	76 da                	jbe    857 <inflate+0x857>
     87d:	49 8b 4c 24 30       	mov    0x30(%r12),%rcx
     882:	48 85 c9             	test   %rcx,%rcx
     885:	74 16                	je     89d <inflate+0x89d>
     887:	41 0f b6 d2          	movzbl %r10b,%edx
     88b:	89 51 10             	mov    %edx,0x10(%rcx)
     88e:	4c 89 d2             	mov    %r10,%rdx
     891:	48 c1 ea 08          	shr    $0x8,%rdx
     895:	49 8b 4c 24 30       	mov    0x30(%r12),%rcx
     89a:	89 51 14             	mov    %edx,0x14(%rcx)
     89d:	49 63 4c 24 18       	movslq 0x18(%r12),%rcx
     8a2:	81 e1 00 02 00 00    	and    $0x200,%ecx
     8a8:	85 c9                	test   %ecx,%ecx
     8aa:	7e 6f                	jle    91b <inflate+0x91b>
     8ac:	49 63 4c 24 10       	movslq 0x10(%r12),%rcx
     8b1:	83 e1 04             	and    $0x4,%ecx
     8b4:	85 c9                	test   %ecx,%ecx
     8b6:	7e 63                	jle    91b <inflate+0x91b>
     8b8:	44 88 95 3c fe ff ff 	mov    %r10b,-0x1c4(%rbp)
     8bf:	49 c1 ea 08          	shr    $0x8,%r10
     8c3:	44 88 95 3d fe ff ff 	mov    %r10b,-0x1c3(%rbp)
     8ca:	49 8b 7c 24 20       	mov    0x20(%r12),%rdi
     8cf:	48 8d b5 3c fe ff ff 	lea    -0x1c4(%rbp),%rsi
     8d6:	ba 02 00 00 00       	mov    $0x2,%edx
     8db:	4c 89 b5 60 ff ff ff 	mov    %r14,-0xa0(%rbp)
     8e2:	4c 89 ad 38 ff ff ff 	mov    %r13,-0xc8(%rbp)
     8e9:	4d 89 c5             	mov    %r8,%r13
     8ec:	4d 89 de             	mov    %r11,%r14
     8ef:	e8 00 00 00 00       	callq  8f4 <inflate+0x8f4>
     8f4:	49 89 44 24 20       	mov    %rax,0x20(%r12)
     8f9:	4d 89 e8             	mov    %r13,%r8
     8fc:	4d 89 f3             	mov    %r14,%r11
     8ff:	4c 8b ad 38 ff ff ff 	mov    -0xc8(%rbp),%r13
     906:	4c 8b b5 60 ff ff ff 	mov    -0xa0(%rbp),%r14
     90d:	4c 8b 8d 40 fe ff ff 	mov    -0x1c0(%rbp),%r9
     914:	48 8b 85 b8 fe ff ff 	mov    -0x148(%rbp),%rax
     91b:	41 c7 44 24 08 38 3f 	movl   $0x3f38,0x8(%r12)
     922:	00 00 
     924:	31 c9                	xor    %ecx,%ecx
     926:	49 89 ca             	mov    %rcx,%r10
     929:	49 63 54 24 18       	movslq 0x18(%r12),%rdx
     92e:	81 e2 00 04 00 00    	and    $0x400,%edx
     934:	85 d2                	test   %edx,%edx
     936:	0f 8f 16 0a 00 00    	jg     1352 <inflate+0x1352>
     93c:	49 8b 54 24 30       	mov    0x30(%r12),%rdx
     941:	48 85 d2             	test   %rdx,%rdx
     944:	74 08                	je     94e <inflate+0x94e>
     946:	48 c7 42 18 00 00 00 	movq   $0x0,0x18(%rdx)
     94d:	00 
     94e:	41 c7 44 24 08 39 3f 	movl   $0x3f39,0x8(%r12)
     955:	00 00 
     957:	49 63 54 24 18       	movslq 0x18(%r12),%rdx
     95c:	81 e2 00 04 00 00    	and    $0x400,%edx
     962:	85 d2                	test   %edx,%edx
     964:	0f 8f 1d 0a 00 00    	jg     1387 <inflate+0x1387>
     96a:	41 c7 44 24 5c 00 00 	movl   $0x0,0x5c(%r12)
     971:	00 00 
     973:	41 c7 44 24 08 3a 3f 	movl   $0x3f3a,0x8(%r12)
     97a:	00 00 
     97c:	49 63 54 24 18       	movslq 0x18(%r12),%rdx
     981:	81 e2 00 08 00 00    	and    $0x800,%edx
     987:	85 d2                	test   %edx,%edx
     989:	0f 8f 0e 0a 00 00    	jg     139d <inflate+0x139d>
     98f:	49 8b 54 24 30       	mov    0x30(%r12),%rdx
     994:	48 85 d2             	test   %rdx,%rdx
     997:	0f 84 7a fe ff ff    	je     817 <inflate+0x817>
     99d:	48 c7 42 28 00 00 00 	movq   $0x0,0x28(%rdx)
     9a4:	00 
     9a5:	e9 6d fe ff ff       	jmpq   817 <inflate+0x817>
     9aa:	45 85 db             	test   %r11d,%r11d
     9ad:	0f 84 08 0a 00 00    	je     13bb <inflate+0x13bb>
     9b3:	49 8d 70 01          	lea    0x1(%r8),%rsi
     9b7:	41 0f b6 10          	movzbl (%r8),%edx
     9bb:	48 d3 e2             	shl    %cl,%rdx
     9be:	49 01 d2             	add    %rdx,%r10
     9c1:	83 c1 08             	add    $0x8,%ecx
     9c4:	41 83 c3 ff          	add    $0xffffffff,%r11d
     9c8:	49 89 f0             	mov    %rsi,%r8
     9cb:	83 f9 1f             	cmp    $0x1f,%ecx
     9ce:	76 da                	jbe    9aa <inflate+0x9aa>
     9d0:	49 8b 4c 24 30       	mov    0x30(%r12),%rcx
     9d5:	48 85 c9             	test   %rcx,%rcx
     9d8:	74 04                	je     9de <inflate+0x9de>
     9da:	4c 89 51 08          	mov    %r10,0x8(%rcx)
     9de:	49 63 4c 24 18       	movslq 0x18(%r12),%rcx
     9e3:	81 e1 00 02 00 00    	and    $0x200,%ecx
     9e9:	85 c9                	test   %ecx,%ecx
     9eb:	0f 8f d9 09 00 00    	jg     13ca <inflate+0x13ca>
     9f1:	41 c7 44 24 08 37 3f 	movl   $0x3f37,0x8(%r12)
     9f8:	00 00 
     9fa:	31 c9                	xor    %ecx,%ecx
     9fc:	49 89 ca             	mov    %rcx,%r10
     9ff:	e9 74 fe ff ff       	jmpq   878 <inflate+0x878>
     a04:	45 85 db             	test   %r11d,%r11d
     a07:	0f 84 5d 0a 00 00    	je     146a <inflate+0x146a>
     a0d:	41 0f b6 10          	movzbl (%r8),%edx
     a11:	48 d3 e2             	shl    %cl,%rdx
     a14:	49 01 d2             	add    %rdx,%r10
     a17:	49 83 c0 01          	add    $0x1,%r8
     a1b:	41 83 c3 ff          	add    $0xffffffff,%r11d
     a1f:	83 c1 08             	add    $0x8,%ecx
     a22:	83 f9 0f             	cmp    $0xf,%ecx
     a25:	76 dd                	jbe    a04 <inflate+0xa04>
     a27:	45 89 54 24 18       	mov    %r10d,0x18(%r12)
     a2c:	41 0f b6 d2          	movzbl %r10b,%edx
     a30:	83 fa 08             	cmp    $0x8,%edx
     a33:	0f 85 39 0a 00 00    	jne    1472 <inflate+0x1472>
     a39:	4c 89 d2             	mov    %r10,%rdx
     a3c:	81 e2 00 e0 00 00    	and    $0xe000,%edx
     a42:	85 d2                	test   %edx,%edx
     a44:	0f 8f 41 0a 00 00    	jg     148b <inflate+0x148b>
     a4a:	49 8b 4c 24 30       	mov    0x30(%r12),%rcx
     a4f:	48 85 c9             	test   %rcx,%rcx
     a52:	74 0c                	je     a60 <inflate+0xa60>
     a54:	4c 89 d0             	mov    %r10,%rax
     a57:	48 c1 e8 08          	shr    $0x8,%rax
     a5b:	83 e0 01             	and    $0x1,%eax
     a5e:	89 01                	mov    %eax,(%rcx)
     a60:	49 63 44 24 18       	movslq 0x18(%r12),%rax
     a65:	25 00 02 00 00       	and    $0x200,%eax
     a6a:	85 c0                	test   %eax,%eax
     a6c:	0f 8f 32 0a 00 00    	jg     14a4 <inflate+0x14a4>
     a72:	4c 89 bd d8 fe ff ff 	mov    %r15,-0x128(%rbp)
     a79:	4c 89 b5 58 ff ff ff 	mov    %r14,-0xa8(%rbp)
     a80:	4c 89 ad 30 ff ff ff 	mov    %r13,-0xd0(%rbp)
     a87:	41 c7 44 24 08 36 3f 	movl   $0x3f36,0x8(%r12)
     a8e:	00 00 
     a90:	4c 8b ad 30 ff ff ff 	mov    -0xd0(%rbp),%r13
     a97:	4c 8b b5 58 ff ff ff 	mov    -0xa8(%rbp),%r14
     a9e:	48 8b 85 b8 fe ff ff 	mov    -0x148(%rbp),%rax
     aa5:	4c 8b bd d8 fe ff ff 	mov    -0x128(%rbp),%r15
     aac:	31 c9                	xor    %ecx,%ecx
     aae:	49 89 ca             	mov    %rcx,%r10
     ab1:	e9 15 ff ff ff       	jmpq   9cb <inflate+0x9cb>
     ab6:	48 8b 5d f8          	mov    -0x8(%rbp),%rbx
     aba:	4c 8b 65 f0          	mov    -0x10(%rbp),%r12
     abe:	4c 8b 6d e8          	mov    -0x18(%rbp),%r13
     ac2:	4c 8b 75 e0          	mov    -0x20(%rbp),%r14
     ac6:	48 c7 c0 fc ff ff ff 	mov    $0xfffffffffffffffc,%rax
     acd:	4c 8b 7d d8          	mov    -0x28(%rbp),%r15
     ad1:	c9                   	leaveq 
     ad2:	c3                   	retq   
     ad3:	48 8b 5d f8          	mov    -0x8(%rbp),%rbx
     ad7:	4c 8b 65 f0          	mov    -0x10(%rbp),%r12
     adb:	4c 8b 6d e8          	mov    -0x18(%rbp),%r13
     adf:	4c 8b 75 e0          	mov    -0x20(%rbp),%r14
     ae3:	48 c7 c0 fe ff ff ff 	mov    $0xfffffffffffffffe,%rax
     aea:	4c 8b 7d d8          	mov    -0x28(%rbp),%r15
     aee:	c9                   	leaveq 
     aef:	c3                   	retq   
     af0:	b8 01 00 00 00       	mov    $0x1,%eax
     af5:	e9 a6 f6 ff ff       	jmpq   1a0 <inflate+0x1a0>
     afa:	48 c7 c0 fd ff ff ff 	mov    $0xfffffffffffffffd,%rax
     b01:	e9 9a f6 ff ff       	jmpq   1a0 <inflate+0x1a0>
     b06:	49 63 54 24 10       	movslq 0x10(%r12),%rdx
     b0b:	85 d2                	test   %edx,%edx
     b0d:	0f 85 d9 09 00 00    	jne    14ec <inflate+0x14ec>
     b13:	41 c7 44 24 08 40 3f 	movl   $0x3f40,0x8(%r12)
     b1a:	00 00 
     b1c:	e9 f5 f5 ff ff       	jmpq   116 <inflate+0x116>
     b21:	48 89 ca             	mov    %rcx,%rdx
     b24:	48 89 d1             	mov    %rdx,%rcx
     b27:	83 e1 07             	and    $0x7,%ecx
     b2a:	49 d3 ea             	shr    %cl,%r10
     b2d:	48 89 d1             	mov    %rdx,%rcx
     b30:	83 e1 f8             	and    $0xfffffff8,%ecx
     b33:	e9 ed fa ff ff       	jmpq   625 <inflate+0x625>
     b38:	4c 89 b5 f0 fe ff ff 	mov    %r14,-0x110(%rbp)
     b3f:	48 8b b5 70 fe ff ff 	mov    -0x190(%rbp),%rsi
     b46:	bf 01 00 00 00       	mov    $0x1,%edi
     b4b:	e9 2f 0a 00 00       	jmpq   157f <inflate+0x157f>
     b50:	ba 01 00 00 00       	mov    $0x1,%edx
     b55:	41 8b 74 24 64       	mov    0x64(%r12),%esi
     b5a:	85 f6                	test   %esi,%esi
     b5c:	0f 85 95 0a 00 00    	jne    15f7 <inflate+0x15f7>
     b62:	41 8b 74 24 5c       	mov    0x5c(%r12),%esi
     b67:	41 89 b4 24 f0 1b 00 	mov    %esi,0x1bf0(%r12)
     b6e:	00 
     b6f:	41 c7 44 24 08 4a 3f 	movl   $0x3f4a,0x8(%r12)
     b76:	00 00 
     b78:	e9 e1 0a 00 00       	jmpq   165e <inflate+0x165e>
     b7d:	ba 01 00 00 00       	mov    $0x1,%edx
     b82:	e9 d7 0a 00 00       	jmpq   165e <inflate+0x165e>
     b87:	ba 01 00 00 00       	mov    $0x1,%edx
     b8c:	41 8b 74 24 64       	mov    0x64(%r12),%esi
     b91:	85 f6                	test   %esi,%esi
     b93:	0f 85 7b 0b 00 00    	jne    1714 <inflate+0x1714>
     b99:	41 c7 44 24 08 4c 3f 	movl   $0x3f4c,0x8(%r12)
     ba0:	00 00 
     ba2:	48 89 df             	mov    %rbx,%rdi
     ba5:	48 8b b5 98 fe ff ff 	mov    -0x168(%rbp),%rsi
     bac:	45 85 ed             	test   %r13d,%r13d
     baf:	0f 84 a2 0b 00 00    	je     1757 <inflate+0x1757>
     bb5:	4c 89 f3             	mov    %r14,%rbx
     bb8:	44 29 eb             	sub    %r13d,%ebx
     bbb:	41 8b 54 24 60       	mov    0x60(%r12),%edx
     bc0:	39 da                	cmp    %ebx,%edx
     bc2:	0f 87 97 0b 00 00    	ja     175f <inflate+0x175f>
     bc8:	41 8b 5c 24 5c       	mov    0x5c(%r12),%ebx
     bcd:	48 f7 da             	neg    %rdx
     bd0:	4c 01 fa             	add    %r15,%rdx
     bd3:	41 39 dd             	cmp    %ebx,%r13d
     bd6:	73 03                	jae    bdb <inflate+0xbdb>
     bd8:	4c 89 eb             	mov    %r13,%rbx
     bdb:	48 89 7d 80          	mov    %rdi,-0x80(%rbp)
     bdf:	41 8b 7c 24 5c       	mov    0x5c(%r12),%edi
     be4:	29 df                	sub    %ebx,%edi
     be6:	41 89 7c 24 5c       	mov    %edi,0x5c(%r12)
     beb:	48 89 8d 18 ff ff ff 	mov    %rcx,-0xe8(%rbp)
     bf2:	48 89 d9             	mov    %rbx,%rcx
     bf5:	e9 99 0b 00 00       	jmpq   1793 <inflate+0x1793>
     bfa:	48 89 df             	mov    %rbx,%rdi
     bfd:	eb ad                	jmp    bac <inflate+0xbac>
     bff:	45 85 ed             	test   %r13d,%r13d
     c02:	0f 84 98 f5 ff ff    	je     1a0 <inflate+0x1a0>
     c08:	41 0f b6 54 24 5c    	movzbl 0x5c(%r12),%edx
     c0e:	41 88 17             	mov    %dl,(%r15)
     c11:	41 c7 44 24 08 48 3f 	movl   $0x3f48,0x8(%r12)
     c18:	00 00 
     c1a:	49 83 c7 01          	add    $0x1,%r15
     c1e:	41 83 c5 ff          	add    $0xffffffff,%r13d
     c22:	e9 ef f4 ff ff       	jmpq   116 <inflate+0x116>
     c27:	49 63 54 24 10       	movslq 0x10(%r12),%rdx
     c2c:	85 d2                	test   %edx,%edx
     c2e:	0f 85 b1 0b 00 00    	jne    17e5 <inflate+0x17e5>
     c34:	41 c7 44 24 08 4f 3f 	movl   $0x3f4f,0x8(%r12)
     c3b:	00 00 
     c3d:	e9 33 f5 ff ff       	jmpq   175 <inflate+0x175>
     c42:	45 85 db             	test   %r11d,%r11d
     c45:	0f 84 e9 0b 00 00    	je     1834 <inflate+0x1834>
     c4b:	49 8d 70 01          	lea    0x1(%r8),%rsi
     c4f:	41 0f b6 10          	movzbl (%r8),%edx
     c53:	48 d3 e2             	shl    %cl,%rdx
     c56:	49 01 d2             	add    %rdx,%r10
     c59:	41 83 c3 ff          	add    $0xffffffff,%r11d
     c5d:	83 c1 08             	add    $0x8,%ecx
     c60:	49 89 f0             	mov    %rsi,%r8
     c63:	83 f9 1f             	cmp    $0x1f,%ecx
     c66:	76 da                	jbe    c42 <inflate+0xc42>
     c68:	41 8b 54 24 28       	mov    0x28(%r12),%edx
     c6d:	49 39 d2             	cmp    %rdx,%r10
     c70:	0f 84 cd 0b 00 00    	je     1843 <inflate+0x1843>
     c76:	48 8d 15 00 00 00 00 	lea    0x0(%rip),%rdx        # c7d <inflate+0xc7d>
     c7d:	48 89 53 30          	mov    %rdx,0x30(%rbx)
     c81:	41 c7 44 24 08 51 3f 	movl   $0x3f51,0x8(%r12)
     c88:	00 00 
     c8a:	48 8b b5 98 fe ff ff 	mov    -0x168(%rbp),%rsi
     c91:	e9 80 f4 ff ff       	jmpq   116 <inflate+0x116>
     c96:	8b 4b 20             	mov    0x20(%rbx),%ecx
     c99:	44 39 f1             	cmp    %r14d,%ecx
     c9c:	0f 84 4c f5 ff ff    	je     1ee <inflate+0x1ee>
     ca2:	41 8b 4c 24 08       	mov    0x8(%r12),%ecx
     ca7:	81 f9 50 3f 00 00    	cmp    $0x3f50,%ecx
     cad:	0f 87 3b f5 ff ff    	ja     1ee <inflate+0x1ee>
     cb3:	81 f9 4d 3f 00 00    	cmp    $0x3f4d,%ecx
     cb9:	0f 86 07 f5 ff ff    	jbe    1c6 <inflate+0x1c6>
     cbf:	83 fe 04             	cmp    $0x4,%esi
     cc2:	0f 85 fe f4 ff ff    	jne    1c6 <inflate+0x1c6>
     cc8:	e9 21 f5 ff ff       	jmpq   1ee <inflate+0x1ee>
     ccd:	41 c7 44 24 08 52 3f 	movl   $0x3f52,0x8(%r12)
     cd4:	00 00 
     cd6:	48 8b 5d f8          	mov    -0x8(%rbp),%rbx
     cda:	4c 8b 65 f0          	mov    -0x10(%rbp),%r12
     cde:	4c 8b 6d e8          	mov    -0x18(%rbp),%r13
     ce2:	4c 8b 75 e0          	mov    -0x20(%rbp),%r14
     ce6:	48 c7 c0 fc ff ff ff 	mov    $0xfffffffffffffffc,%rax
     ced:	4c 8b 7d d8          	mov    -0x28(%rbp),%r15
     cf1:	c9                   	leaveq 
     cf2:	c3                   	retq   
     cf3:	48 8b 73 18          	mov    0x18(%rbx),%rsi
     cf7:	89 d1                	mov    %edx,%ecx
     cf9:	48 29 ce             	sub    %rcx,%rsi
     cfc:	49 8b 7c 24 20       	mov    0x20(%r12),%rdi
     d01:	4c 89 85 40 fe ff ff 	mov    %r8,-0x1c0(%rbp)
     d08:	48 89 85 50 fe ff ff 	mov    %rax,-0x1b0(%rbp)
     d0f:	e8 00 00 00 00       	callq  d14 <inflate+0xd14>
     d14:	49 89 44 24 20       	mov    %rax,0x20(%r12)
     d19:	48 89 43 60          	mov    %rax,0x60(%rbx)
     d1d:	48 8b 85 50 fe ff ff 	mov    -0x1b0(%rbp),%rax
     d24:	4c 8b 85 40 fe ff ff 	mov    -0x1c0(%rbp),%r8
     d2b:	48 8b b5 98 fe ff ff 	mov    -0x168(%rbp),%rsi
     d32:	4d 63 54 24 58       	movslq 0x58(%r12),%r10
     d37:	49 63 4c 24 0c       	movslq 0xc(%r12),%rcx
     d3c:	85 c9                	test   %ecx,%ecx
     d3e:	0f 85 09 0b 00 00    	jne    184d <inflate+0x184d>
     d44:	31 d2                	xor    %edx,%edx
     d46:	e9 07 0b 00 00       	jmpq   1852 <inflate+0x1852>
     d4b:	45 31 db             	xor    %r11d,%r11d
     d4e:	e9 4d f4 ff ff       	jmpq   1a0 <inflate+0x1a0>
     d53:	4c 89 7b 18          	mov    %r15,0x18(%rbx)
     d57:	44 89 6b 20          	mov    %r13d,0x20(%rbx)
     d5b:	4c 89 03             	mov    %r8,(%rbx)
     d5e:	44 89 5b 08          	mov    %r11d,0x8(%rbx)
     d62:	4d 89 54 24 50       	mov    %r10,0x50(%r12)
     d67:	41 89 4c 24 58       	mov    %ecx,0x58(%r12)
     d6c:	48 8b 5d f8          	mov    -0x8(%rbp),%rbx
     d70:	4c 8b 65 f0          	mov    -0x10(%rbp),%r12
     d74:	4c 8b 6d e8          	mov    -0x18(%rbp),%r13
     d78:	4c 8b 75 e0          	mov    -0x20(%rbp),%r14
     d7c:	b8 02 00 00 00       	mov    $0x2,%eax
     d81:	4c 8b 7d d8          	mov    -0x28(%rbp),%r15
     d85:	c9                   	leaveq 
     d86:	c3                   	retq   
     d87:	45 85 db             	test   %r11d,%r11d
     d8a:	0f 84 db 0a 00 00    	je     186b <inflate+0x186b>
     d90:	41 0f b6 10          	movzbl (%r8),%edx
     d94:	48 d3 e2             	shl    %cl,%rdx
     d97:	49 01 d2             	add    %rdx,%r10
     d9a:	49 83 c0 01          	add    $0x1,%r8
     d9e:	41 83 c3 ff          	add    $0xffffffff,%r11d
     da2:	83 c1 08             	add    $0x8,%ecx
     da5:	83 f9 02             	cmp    $0x2,%ecx
     da8:	76 dd                	jbe    d87 <inflate+0xd87>
     daa:	4c 89 d2             	mov    %r10,%rdx
     dad:	83 e2 01             	and    $0x1,%edx
     db0:	41 89 54 24 0c       	mov    %edx,0xc(%r12)
     db5:	4c 89 d2             	mov    %r10,%rdx
     db8:	48 d1 ea             	shr    %rdx
     dbb:	83 e2 03             	and    $0x3,%edx
     dbe:	83 fa 01             	cmp    $0x1,%edx
     dc1:	0f 86 ac 0a 00 00    	jbe    1873 <inflate+0x1873>
     dc7:	83 fa 02             	cmp    $0x2,%edx
     dca:	0f 84 2b 0b 00 00    	je     18fb <inflate+0x18fb>
     dd0:	83 fa 03             	cmp    $0x3,%edx
     dd3:	0f 85 36 0b 00 00    	jne    190f <inflate+0x190f>
     dd9:	48 8d 15 00 00 00 00 	lea    0x0(%rip),%rdx        # de0 <inflate+0xde0>
     de0:	48 89 53 30          	mov    %rdx,0x30(%rbx)
     de4:	41 c7 44 24 08 51 3f 	movl   $0x3f51,0x8(%r12)
     deb:	00 00 
     ded:	e9 1d 0b 00 00       	jmpq   190f <inflate+0x190f>
     df2:	48 8d 15 00 00 00 00 	lea    0x0(%rip),%rdx        # df9 <inflate+0xdf9>
     df9:	48 89 53 30          	mov    %rdx,0x30(%rbx)
     dfd:	41 c7 44 24 08 51 3f 	movl   $0x3f51,0x8(%r12)
     e04:	00 00 
     e06:	4c 8b 8d 40 fe ff ff 	mov    -0x1c0(%rbp),%r9
     e0d:	48 8b b5 98 fe ff ff 	mov    -0x168(%rbp),%rsi
     e14:	e9 fd f2 ff ff       	jmpq   116 <inflate+0x116>
     e19:	48 8d 0d 00 00 00 00 	lea    0x0(%rip),%rcx        # e20 <inflate+0xe20>
     e20:	48 89 4b 30          	mov    %rcx,0x30(%rbx)
     e24:	41 c7 44 24 08 51 3f 	movl   $0x3f51,0x8(%r12)
     e2b:	00 00 
     e2d:	4c 8b 85 08 ff ff ff 	mov    -0xf8(%rbp),%r8
     e34:	4c 8b 95 88 fe ff ff 	mov    -0x178(%rbp),%r10
     e3b:	4c 8b 9d 48 fe ff ff 	mov    -0x1b8(%rbp),%r11
     e42:	48 8b 8d 80 fe ff ff 	mov    -0x180(%rbp),%rcx
     e49:	4c 8b b5 b8 fe ff ff 	mov    -0x148(%rbp),%r14
     e50:	4c 8b 8d 40 fe ff ff 	mov    -0x1c0(%rbp),%r9
     e57:	48 8b b5 98 fe ff ff 	mov    -0x168(%rbp),%rsi
     e5e:	e9 b3 f2 ff ff       	jmpq   116 <inflate+0x116>
     e63:	48 8d 0d 00 00 00 00 	lea    0x0(%rip),%rcx        # e6a <inflate+0xe6a>
     e6a:	48 89 4b 30          	mov    %rcx,0x30(%rbx)
     e6e:	41 c7 44 24 08 51 3f 	movl   $0x3f51,0x8(%r12)
     e75:	00 00 
     e77:	4d 89 f1             	mov    %r14,%r9
     e7a:	4c 8b 85 08 ff ff ff 	mov    -0xf8(%rbp),%r8
     e81:	4c 8b 95 88 fe ff ff 	mov    -0x178(%rbp),%r10
     e88:	4c 8b 9d 48 fe ff ff 	mov    -0x1b8(%rbp),%r11
     e8f:	48 8b 8d 80 fe ff ff 	mov    -0x180(%rbp),%rcx
     e96:	4c 8b b5 b8 fe ff ff 	mov    -0x148(%rbp),%r14
     e9d:	48 8b b5 98 fe ff ff 	mov    -0x168(%rbp),%rsi
     ea4:	e9 6d f2 ff ff       	jmpq   116 <inflate+0x116>
     ea9:	4c 8b 85 08 ff ff ff 	mov    -0xf8(%rbp),%r8
     eb0:	4c 8b 95 88 fe ff ff 	mov    -0x178(%rbp),%r10
     eb7:	4c 8b 9d 48 fe ff ff 	mov    -0x1b8(%rbp),%r11
     ebe:	48 8b 8d 80 fe ff ff 	mov    -0x180(%rbp),%rcx
     ec5:	4c 8b b5 b8 fe ff ff 	mov    -0x148(%rbp),%r14
     ecc:	31 c0                	xor    %eax,%eax
     ece:	e9 cd f2 ff ff       	jmpq   1a0 <inflate+0x1a0>
     ed3:	41 81 fd 01 01 00 00 	cmp    $0x101,%r13d
     eda:	0f 86 ed f5 ff ff    	jbe    4cd <inflate+0x4cd>
     ee0:	4c 89 7b 18          	mov    %r15,0x18(%rbx)
     ee4:	44 89 6b 20          	mov    %r13d,0x20(%rbx)
     ee8:	4c 89 03             	mov    %r8,(%rbx)
     eeb:	44 89 5b 08          	mov    %r11d,0x8(%rbx)
     eef:	4d 89 54 24 50       	mov    %r10,0x50(%r12)
     ef4:	41 89 4c 24 58       	mov    %ecx,0x58(%r12)
     ef9:	4d 89 cd             	mov    %r9,%r13
     efc:	49 89 c7             	mov    %rax,%r15
     eff:	48 89 df             	mov    %rbx,%rdi
     f02:	4c 89 f6             	mov    %r14,%rsi
     f05:	e8 00 00 00 00       	callq  f0a <inflate+0xf0a>
     f0a:	48 8b 53 18          	mov    0x18(%rbx),%rdx
     f0e:	8b 7b 20             	mov    0x20(%rbx),%edi
     f11:	4c 8b 03             	mov    (%rbx),%r8
     f14:	44 8b 5b 08          	mov    0x8(%rbx),%r11d
     f18:	4d 8b 54 24 50       	mov    0x50(%r12),%r10
     f1d:	41 8b 4c 24 58       	mov    0x58(%r12),%ecx
     f22:	41 8b 44 24 08       	mov    0x8(%r12),%eax
     f27:	3d 3f 3f 00 00       	cmp    $0x3f3f,%eax
     f2c:	0f 84 e9 09 00 00    	je     191b <inflate+0x191b>
     f32:	4c 89 f8             	mov    %r15,%rax
     f35:	49 89 d7             	mov    %rdx,%r15
     f38:	4d 89 e9             	mov    %r13,%r9
     f3b:	49 89 fd             	mov    %rdi,%r13
     f3e:	48 8b b5 98 fe ff ff 	mov    -0x168(%rbp),%rsi
     f45:	e9 cc f1 ff ff       	jmpq   116 <inflate+0x116>
     f4a:	45 85 db             	test   %r11d,%r11d
     f4d:	0f 84 ec 09 00 00    	je     193f <inflate+0x193f>
     f53:	48 89 f9             	mov    %rdi,%rcx
     f56:	41 0f b6 30          	movzbl (%r8),%esi
     f5a:	48 d3 e6             	shl    %cl,%rsi
     f5d:	49 01 f2             	add    %rsi,%r10
     f60:	49 83 c0 01          	add    $0x1,%r8
     f64:	83 c1 08             	add    $0x8,%ecx
     f67:	41 83 c3 ff          	add    $0xffffffff,%r11d
     f6b:	48 89 cf             	mov    %rcx,%rdi
     f6e:	8b 08                	mov    (%rax),%ecx
     f70:	48 89 d6             	mov    %rdx,%rsi
     f73:	d3 e6                	shl    %cl,%esi
     f75:	8d 4e ff             	lea    -0x1(%rsi),%ecx
     f78:	44 21 d1             	and    %r10d,%ecx
     f7b:	89 c9                	mov    %ecx,%ecx
     f7d:	49 8b 74 24 68       	mov    0x68(%r12),%rsi
     f82:	8b 34 8e             	mov    (%rsi,%rcx,4),%esi
     f85:	89 b5 34 fe ff ff    	mov    %esi,-0x1cc(%rbp)
     f8b:	48 89 f1             	mov    %rsi,%rcx
     f8e:	c1 e9 08             	shr    $0x8,%ecx
     f91:	0f b6 c9             	movzbl %cl,%ecx
     f94:	39 cf                	cmp    %ecx,%edi
     f96:	72 b2                	jb     f4a <inflate+0xf4a>
     f98:	40 84 f6             	test   %sil,%sil
     f9b:	0f 85 b7 09 00 00    	jne    1958 <inflate+0x1958>
     fa1:	0f b6 8d 35 fe ff ff 	movzbl -0x1cb(%rbp),%ecx
     fa8:	48 89 c8             	mov    %rcx,%rax
     fab:	41 03 84 24 ec 1b 00 	add    0x1bec(%r12),%eax
     fb2:	00 
     fb3:	41 89 84 24 ec 1b 00 	mov    %eax,0x1bec(%r12)
     fba:	00 
     fbb:	0f b7 85 36 fe ff ff 	movzwl -0x1ca(%rbp),%eax
     fc2:	41 89 44 24 5c       	mov    %eax,0x5c(%r12)
     fc7:	49 d3 ea             	shr    %cl,%r10
     fca:	f7 d9                	neg    %ecx
     fcc:	01 f9                	add    %edi,%ecx
     fce:	0f b6 85 34 fe ff ff 	movzbl -0x1cc(%rbp),%eax
     fd5:	84 c0                	test   %al,%al
     fd7:	0f 84 97 09 00 00    	je     1974 <inflate+0x1974>
     fdd:	48 89 c6             	mov    %rax,%rsi
     fe0:	83 e6 20             	and    $0x20,%esi
     fe3:	85 f6                	test   %esi,%esi
     fe5:	0f 8f a5 09 00 00    	jg     1990 <inflate+0x1990>
     feb:	48 89 c6             	mov    %rax,%rsi
     fee:	83 e6 40             	and    $0x40,%esi
     ff1:	85 f6                	test   %esi,%esi
     ff3:	0f 8f bf 09 00 00    	jg     19b8 <inflate+0x19b8>
     ff9:	83 e0 0f             	and    $0xf,%eax
     ffc:	41 89 44 24 64       	mov    %eax,0x64(%r12)
    1001:	41 c7 44 24 08 49 3f 	movl   $0x3f49,0x8(%r12)
    1008:	00 00 
    100a:	48 8b 85 c0 fe ff ff 	mov    -0x140(%rbp),%rax
    1011:	e9 3f fb ff ff       	jmpq   b55 <inflate+0xb55>
    1016:	45 31 db             	xor    %r11d,%r11d
    1019:	48 8b b5 98 fe ff ff 	mov    -0x168(%rbp),%rsi
    1020:	e9 7b f1 ff ff       	jmpq   1a0 <inflate+0x1a0>
    1025:	8d 42 01             	lea    0x1(%rdx),%eax
    1028:	41 89 84 24 8c 00 00 	mov    %eax,0x8c(%r12)
    102f:	00 
    1030:	0f b7 04 57          	movzwl (%rdi,%rdx,2),%eax
    1034:	66 c7 04 46 00 00    	movw   $0x0,(%rsi,%rax,2)
    103a:	41 8b 94 24 8c 00 00 	mov    0x8c(%r12),%edx
    1041:	00 
    1042:	83 fa 12             	cmp    $0x12,%edx
    1045:	76 de                	jbe    1025 <inflate+0x1025>
    1047:	48 8b 85 60 fe ff ff 	mov    -0x1a0(%rbp),%rax
    104e:	49 89 84 24 90 00 00 	mov    %rax,0x90(%r12)
    1055:	00 
    1056:	49 89 44 24 68       	mov    %rax,0x68(%r12)
    105b:	41 c7 44 24 78 07 00 	movl   $0x7,0x78(%r12)
    1062:	00 00 
    1064:	45 31 c9             	xor    %r9d,%r9d
    1067:	ba 13 00 00 00       	mov    $0x13,%edx
    106c:	48 8b 85 78 fe ff ff 	mov    -0x188(%rbp),%rax
    1073:	48 8b bd 70 fe ff ff 	mov    -0x190(%rbp),%rdi
    107a:	48 89 8d 80 fe ff ff 	mov    %rcx,-0x180(%rbp)
    1081:	48 8b 8d 68 fe ff ff 	mov    -0x198(%rbp),%rcx
    1088:	4c 89 95 08 ff ff ff 	mov    %r10,-0xf8(%rbp)
    108f:	4c 89 85 18 ff ff ff 	mov    %r8,-0xe8(%rbp)
    1096:	4c 89 9d f8 fe ff ff 	mov    %r11,-0x108(%rbp)
    109d:	49 89 f8             	mov    %rdi,%r8
    10a0:	4c 89 cf             	mov    %r9,%rdi
    10a3:	49 89 c9             	mov    %rcx,%r9
    10a6:	48 89 c1             	mov    %rax,%rcx
    10a9:	e8 00 00 00 00       	callq  10ae <inflate+0x10ae>
    10ae:	85 c0                	test   %eax,%eax
    10b0:	0f 85 29 09 00 00    	jne    19df <inflate+0x19df>
    10b6:	41 c7 84 24 8c 00 00 	movl   $0x0,0x8c(%r12)
    10bd:	00 00 00 00 00 
    10c2:	41 c7 44 24 08 46 3f 	movl   $0x3f46,0x8(%r12)
    10c9:	00 00 
    10cb:	4c 89 b5 f0 fe ff ff 	mov    %r14,-0x110(%rbp)
    10d2:	4c 8b 9d f8 fe ff ff 	mov    -0x108(%rbp),%r11
    10d9:	4c 8b 85 18 ff ff ff 	mov    -0xe8(%rbp),%r8
    10e0:	4c 8b 95 08 ff ff ff 	mov    -0xf8(%rbp),%r10
    10e7:	48 8b 8d 80 fe ff ff 	mov    -0x180(%rbp),%rcx
    10ee:	48 8b b5 70 fe ff ff 	mov    -0x190(%rbp),%rsi
    10f5:	bf 01 00 00 00       	mov    $0x1,%edi
    10fa:	ff b5 c8 fe ff ff    	pushq  -0x138(%rbp)
    1100:	8f 85 b8 fe ff ff    	popq   -0x148(%rbp)
    1106:	e9 74 04 00 00       	jmpq   157f <inflate+0x157f>
    110b:	45 31 db             	xor    %r11d,%r11d
    110e:	e9 8d f0 ff ff       	jmpq   1a0 <inflate+0x1a0>
    1113:	83 fe 1e             	cmp    $0x1e,%esi
    1116:	0f 87 cb f4 ff ff    	ja     5e7 <inflate+0x5e7>
    111c:	41 c7 84 24 8c 00 00 	movl   $0x0,0x8c(%r12)
    1123:	00 00 00 00 00 
    1128:	41 c7 44 24 08 45 3f 	movl   $0x3f45,0x8(%r12)
    112f:	00 00 
    1131:	e9 18 f4 ff ff       	jmpq   54e <inflate+0x54e>
    1136:	45 31 db             	xor    %r11d,%r11d
    1139:	e9 62 f0 ff ff       	jmpq   1a0 <inflate+0x1a0>
    113e:	48 8d 15 00 00 00 00 	lea    0x0(%rip),%rdx        # 1145 <inflate+0x1145>
    1145:	48 89 53 30          	mov    %rdx,0x30(%rbx)
    1149:	41 c7 44 24 08 51 3f 	movl   $0x3f51,0x8(%r12)
    1150:	00 00 
    1152:	e9 bf ef ff ff       	jmpq   116 <inflate+0x116>
    1157:	31 c9                	xor    %ecx,%ecx
    1159:	49 89 ca             	mov    %rcx,%r10
    115c:	e9 3f f0 ff ff       	jmpq   1a0 <inflate+0x1a0>
    1161:	44 39 da             	cmp    %r11d,%edx
    1164:	76 03                	jbe    1169 <inflate+0x1169>
    1166:	4c 89 da             	mov    %r11,%rdx
    1169:	41 39 d5             	cmp    %edx,%r13d
    116c:	73 03                	jae    1171 <inflate+0x1171>
    116e:	4c 89 ea             	mov    %r13,%rdx
    1171:	85 d2                	test   %edx,%edx
    1173:	0f 84 27 f0 ff ff    	je     1a0 <inflate+0x1a0>
    1179:	89 d0                	mov    %edx,%eax
    117b:	48 89 5d 88          	mov    %rbx,-0x78(%rbp)
    117f:	48 89 85 d0 fe ff ff 	mov    %rax,-0x130(%rbp)
    1186:	4c 89 ff             	mov    %r15,%rdi
    1189:	4c 89 c6             	mov    %r8,%rsi
    118c:	4c 89 b5 50 ff ff ff 	mov    %r14,-0xb0(%rbp)
    1193:	4c 89 45 a0          	mov    %r8,-0x60(%rbp)
    1197:	4c 89 95 10 ff ff ff 	mov    %r10,-0xf0(%rbp)
    119e:	48 89 8d 20 ff ff ff 	mov    %rcx,-0xe0(%rbp)
    11a5:	4c 89 db             	mov    %r11,%rbx
    11a8:	49 89 d6             	mov    %rdx,%r14
    11ab:	48 89 c2             	mov    %rax,%rdx
    11ae:	e8 00 00 00 00       	callq  11b3 <inflate+0x11b3>
    11b3:	45 29 f5             	sub    %r14d,%r13d
    11b6:	49 89 db             	mov    %rbx,%r11
    11b9:	45 29 f3             	sub    %r14d,%r11d
    11bc:	41 8b 44 24 5c       	mov    0x5c(%r12),%eax
    11c1:	44 29 f0             	sub    %r14d,%eax
    11c4:	41 89 44 24 5c       	mov    %eax,0x5c(%r12)
    11c9:	48 8b 85 d0 fe ff ff 	mov    -0x130(%rbp),%rax
    11d0:	49 01 c7             	add    %rax,%r15
    11d3:	48 8b 4d a0          	mov    -0x60(%rbp),%rcx
    11d7:	4c 8d 04 01          	lea    (%rcx,%rax,1),%r8
    11db:	48 8b 8d 20 ff ff ff 	mov    -0xe0(%rbp),%rcx
    11e2:	4c 8b 95 10 ff ff ff 	mov    -0xf0(%rbp),%r10
    11e9:	4c 8b b5 50 ff ff ff 	mov    -0xb0(%rbp),%r14
    11f0:	48 8b 5d 88          	mov    -0x78(%rbp),%rbx
    11f4:	4c 8b 8d 40 fe ff ff 	mov    -0x1c0(%rbp),%r9
    11fb:	48 8b 85 b8 fe ff ff 	mov    -0x148(%rbp),%rax
    1202:	48 8b b5 98 fe ff ff 	mov    -0x168(%rbp),%rsi
    1209:	e9 08 ef ff ff       	jmpq   116 <inflate+0x116>
    120e:	49 63 54 24 10       	movslq 0x10(%r12),%rdx
    1213:	83 e2 04             	and    $0x4,%edx
    1216:	85 d2                	test   %edx,%edx
    1218:	0f 8e 7e f4 ff ff    	jle    69c <inflate+0x69c>
    121e:	49 8b 7c 24 20       	mov    0x20(%r12),%rdi
    1223:	4c 89 c6             	mov    %r8,%rsi
    1226:	48 89 ca             	mov    %rcx,%rdx
    1229:	4c 89 bd e8 fe ff ff 	mov    %r15,-0x118(%rbp)
    1230:	48 89 5d 98          	mov    %rbx,-0x68(%rbp)
    1234:	4c 89 b5 70 ff ff ff 	mov    %r14,-0x90(%rbp)
    123b:	4c 89 ad 48 ff ff ff 	mov    %r13,-0xb8(%rbp)
    1242:	4c 89 d3             	mov    %r10,%rbx
    1245:	4d 89 c5             	mov    %r8,%r13
    1248:	4d 89 de             	mov    %r11,%r14
    124b:	49 89 cf             	mov    %rcx,%r15
    124e:	e8 00 00 00 00       	callq  1253 <inflate+0x1253>
    1253:	49 89 44 24 20       	mov    %rax,0x20(%r12)
    1258:	4c 89 f9             	mov    %r15,%rcx
    125b:	4d 89 e8             	mov    %r13,%r8
    125e:	49 89 da             	mov    %rbx,%r10
    1261:	4d 89 f3             	mov    %r14,%r11
    1264:	4c 8b ad 48 ff ff ff 	mov    -0xb8(%rbp),%r13
    126b:	4c 8b b5 70 ff ff ff 	mov    -0x90(%rbp),%r14
    1272:	48 8b 5d 98          	mov    -0x68(%rbp),%rbx
    1276:	4c 8b 8d 40 fe ff ff 	mov    -0x1c0(%rbp),%r9
    127d:	48 8b 85 b8 fe ff ff 	mov    -0x148(%rbp),%rax
    1284:	4c 8b bd e8 fe ff ff 	mov    -0x118(%rbp),%r15
    128b:	e9 0c f4 ff ff       	jmpq   69c <inflate+0x69c>
    1290:	48 8b 8d a8 fe ff ff 	mov    -0x158(%rbp),%rcx
    1297:	4c 8b 95 b0 fe ff ff 	mov    -0x150(%rbp),%r10
    129e:	48 8b b5 98 fe ff ff 	mov    -0x168(%rbp),%rsi
    12a5:	e9 f6 ee ff ff       	jmpq   1a0 <inflate+0x1a0>
    12aa:	45 85 db             	test   %r11d,%r11d
    12ad:	0f 84 6f 07 00 00    	je     1a22 <inflate+0x1a22>
    12b3:	49 8d 78 01          	lea    0x1(%r8),%rdi
    12b7:	41 0f b6 10          	movzbl (%r8),%edx
    12bb:	48 d3 e2             	shl    %cl,%rdx
    12be:	49 01 d2             	add    %rdx,%r10
    12c1:	41 83 c3 ff          	add    $0xffffffff,%r11d
    12c5:	83 c1 08             	add    $0x8,%ecx
    12c8:	49 89 f8             	mov    %rdi,%r8
    12cb:	83 f9 0f             	cmp    $0xf,%ecx
    12ce:	76 da                	jbe    12aa <inflate+0x12aa>
    12d0:	49 63 54 24 10       	movslq 0x10(%r12),%rdx
    12d5:	83 e2 04             	and    $0x4,%edx
    12d8:	85 d2                	test   %edx,%edx
    12da:	0f 8f 4a 07 00 00    	jg     1a2a <inflate+0x1a2a>
    12e0:	31 c9                	xor    %ecx,%ecx
    12e2:	49 89 ca             	mov    %rcx,%r10
    12e5:	e9 f5 f3 ff ff       	jmpq   6df <inflate+0x6df>
    12ea:	48 8b 8d a8 fe ff ff 	mov    -0x158(%rbp),%rcx
    12f1:	4c 8b 95 b0 fe ff ff 	mov    -0x150(%rbp),%r10
    12f8:	48 8b b5 98 fe ff ff 	mov    -0x168(%rbp),%rsi
    12ff:	e9 9c ee ff ff       	jmpq   1a0 <inflate+0x1a0>
    1304:	45 85 db             	test   %r11d,%r11d
    1307:	0f 84 36 07 00 00    	je     1a43 <inflate+0x1a43>
    130d:	4c 89 95 b0 fe ff ff 	mov    %r10,-0x150(%rbp)
    1314:	48 89 8d a8 fe ff ff 	mov    %rcx,-0x158(%rbp)
    131b:	31 c9                	xor    %ecx,%ecx
    131d:	e9 66 07 00 00       	jmpq   1a88 <inflate+0x1a88>
    1322:	45 31 db             	xor    %r11d,%r11d
    1325:	48 8b b5 98 fe ff ff 	mov    -0x168(%rbp),%rsi
    132c:	e9 6f ee ff ff       	jmpq   1a0 <inflate+0x1a0>
    1331:	45 85 db             	test   %r11d,%r11d
    1334:	0f 84 61 07 00 00    	je     1a9b <inflate+0x1a9b>
    133a:	49 8d 70 01          	lea    0x1(%r8),%rsi
    133e:	41 0f b6 10          	movzbl (%r8),%edx
    1342:	48 d3 e2             	shl    %cl,%rdx
    1345:	49 01 d2             	add    %rdx,%r10
    1348:	83 c1 08             	add    $0x8,%ecx
    134b:	41 83 c3 ff          	add    $0xffffffff,%r11d
    134f:	49 89 f0             	mov    %rsi,%r8
    1352:	83 f9 0f             	cmp    $0xf,%ecx
    1355:	76 da                	jbe    1331 <inflate+0x1331>
    1357:	45 89 54 24 5c       	mov    %r10d,0x5c(%r12)
    135c:	49 8b 4c 24 30       	mov    0x30(%r12),%rcx
    1361:	48 85 c9             	test   %rcx,%rcx
    1364:	74 04                	je     136a <inflate+0x136a>
    1366:	44 89 51 20          	mov    %r10d,0x20(%rcx)
    136a:	49 63 4c 24 18       	movslq 0x18(%r12),%rcx
    136f:	81 e1 00 02 00 00    	and    $0x200,%ecx
    1375:	85 c9                	test   %ecx,%ecx
    1377:	0f 8f 2d 07 00 00    	jg     1aaa <inflate+0x1aaa>
    137d:	31 c9                	xor    %ecx,%ecx
    137f:	49 89 ca             	mov    %rcx,%r10
    1382:	e9 c7 f5 ff ff       	jmpq   94e <inflate+0x94e>
    1387:	41 8b 74 24 5c       	mov    0x5c(%r12),%esi
    138c:	41 39 f3             	cmp    %esi,%r11d
    138f:	0f 82 2f 07 00 00    	jb     1ac4 <inflate+0x1ac4>
    1395:	48 89 f2             	mov    %rsi,%rdx
    1398:	e9 2a 07 00 00       	jmpq   1ac7 <inflate+0x1ac7>
    139d:	45 85 db             	test   %r11d,%r11d
    13a0:	0f 84 73 07 00 00    	je     1b19 <inflate+0x1b19>
    13a6:	4c 89 95 b0 fe ff ff 	mov    %r10,-0x150(%rbp)
    13ad:	48 89 8d a8 fe ff ff 	mov    %rcx,-0x158(%rbp)
    13b4:	31 c9                	xor    %ecx,%ecx
    13b6:	e9 82 07 00 00       	jmpq   1b3d <inflate+0x1b3d>
    13bb:	45 31 db             	xor    %r11d,%r11d
    13be:	48 8b b5 98 fe ff ff 	mov    -0x168(%rbp),%rsi
    13c5:	e9 d6 ed ff ff       	jmpq   1a0 <inflate+0x1a0>
    13ca:	49 63 4c 24 10       	movslq 0x10(%r12),%rcx
    13cf:	83 e1 04             	and    $0x4,%ecx
    13d2:	85 c9                	test   %ecx,%ecx
    13d4:	0f 8e 17 f6 ff ff    	jle    9f1 <inflate+0x9f1>
    13da:	44 88 95 3c fe ff ff 	mov    %r10b,-0x1c4(%rbp)
    13e1:	4c 89 d0             	mov    %r10,%rax
    13e4:	48 c1 e8 08          	shr    $0x8,%rax
    13e8:	88 85 3d fe ff ff    	mov    %al,-0x1c3(%rbp)
    13ee:	4c 89 d0             	mov    %r10,%rax
    13f1:	48 c1 e8 10          	shr    $0x10,%rax
    13f5:	88 85 3e fe ff ff    	mov    %al,-0x1c2(%rbp)
    13fb:	49 c1 ea 18          	shr    $0x18,%r10
    13ff:	44 88 95 3f fe ff ff 	mov    %r10b,-0x1c1(%rbp)
    1406:	49 8b 7c 24 20       	mov    0x20(%r12),%rdi
    140b:	48 8d b5 3c fe ff ff 	lea    -0x1c4(%rbp),%rsi
    1412:	ba 04 00 00 00       	mov    $0x4,%edx
    1417:	4c 89 bd d8 fe ff ff 	mov    %r15,-0x128(%rbp)
    141e:	4c 89 b5 58 ff ff ff 	mov    %r14,-0xa8(%rbp)
    1425:	4c 89 ad 30 ff ff ff 	mov    %r13,-0xd0(%rbp)
    142c:	4d 89 c5             	mov    %r8,%r13
    142f:	4d 89 de             	mov    %r11,%r14
    1432:	e8 00 00 00 00       	callq  1437 <inflate+0x1437>
    1437:	49 89 44 24 20       	mov    %rax,0x20(%r12)
    143c:	4d 89 e8             	mov    %r13,%r8
    143f:	4d 89 f3             	mov    %r14,%r11
    1442:	4c 8b ad 30 ff ff ff 	mov    -0xd0(%rbp),%r13
    1449:	4c 8b b5 58 ff ff ff 	mov    -0xa8(%rbp),%r14
    1450:	4c 8b 8d 40 fe ff ff 	mov    -0x1c0(%rbp),%r9
    1457:	48 8b 85 b8 fe ff ff 	mov    -0x148(%rbp),%rax
    145e:	4c 8b bd d8 fe ff ff 	mov    -0x128(%rbp),%r15
    1465:	e9 87 f5 ff ff       	jmpq   9f1 <inflate+0x9f1>
    146a:	45 31 db             	xor    %r11d,%r11d
    146d:	e9 2e ed ff ff       	jmpq   1a0 <inflate+0x1a0>
    1472:	48 8d 15 00 00 00 00 	lea    0x0(%rip),%rdx        # 1479 <inflate+0x1479>
    1479:	48 89 53 30          	mov    %rdx,0x30(%rbx)
    147d:	41 c7 44 24 08 51 3f 	movl   $0x3f51,0x8(%r12)
    1484:	00 00 
    1486:	e9 8b ec ff ff       	jmpq   116 <inflate+0x116>
    148b:	48 8d 15 00 00 00 00 	lea    0x0(%rip),%rdx        # 1492 <inflate+0x1492>
    1492:	48 89 53 30          	mov    %rdx,0x30(%rbx)
    1496:	41 c7 44 24 08 51 3f 	movl   $0x3f51,0x8(%r12)
    149d:	00 00 
    149f:	e9 72 ec ff ff       	jmpq   116 <inflate+0x116>
    14a4:	49 63 44 24 10       	movslq 0x10(%r12),%rax
    14a9:	83 e0 04             	and    $0x4,%eax
    14ac:	85 c0                	test   %eax,%eax
    14ae:	0f 8f bd 06 00 00    	jg     1b71 <inflate+0x1b71>
    14b4:	4c 89 bd d8 fe ff ff 	mov    %r15,-0x128(%rbp)
    14bb:	4c 89 b5 58 ff ff ff 	mov    %r14,-0xa8(%rbp)
    14c2:	4c 89 ad 30 ff ff ff 	mov    %r13,-0xd0(%rbp)
    14c9:	e9 b9 f5 ff ff       	jmpq   a87 <inflate+0xa87>
    14ce:	45 85 db             	test   %r11d,%r11d
    14d1:	0f 84 f4 06 00 00    	je     1bcb <inflate+0x1bcb>
    14d7:	41 0f b6 10          	movzbl (%r8),%edx
    14db:	48 d3 e2             	shl    %cl,%rdx
    14de:	49 01 d2             	add    %rdx,%r10
    14e1:	49 83 c0 01          	add    $0x1,%r8
    14e5:	41 83 c3 ff          	add    $0xffffffff,%r11d
    14e9:	83 c1 08             	add    $0x8,%ecx
    14ec:	83 f9 0f             	cmp    $0xf,%ecx
    14ef:	76 dd                	jbe    14ce <inflate+0x14ce>
    14f1:	49 63 54 24 10       	movslq 0x10(%r12),%rdx
    14f6:	83 e2 02             	and    $0x2,%edx
    14f9:	85 d2                	test   %edx,%edx
    14fb:	0f 8f d2 06 00 00    	jg     1bd3 <inflate+0x1bd3>
    1501:	41 c7 44 24 18 00 00 	movl   $0x0,0x18(%r12)
    1508:	00 00 
    150a:	49 8b 54 24 30       	mov    0x30(%r12),%rdx
    150f:	48 85 d2             	test   %rdx,%rdx
    1512:	74 07                	je     151b <inflate+0x151b>
    1514:	c7 42 48 ff ff ff ff 	movl   $0xffffffff,0x48(%rdx)
    151b:	49 63 54 24 10       	movslq 0x10(%r12),%rdx
    1520:	83 e2 01             	and    $0x1,%edx
    1523:	85 d2                	test   %edx,%edx
    1525:	0f 8f 45 07 00 00    	jg     1c70 <inflate+0x1c70>
    152b:	48 8d 15 00 00 00 00 	lea    0x0(%rip),%rdx        # 1532 <inflate+0x1532>
    1532:	48 89 53 30          	mov    %rdx,0x30(%rbx)
    1536:	41 c7 44 24 08 51 3f 	movl   $0x3f51,0x8(%r12)
    153d:	00 00 
    153f:	e9 d2 eb ff ff       	jmpq   116 <inflate+0x116>
    1544:	48 89 9d 88 fe ff ff 	mov    %rbx,-0x178(%rbp)
    154b:	41 8b 84 24 8c 00 00 	mov    0x8c(%r12),%eax
    1552:	00 
    1553:	4c 89 b5 f0 fe ff ff 	mov    %r14,-0x110(%rbp)
    155a:	8d 58 01             	lea    0x1(%rax),%ebx
    155d:	41 89 9c 24 8c 00 00 	mov    %ebx,0x8c(%r12)
    1564:	00 
    1565:	49 d3 ea             	shr    %cl,%r10
    1568:	f7 d9                	neg    %ecx
    156a:	44 01 c9             	add    %r9d,%ecx
    156d:	48 8b 9d 50 fe ff ff 	mov    -0x1b0(%rbp),%rbx
    1574:	66 89 14 43          	mov    %dx,(%rbx,%rax,2)
    1578:	48 8b 9d 88 fe ff ff 	mov    -0x178(%rbp),%rbx
    157f:	41 8b 84 24 88 00 00 	mov    0x88(%r12),%eax
    1586:	00 
    1587:	41 03 84 24 84 00 00 	add    0x84(%r12),%eax
    158e:	00 
    158f:	41 3b 84 24 8c 00 00 	cmp    0x8c(%r12),%eax
    1596:	00 
    1597:	0f 87 0b 07 00 00    	ja     1ca8 <inflate+0x1ca8>
    159d:	4c 8b b5 f0 fe ff ff 	mov    -0x110(%rbp),%r14
    15a4:	48 8b 85 b8 fe ff ff 	mov    -0x148(%rbp),%rax
    15ab:	4c 8b 8d 50 fe ff ff 	mov    -0x1b0(%rbp),%r9
    15b2:	41 8b 54 24 08       	mov    0x8(%r12),%edx
    15b7:	81 fa 51 3f 00 00    	cmp    $0x3f51,%edx
    15bd:	0f 85 eb ed ff ff    	jne    3ae <inflate+0x3ae>
    15c3:	4c 8b 8d 40 fe ff ff 	mov    -0x1c0(%rbp),%r9
    15ca:	48 8b b5 98 fe ff ff 	mov    -0x168(%rbp),%rsi
    15d1:	e9 40 eb ff ff       	jmpq   116 <inflate+0x116>
    15d6:	45 85 db             	test   %r11d,%r11d
    15d9:	0f 84 dc 06 00 00    	je     1cbb <inflate+0x1cbb>
    15df:	49 8d 78 01          	lea    0x1(%r8),%rdi
    15e3:	41 0f b6 30          	movzbl (%r8),%esi
    15e7:	48 d3 e6             	shl    %cl,%rsi
    15ea:	49 01 f2             	add    %rsi,%r10
    15ed:	83 c1 08             	add    $0x8,%ecx
    15f0:	41 83 c3 ff          	add    $0xffffffff,%r11d
    15f4:	49 89 f8             	mov    %rdi,%r8
    15f7:	41 8b 74 24 64       	mov    0x64(%r12),%esi
    15fc:	39 ce                	cmp    %ecx,%esi
    15fe:	77 d6                	ja     15d6 <inflate+0x15d6>
    1600:	48 89 f7             	mov    %rsi,%rdi
    1603:	48 89 ce             	mov    %rcx,%rsi
    1606:	48 89 f9             	mov    %rdi,%rcx
    1609:	48 89 d7             	mov    %rdx,%rdi
    160c:	d3 e7                	shl    %cl,%edi
    160e:	83 c7 ff             	add    $0xffffffff,%edi
    1611:	44 21 d7             	and    %r10d,%edi
    1614:	41 03 7c 24 5c       	add    0x5c(%r12),%edi
    1619:	41 89 7c 24 5c       	mov    %edi,0x5c(%r12)
    161e:	48 89 cf             	mov    %rcx,%rdi
    1621:	41 03 bc 24 ec 1b 00 	add    0x1bec(%r12),%edi
    1628:	00 
    1629:	41 89 bc 24 ec 1b 00 	mov    %edi,0x1bec(%r12)
    1630:	00 
    1631:	49 d3 ea             	shr    %cl,%r10
    1634:	f7 d9                	neg    %ecx
    1636:	01 f1                	add    %esi,%ecx
    1638:	e9 25 f5 ff ff       	jmpq   b62 <inflate+0xb62>
    163d:	45 85 db             	test   %r11d,%r11d
    1640:	0f 84 84 06 00 00    	je     1cca <inflate+0x1cca>
    1646:	48 89 f9             	mov    %rdi,%rcx
    1649:	41 0f b6 30          	movzbl (%r8),%esi
    164d:	48 d3 e6             	shl    %cl,%rsi
    1650:	49 01 f2             	add    %rsi,%r10
    1653:	49 83 c0 01          	add    $0x1,%r8
    1657:	83 c1 08             	add    $0x8,%ecx
    165a:	41 83 c3 ff          	add    $0xffffffff,%r11d
    165e:	48 89 cf             	mov    %rcx,%rdi
    1661:	41 8b 09             	mov    (%r9),%ecx
    1664:	48 89 d6             	mov    %rdx,%rsi
    1667:	d3 e6                	shl    %cl,%esi
    1669:	8d 4e ff             	lea    -0x1(%rsi),%ecx
    166c:	44 21 d1             	and    %r10d,%ecx
    166f:	89 c9                	mov    %ecx,%ecx
    1671:	49 8b 74 24 70       	mov    0x70(%r12),%rsi
    1676:	8b 34 8e             	mov    (%rsi,%rcx,4),%esi
    1679:	89 b5 34 fe ff ff    	mov    %esi,-0x1cc(%rbp)
    167f:	48 89 f1             	mov    %rsi,%rcx
    1682:	c1 e9 08             	shr    $0x8,%ecx
    1685:	0f b6 c9             	movzbl %cl,%ecx
    1688:	39 cf                	cmp    %ecx,%edi
    168a:	72 b1                	jb     163d <inflate+0x163d>
    168c:	40 0f b6 ce          	movzbl %sil,%ecx
    1690:	81 e1 f0 00 00 00    	and    $0xf0,%ecx
    1696:	85 c9                	test   %ecx,%ecx
    1698:	0f 84 3e 06 00 00    	je     1cdc <inflate+0x1cdc>
    169e:	0f b6 8d 35 fe ff ff 	movzbl -0x1cb(%rbp),%ecx
    16a5:	48 89 ce             	mov    %rcx,%rsi
    16a8:	41 03 b4 24 ec 1b 00 	add    0x1bec(%r12),%esi
    16af:	00 
    16b0:	41 89 b4 24 ec 1b 00 	mov    %esi,0x1bec(%r12)
    16b7:	00 
    16b8:	49 d3 ea             	shr    %cl,%r10
    16bb:	f7 d9                	neg    %ecx
    16bd:	01 f9                	add    %edi,%ecx
    16bf:	0f b6 b5 34 fe ff ff 	movzbl -0x1cc(%rbp),%esi
    16c6:	48 89 f7             	mov    %rsi,%rdi
    16c9:	83 e7 40             	and    $0x40,%edi
    16cc:	85 ff                	test   %edi,%edi
    16ce:	0f 8f 1a 06 00 00    	jg     1cee <inflate+0x1cee>
    16d4:	0f b7 bd 36 fe ff ff 	movzwl -0x1ca(%rbp),%edi
    16db:	41 89 7c 24 60       	mov    %edi,0x60(%r12)
    16e0:	83 e6 0f             	and    $0xf,%esi
    16e3:	41 89 74 24 64       	mov    %esi,0x64(%r12)
    16e8:	41 c7 44 24 08 4b 3f 	movl   $0x3f4b,0x8(%r12)
    16ef:	00 00 
    16f1:	e9 96 f4 ff ff       	jmpq   b8c <inflate+0xb8c>
    16f6:	45 85 db             	test   %r11d,%r11d
    16f9:	0f 84 0f 06 00 00    	je     1d0e <inflate+0x1d0e>
    16ff:	41 0f b6 30          	movzbl (%r8),%esi
    1703:	48 d3 e6             	shl    %cl,%rsi
    1706:	49 01 f2             	add    %rsi,%r10
    1709:	49 83 c0 01          	add    $0x1,%r8
    170d:	83 c1 08             	add    $0x8,%ecx
    1710:	41 83 c3 ff          	add    $0xffffffff,%r11d
    1714:	41 8b 74 24 64       	mov    0x64(%r12),%esi
    1719:	39 ce                	cmp    %ecx,%esi
    171b:	77 d9                	ja     16f6 <inflate+0x16f6>
    171d:	48 89 f7             	mov    %rsi,%rdi
    1720:	48 89 ce             	mov    %rcx,%rsi
    1723:	48 89 f9             	mov    %rdi,%rcx
    1726:	d3 e2                	shl    %cl,%edx
    1728:	83 c2 ff             	add    $0xffffffff,%edx
    172b:	44 21 d2             	and    %r10d,%edx
    172e:	41 03 54 24 60       	add    0x60(%r12),%edx
    1733:	41 89 54 24 60       	mov    %edx,0x60(%r12)
    1738:	48 89 ca             	mov    %rcx,%rdx
    173b:	41 03 94 24 ec 1b 00 	add    0x1bec(%r12),%edx
    1742:	00 
    1743:	41 89 94 24 ec 1b 00 	mov    %edx,0x1bec(%r12)
    174a:	00 
    174b:	49 d3 ea             	shr    %cl,%r10
    174e:	f7 d9                	neg    %ecx
    1750:	01 f1                	add    %esi,%ecx
    1752:	e9 42 f4 ff ff       	jmpq   b99 <inflate+0xb99>
    1757:	48 89 fb             	mov    %rdi,%rbx
    175a:	e9 41 ea ff ff       	jmpq   1a0 <inflate+0x1a0>
    175f:	4c 89 eb             	mov    %r13,%rbx
    1762:	44 29 f3             	sub    %r14d,%ebx
    1765:	01 d3                	add    %edx,%ebx
    1767:	41 8b 54 24 40       	mov    0x40(%r12),%edx
    176c:	39 da                	cmp    %ebx,%edx
    176e:	0f 82 a9 05 00 00    	jb     1d1d <inflate+0x1d1d>
    1774:	41 8b 54 24 44       	mov    0x44(%r12),%edx
    1779:	39 d3                	cmp    %edx,%ebx
    177b:	0f 87 c8 05 00 00    	ja     1d49 <inflate+0x1d49>
    1781:	29 da                	sub    %ebx,%edx
    1783:	89 d2                	mov    %edx,%edx
    1785:	49 03 54 24 48       	add    0x48(%r12),%rdx
    178a:	e9 de 05 00 00       	jmpq   1d6d <inflate+0x1d6d>
    178f:	48 83 c2 01          	add    $0x1,%rdx
    1793:	0f b6 3a             	movzbl (%rdx),%edi
    1796:	41 88 3f             	mov    %dil,(%r15)
    1799:	49 83 c7 01          	add    $0x1,%r15
    179d:	83 c1 ff             	add    $0xffffffff,%ecx
    17a0:	85 c9                	test   %ecx,%ecx
    17a2:	75 eb                	jne    178f <inflate+0x178f>
    17a4:	41 29 dd             	sub    %ebx,%r13d
    17a7:	41 8b 4c 24 5c       	mov    0x5c(%r12),%ecx
    17ac:	85 c9                	test   %ecx,%ecx
    17ae:	0f 84 d3 05 00 00    	je     1d87 <inflate+0x1d87>
    17b4:	48 8b 8d 18 ff ff ff 	mov    -0xe8(%rbp),%rcx
    17bb:	48 8b 5d 80          	mov    -0x80(%rbp),%rbx
    17bf:	e9 52 e9 ff ff       	jmpq   116 <inflate+0x116>
    17c4:	45 85 db             	test   %r11d,%r11d
    17c7:	0f 84 d3 05 00 00    	je     1da0 <inflate+0x1da0>
    17cd:	49 8d 78 01          	lea    0x1(%r8),%rdi
    17d1:	41 0f b6 10          	movzbl (%r8),%edx
    17d5:	48 d3 e2             	shl    %cl,%rdx
    17d8:	49 01 d2             	add    %rdx,%r10
    17db:	41 83 c3 ff          	add    $0xffffffff,%r11d
    17df:	83 c1 08             	add    $0x8,%ecx
    17e2:	49 89 f8             	mov    %rdi,%r8
    17e5:	83 f9 1f             	cmp    $0x1f,%ecx
    17e8:	76 da                	jbe    17c4 <inflate+0x17c4>
    17ea:	4c 89 f2             	mov    %r14,%rdx
    17ed:	44 29 ea             	sub    %r13d,%edx
    17f0:	89 d6                	mov    %edx,%esi
    17f2:	48 89 f7             	mov    %rsi,%rdi
    17f5:	48 03 7b 28          	add    0x28(%rbx),%rdi
    17f9:	48 89 7b 28          	mov    %rdi,0x28(%rbx)
    17fd:	49 03 74 24 28       	add    0x28(%r12),%rsi
    1802:	49 89 74 24 28       	mov    %rsi,0x28(%r12)
    1807:	49 63 74 24 10       	movslq 0x10(%r12),%rsi
    180c:	83 e6 04             	and    $0x4,%esi
    180f:	85 f6                	test   %esi,%esi
    1811:	0f 8f 91 05 00 00    	jg     1da8 <inflate+0x1da8>
    1817:	49 63 54 24 10       	movslq 0x10(%r12),%rdx
    181c:	83 e2 04             	and    $0x4,%edx
    181f:	85 d2                	test   %edx,%edx
    1821:	0f 8f cf 05 00 00    	jg     1df6 <inflate+0x1df6>
    1827:	31 c9                	xor    %ecx,%ecx
    1829:	49 89 ca             	mov    %rcx,%r10
    182c:	4d 89 ee             	mov    %r13,%r14
    182f:	e9 00 f4 ff ff       	jmpq   c34 <inflate+0xc34>
    1834:	45 31 db             	xor    %r11d,%r11d
    1837:	48 8b b5 98 fe ff ff 	mov    -0x168(%rbp),%rsi
    183e:	e9 5d e9 ff ff       	jmpq   1a0 <inflate+0x1a0>
    1843:	31 c9                	xor    %ecx,%ecx
    1845:	49 89 ca             	mov    %rcx,%r10
    1848:	e9 3e e9 ff ff       	jmpq   18b <inflate+0x18b>
    184d:	ba 40 00 00 00       	mov    $0x40,%edx
    1852:	45 8b 4c 24 08       	mov    0x8(%r12),%r9d
    1857:	41 81 f9 3f 3f 00 00 	cmp    $0x3f3f,%r9d
    185e:	0f 84 bd 05 00 00    	je     1e21 <inflate+0x1e21>
    1864:	31 c9                	xor    %ecx,%ecx
    1866:	e9 bb 05 00 00       	jmpq   1e26 <inflate+0x1e26>
    186b:	45 31 db             	xor    %r11d,%r11d
    186e:	e9 2d e9 ff ff       	jmpq   1a0 <inflate+0x1a0>
    1873:	85 d2                	test   %edx,%edx
    1875:	0f 84 8b 00 00 00    	je     1906 <inflate+0x1906>
    187b:	83 fa 01             	cmp    $0x1,%edx
    187e:	0f 85 8b 00 00 00    	jne    190f <inflate+0x190f>
    1884:	4c 89 e7             	mov    %r12,%rdi
    1887:	48 89 5d 88          	mov    %rbx,-0x78(%rbp)
    188b:	4c 89 b5 58 ff ff ff 	mov    %r14,-0xa8(%rbp)
    1892:	4c 89 ad 28 ff ff ff 	mov    %r13,-0xd8(%rbp)
    1899:	4c 89 45 a8          	mov    %r8,-0x58(%rbp)
    189d:	4c 89 9d f0 fe ff ff 	mov    %r11,-0x110(%rbp)
    18a4:	4c 89 d3             	mov    %r10,%rbx
    18a7:	49 89 cd             	mov    %rcx,%r13
    18aa:	49 89 f6             	mov    %rsi,%r14
    18ad:	e8 ee 19 00 00       	callq  32a0 <fixedtables>
    18b2:	41 83 fe 06          	cmp    $0x6,%r14d
    18b6:	41 c7 44 24 08 47 3f 	movl   $0x3f47,0x8(%r12)
    18bd:	00 00 
    18bf:	0f 84 bc 05 00 00    	je     1e81 <inflate+0x1e81>
    18c5:	4c 89 e9             	mov    %r13,%rcx
    18c8:	4c 89 f6             	mov    %r14,%rsi
    18cb:	49 89 da             	mov    %rbx,%r10
    18ce:	4c 8b 9d f0 fe ff ff 	mov    -0x110(%rbp),%r11
    18d5:	4c 8b 45 a8          	mov    -0x58(%rbp),%r8
    18d9:	4c 8b ad 28 ff ff ff 	mov    -0xd8(%rbp),%r13
    18e0:	4c 8b b5 58 ff ff ff 	mov    -0xa8(%rbp),%r14
    18e7:	48 8b 5d 88          	mov    -0x78(%rbp),%rbx
    18eb:	4c 8b 8d 40 fe ff ff 	mov    -0x1c0(%rbp),%r9
    18f2:	48 8b 85 b8 fe ff ff 	mov    -0x148(%rbp),%rax
    18f9:	eb 14                	jmp    190f <inflate+0x190f>
    18fb:	41 c7 44 24 08 44 3f 	movl   $0x3f44,0x8(%r12)
    1902:	00 00 
    1904:	eb 09                	jmp    190f <inflate+0x190f>
    1906:	41 c7 44 24 08 41 3f 	movl   $0x3f41,0x8(%r12)
    190d:	00 00 
    190f:	49 c1 ea 03          	shr    $0x3,%r10
    1913:	83 c1 fd             	add    $0xfffffffd,%ecx
    1916:	e9 fb e7 ff ff       	jmpq   116 <inflate+0x116>
    191b:	41 c7 84 24 ec 1b 00 	movl   $0xffffffff,0x1bec(%r12)
    1922:	00 ff ff ff ff 
    1927:	4c 89 f8             	mov    %r15,%rax
    192a:	49 89 d7             	mov    %rdx,%r15
    192d:	4d 89 e9             	mov    %r13,%r9
    1930:	49 89 fd             	mov    %rdi,%r13
    1933:	48 8b b5 98 fe ff ff 	mov    -0x168(%rbp),%rsi
    193a:	e9 d7 e7 ff ff       	jmpq   116 <inflate+0x116>
    193f:	48 89 f9             	mov    %rdi,%rcx
    1942:	48 8b 85 c0 fe ff ff 	mov    -0x140(%rbp),%rax
    1949:	45 31 db             	xor    %r11d,%r11d
    194c:	48 8b b5 98 fe ff ff 	mov    -0x168(%rbp),%rsi
    1953:	e9 48 e8 ff ff       	jmpq   1a0 <inflate+0x1a0>
    1958:	40 0f b6 c6          	movzbl %sil,%eax
    195c:	25 f0 00 00 00       	and    $0xf0,%eax
    1961:	85 c0                	test   %eax,%eax
    1963:	0f 85 38 f6 ff ff    	jne    fa1 <inflate+0xfa1>
    1969:	89 b5 38 fe ff ff    	mov    %esi,-0x1c8(%rbp)
    196f:	e9 65 05 00 00       	jmpq   1ed9 <inflate+0x1ed9>
    1974:	41 c7 44 24 08 4d 3f 	movl   $0x3f4d,0x8(%r12)
    197b:	00 00 
    197d:	48 8b 85 c0 fe ff ff 	mov    -0x140(%rbp),%rax
    1984:	48 8b b5 98 fe ff ff 	mov    -0x168(%rbp),%rsi
    198b:	e9 86 e7 ff ff       	jmpq   116 <inflate+0x116>
    1990:	41 c7 84 24 ec 1b 00 	movl   $0xffffffff,0x1bec(%r12)
    1997:	00 ff ff ff ff 
    199c:	41 c7 44 24 08 3f 3f 	movl   $0x3f3f,0x8(%r12)
    19a3:	00 00 
    19a5:	48 8b 85 c0 fe ff ff 	mov    -0x140(%rbp),%rax
    19ac:	48 8b b5 98 fe ff ff 	mov    -0x168(%rbp),%rsi
    19b3:	e9 5e e7 ff ff       	jmpq   116 <inflate+0x116>
    19b8:	48 8d 05 00 00 00 00 	lea    0x0(%rip),%rax        # 19bf <inflate+0x19bf>
    19bf:	48 89 43 30          	mov    %rax,0x30(%rbx)
    19c3:	41 c7 44 24 08 51 3f 	movl   $0x3f51,0x8(%r12)
    19ca:	00 00 
    19cc:	48 8b 85 c0 fe ff ff 	mov    -0x140(%rbp),%rax
    19d3:	48 8b b5 98 fe ff ff 	mov    -0x168(%rbp),%rsi
    19da:	e9 37 e7 ff ff       	jmpq   116 <inflate+0x116>
    19df:	48 8d 0d 00 00 00 00 	lea    0x0(%rip),%rcx        # 19e6 <inflate+0x19e6>
    19e6:	48 89 4b 30          	mov    %rcx,0x30(%rbx)
    19ea:	41 c7 44 24 08 51 3f 	movl   $0x3f51,0x8(%r12)
    19f1:	00 00 
    19f3:	4c 8b 9d f8 fe ff ff 	mov    -0x108(%rbp),%r11
    19fa:	4c 8b 85 18 ff ff ff 	mov    -0xe8(%rbp),%r8
    1a01:	4c 8b 95 08 ff ff ff 	mov    -0xf8(%rbp),%r10
    1a08:	48 8b 8d 80 fe ff ff 	mov    -0x180(%rbp),%rcx
    1a0f:	4c 8b 8d 40 fe ff ff 	mov    -0x1c0(%rbp),%r9
    1a16:	48 8b b5 98 fe ff ff 	mov    -0x168(%rbp),%rsi
    1a1d:	e9 f4 e6 ff ff       	jmpq   116 <inflate+0x116>
    1a22:	45 31 db             	xor    %r11d,%r11d
    1a25:	e9 76 e7 ff ff       	jmpq   1a0 <inflate+0x1a0>
    1a2a:	41 0f b7 54 24 20    	movzwl 0x20(%r12),%edx
    1a30:	4c 39 d2             	cmp    %r10,%rdx
    1a33:	0f 85 07 05 00 00    	jne    1f40 <inflate+0x1f40>
    1a39:	31 c9                	xor    %ecx,%ecx
    1a3b:	49 89 ca             	mov    %rcx,%r10
    1a3e:	e9 9c ec ff ff       	jmpq   6df <inflate+0x6df>
    1a43:	45 31 db             	xor    %r11d,%r11d
    1a46:	48 8b b5 98 fe ff ff 	mov    -0x168(%rbp),%rsi
    1a4d:	e9 4e e7 ff ff       	jmpq   1a0 <inflate+0x1a0>
    1a52:	48 8b 72 38          	mov    0x38(%rdx),%rsi
    1a56:	48 85 f6             	test   %rsi,%rsi
    1a59:	74 18                	je     1a73 <inflate+0x1a73>
    1a5b:	41 8b 7c 24 5c       	mov    0x5c(%r12),%edi
    1a60:	8b 52 40             	mov    0x40(%rdx),%edx
    1a63:	39 fa                	cmp    %edi,%edx
    1a65:	76 0c                	jbe    1a73 <inflate+0x1a73>
    1a67:	8d 57 01             	lea    0x1(%rdi),%edx
    1a6a:	41 89 54 24 5c       	mov    %edx,0x5c(%r12)
    1a6f:	44 88 14 37          	mov    %r10b,(%rdi,%rsi,1)
    1a73:	83 c1 01             	add    $0x1,%ecx
    1a76:	45 84 d2             	test   %r10b,%r10b
    1a79:	0f 84 0a ec ff ff    	je     689 <inflate+0x689>
    1a7f:	44 39 d9             	cmp    %r11d,%ecx
    1a82:	0f 83 01 ec ff ff    	jae    689 <inflate+0x689>
    1a88:	89 ca                	mov    %ecx,%edx
    1a8a:	45 0f b6 14 10       	movzbl (%r8,%rdx,1),%r10d
    1a8f:	49 8b 54 24 30       	mov    0x30(%r12),%rdx
    1a94:	48 85 d2             	test   %rdx,%rdx
    1a97:	75 b9                	jne    1a52 <inflate+0x1a52>
    1a99:	eb d8                	jmp    1a73 <inflate+0x1a73>
    1a9b:	45 31 db             	xor    %r11d,%r11d
    1a9e:	48 8b b5 98 fe ff ff 	mov    -0x168(%rbp),%rsi
    1aa5:	e9 f6 e6 ff ff       	jmpq   1a0 <inflate+0x1a0>
    1aaa:	49 63 4c 24 10       	movslq 0x10(%r12),%rcx
    1aaf:	83 e1 04             	and    $0x4,%ecx
    1ab2:	85 c9                	test   %ecx,%ecx
    1ab4:	0f 8f 9f 04 00 00    	jg     1f59 <inflate+0x1f59>
    1aba:	31 c9                	xor    %ecx,%ecx
    1abc:	49 89 ca             	mov    %rcx,%r10
    1abf:	e9 8a ee ff ff       	jmpq   94e <inflate+0x94e>
    1ac4:	4c 89 da             	mov    %r11,%rdx
    1ac7:	85 d2                	test   %edx,%edx
    1ac9:	74 35                	je     1b00 <inflate+0x1b00>
    1acb:	49 8b 7c 24 30       	mov    0x30(%r12),%rdi
    1ad0:	48 85 ff             	test   %rdi,%rdi
    1ad3:	0f 85 ed 04 00 00    	jne    1fc6 <inflate+0x1fc6>
    1ad9:	49 63 74 24 18       	movslq 0x18(%r12),%rsi
    1ade:	81 e6 00 02 00 00    	and    $0x200,%esi
    1ae4:	85 f6                	test   %esi,%esi
    1ae6:	0f 8f f3 04 00 00    	jg     1fdf <inflate+0x1fdf>
    1aec:	41 29 d3             	sub    %edx,%r11d
    1aef:	41 8b 74 24 5c       	mov    0x5c(%r12),%esi
    1af4:	29 d6                	sub    %edx,%esi
    1af6:	41 89 74 24 5c       	mov    %esi,0x5c(%r12)
    1afb:	89 d2                	mov    %edx,%edx
    1afd:	49 01 d0             	add    %rdx,%r8
    1b00:	41 8b 54 24 5c       	mov    0x5c(%r12),%edx
    1b05:	85 d2                	test   %edx,%edx
    1b07:	0f 84 5d ee ff ff    	je     96a <inflate+0x96a>
    1b0d:	48 8b b5 98 fe ff ff 	mov    -0x168(%rbp),%rsi
    1b14:	e9 87 e6 ff ff       	jmpq   1a0 <inflate+0x1a0>
    1b19:	45 31 db             	xor    %r11d,%r11d
    1b1c:	48 8b b5 98 fe ff ff 	mov    -0x168(%rbp),%rsi
    1b23:	e9 78 e6 ff ff       	jmpq   1a0 <inflate+0x1a0>
    1b28:	83 c1 01             	add    $0x1,%ecx
    1b2b:	45 84 d2             	test   %r10b,%r10b
    1b2e:	0f 84 3b ec ff ff    	je     76f <inflate+0x76f>
    1b34:	44 39 d9             	cmp    %r11d,%ecx
    1b37:	0f 83 32 ec ff ff    	jae    76f <inflate+0x76f>
    1b3d:	89 ca                	mov    %ecx,%edx
    1b3f:	45 0f b6 14 10       	movzbl (%r8,%rdx,1),%r10d
    1b44:	49 8b 54 24 30       	mov    0x30(%r12),%rdx
    1b49:	48 85 d2             	test   %rdx,%rdx
    1b4c:	74 da                	je     1b28 <inflate+0x1b28>
    1b4e:	48 8b 72 28          	mov    0x28(%rdx),%rsi
    1b52:	48 85 f6             	test   %rsi,%rsi
    1b55:	74 d1                	je     1b28 <inflate+0x1b28>
    1b57:	41 8b 7c 24 5c       	mov    0x5c(%r12),%edi
    1b5c:	8b 52 30             	mov    0x30(%rdx),%edx
    1b5f:	39 fa                	cmp    %edi,%edx
    1b61:	76 c5                	jbe    1b28 <inflate+0x1b28>
    1b63:	8d 57 01             	lea    0x1(%rdi),%edx
    1b66:	41 89 54 24 5c       	mov    %edx,0x5c(%r12)
    1b6b:	44 88 14 37          	mov    %r10b,(%rdi,%rsi,1)
    1b6f:	eb b7                	jmp    1b28 <inflate+0x1b28>
    1b71:	44 88 95 3c fe ff ff 	mov    %r10b,-0x1c4(%rbp)
    1b78:	49 c1 ea 08          	shr    $0x8,%r10
    1b7c:	44 88 95 3d fe ff ff 	mov    %r10b,-0x1c3(%rbp)
    1b83:	49 8b 7c 24 20       	mov    0x20(%r12),%rdi
    1b88:	48 8d b5 3c fe ff ff 	lea    -0x1c4(%rbp),%rsi
    1b8f:	ba 02 00 00 00       	mov    $0x2,%edx
    1b94:	4c 89 bd d8 fe ff ff 	mov    %r15,-0x128(%rbp)
    1b9b:	4c 89 b5 58 ff ff ff 	mov    %r14,-0xa8(%rbp)
    1ba2:	4c 89 ad 30 ff ff ff 	mov    %r13,-0xd0(%rbp)
    1ba9:	4d 89 c5             	mov    %r8,%r13
    1bac:	4d 89 de             	mov    %r11,%r14
    1baf:	e8 00 00 00 00       	callq  1bb4 <inflate+0x1bb4>
    1bb4:	49 89 44 24 20       	mov    %rax,0x20(%r12)
    1bb9:	4d 89 e8             	mov    %r13,%r8
    1bbc:	4d 89 f3             	mov    %r14,%r11
    1bbf:	4c 8b 8d 40 fe ff ff 	mov    -0x1c0(%rbp),%r9
    1bc6:	e9 bc ee ff ff       	jmpq   a87 <inflate+0xa87>
    1bcb:	45 31 db             	xor    %r11d,%r11d
    1bce:	e9 cd e5 ff ff       	jmpq   1a0 <inflate+0x1a0>
    1bd3:	49 81 fa 1f 8b 00 00 	cmp    $0x8b1f,%r10
    1bda:	0f 85 21 f9 ff ff    	jne    1501 <inflate+0x1501>
    1be0:	41 8b 4c 24 38       	mov    0x38(%r12),%ecx
    1be5:	85 c9                	test   %ecx,%ecx
    1be7:	75 09                	jne    1bf2 <inflate+0x1bf2>
    1be9:	41 c7 44 24 38 0f 00 	movl   $0xf,0x38(%r12)
    1bf0:	00 00 
    1bf2:	31 ff                	xor    %edi,%edi
    1bf4:	48 89 fe             	mov    %rdi,%rsi
    1bf7:	48 89 fa             	mov    %rdi,%rdx
    1bfa:	48 89 5d a0          	mov    %rbx,-0x60(%rbp)
    1bfe:	4c 89 45 b0          	mov    %r8,-0x50(%rbp)
    1c02:	4c 89 9d 00 ff ff ff 	mov    %r11,-0x100(%rbp)
    1c09:	48 89 c3             	mov    %rax,%rbx
    1c0c:	e8 00 00 00 00       	callq  1c11 <inflate+0x1c11>
    1c11:	48 89 c7             	mov    %rax,%rdi
    1c14:	49 89 7c 24 20       	mov    %rdi,0x20(%r12)
    1c19:	c6 85 3c fe ff ff 1f 	movb   $0x1f,-0x1c4(%rbp)
    1c20:	c6 85 3d fe ff ff 8b 	movb   $0x8b,-0x1c3(%rbp)
    1c27:	48 8d b5 3c fe ff ff 	lea    -0x1c4(%rbp),%rsi
    1c2e:	ba 02 00 00 00       	mov    $0x2,%edx
    1c33:	e8 00 00 00 00       	callq  1c38 <inflate+0x1c38>
    1c38:	49 89 44 24 20       	mov    %rax,0x20(%r12)
    1c3d:	41 c7 44 24 08 35 3f 	movl   $0x3f35,0x8(%r12)
    1c44:	00 00 
    1c46:	48 89 d8             	mov    %rbx,%rax
    1c49:	4c 8b 9d 00 ff ff ff 	mov    -0x100(%rbp),%r11
    1c50:	4c 8b 45 b0          	mov    -0x50(%rbp),%r8
    1c54:	48 8b 5d a0          	mov    -0x60(%rbp),%rbx
    1c58:	4c 8b 8d 40 fe ff ff 	mov    -0x1c0(%rbp),%r9
    1c5f:	31 c9                	xor    %ecx,%ecx
    1c61:	48 8b b5 98 fe ff ff 	mov    -0x168(%rbp),%rsi
    1c68:	49 89 ca             	mov    %rcx,%r10
    1c6b:	e9 a6 e4 ff ff       	jmpq   116 <inflate+0x116>
    1c70:	4c 89 d6             	mov    %r10,%rsi
    1c73:	48 c1 ee 08          	shr    $0x8,%rsi
    1c77:	41 0f b6 d2          	movzbl %r10b,%edx
    1c7b:	c1 e2 08             	shl    $0x8,%edx
    1c7e:	89 d2                	mov    %edx,%edx
    1c80:	48 8d 3c 16          	lea    (%rsi,%rdx,1),%rdi
    1c84:	48 97                	xchg   %rax,%rdi
    1c86:	31 d2                	xor    %edx,%edx
    1c88:	be 1f 00 00 00       	mov    $0x1f,%esi
    1c8d:	48 f7 f6             	div    %rsi
    1c90:	48 85 d2             	test   %rdx,%rdx
    1c93:	0f 84 d9 03 00 00    	je     2072 <inflate+0x2072>
    1c99:	48 89 f8             	mov    %rdi,%rax
    1c9c:	48 8b b5 98 fe ff ff 	mov    -0x168(%rbp),%rsi
    1ca3:	e9 83 f8 ff ff       	jmpq   152b <inflate+0x152b>
    1ca8:	4c 8b b5 f0 fe ff ff 	mov    -0x110(%rbp),%r14
    1caf:	48 8b 85 b8 fe ff ff 	mov    -0x148(%rbp),%rax
    1cb6:	e9 37 04 00 00       	jmpq   20f2 <inflate+0x20f2>
    1cbb:	45 31 db             	xor    %r11d,%r11d
    1cbe:	48 8b b5 98 fe ff ff 	mov    -0x168(%rbp),%rsi
    1cc5:	e9 d6 e4 ff ff       	jmpq   1a0 <inflate+0x1a0>
    1cca:	48 89 f9             	mov    %rdi,%rcx
    1ccd:	45 31 db             	xor    %r11d,%r11d
    1cd0:	48 8b b5 98 fe ff ff 	mov    -0x168(%rbp),%rsi
    1cd7:	e9 c4 e4 ff ff       	jmpq   1a0 <inflate+0x1a0>
    1cdc:	89 b5 38 fe ff ff    	mov    %esi,-0x1c8(%rbp)
    1ce2:	48 89 85 c0 fe ff ff 	mov    %rax,-0x140(%rbp)
    1ce9:	e9 72 04 00 00       	jmpq   2160 <inflate+0x2160>
    1cee:	48 8d 15 00 00 00 00 	lea    0x0(%rip),%rdx        # 1cf5 <inflate+0x1cf5>
    1cf5:	48 89 53 30          	mov    %rdx,0x30(%rbx)
    1cf9:	41 c7 44 24 08 51 3f 	movl   $0x3f51,0x8(%r12)
    1d00:	00 00 
    1d02:	48 8b b5 98 fe ff ff 	mov    -0x168(%rbp),%rsi
    1d09:	e9 08 e4 ff ff       	jmpq   116 <inflate+0x116>
    1d0e:	45 31 db             	xor    %r11d,%r11d
    1d11:	48 8b b5 98 fe ff ff 	mov    -0x168(%rbp),%rsi
    1d18:	e9 83 e4 ff ff       	jmpq   1a0 <inflate+0x1a0>
    1d1d:	49 63 94 24 e8 1b 00 	movslq 0x1be8(%r12),%rdx
    1d24:	00 
    1d25:	85 d2                	test   %edx,%edx
    1d27:	0f 84 47 fa ff ff    	je     1774 <inflate+0x1774>
    1d2d:	48 8d 15 00 00 00 00 	lea    0x0(%rip),%rdx        # 1d34 <inflate+0x1d34>
    1d34:	48 89 57 30          	mov    %rdx,0x30(%rdi)
    1d38:	41 c7 44 24 08 51 3f 	movl   $0x3f51,0x8(%r12)
    1d3f:	00 00 
    1d41:	48 89 fb             	mov    %rdi,%rbx
    1d44:	e9 cd e3 ff ff       	jmpq   116 <inflate+0x116>
    1d49:	48 89 bd 78 ff ff ff 	mov    %rdi,-0x88(%rbp)
    1d50:	48 89 d7             	mov    %rdx,%rdi
    1d53:	29 df                	sub    %ebx,%edi
    1d55:	41 03 7c 24 3c       	add    0x3c(%r12),%edi
    1d5a:	89 ff                	mov    %edi,%edi
    1d5c:	49 03 7c 24 48       	add    0x48(%r12),%rdi
    1d61:	29 d3                	sub    %edx,%ebx
    1d63:	48 89 fa             	mov    %rdi,%rdx
    1d66:	48 8b bd 78 ff ff ff 	mov    -0x88(%rbp),%rdi
    1d6d:	48 89 7d 80          	mov    %rdi,-0x80(%rbp)
    1d71:	41 8b 7c 24 5c       	mov    0x5c(%r12),%edi
    1d76:	39 df                	cmp    %ebx,%edi
    1d78:	0f 82 49 04 00 00    	jb     21c7 <inflate+0x21c7>
    1d7e:	48 8b 7d 80          	mov    -0x80(%rbp),%rdi
    1d82:	e9 4c ee ff ff       	jmpq   bd3 <inflate+0xbd3>
    1d87:	41 c7 44 24 08 48 3f 	movl   $0x3f48,0x8(%r12)
    1d8e:	00 00 
    1d90:	48 8b 8d 18 ff ff ff 	mov    -0xe8(%rbp),%rcx
    1d97:	48 8b 5d 80          	mov    -0x80(%rbp),%rbx
    1d9b:	e9 76 e3 ff ff       	jmpq   116 <inflate+0x116>
    1da0:	45 31 db             	xor    %r11d,%r11d
    1da3:	e9 f8 e3 ff ff       	jmpq   1a0 <inflate+0x1a0>
    1da8:	45 39 f5             	cmp    %r14d,%r13d
    1dab:	0f 84 66 fa ff ff    	je     1817 <inflate+0x1817>
    1db1:	49 63 44 24 18       	movslq 0x18(%r12),%rax
    1db6:	85 c0                	test   %eax,%eax
    1db8:	0f 85 15 04 00 00    	jne    21d3 <inflate+0x21d3>
    1dbe:	89 d0                	mov    %edx,%eax
    1dc0:	4c 89 fe             	mov    %r15,%rsi
    1dc3:	48 29 c6             	sub    %rax,%rsi
    1dc6:	49 8b 7c 24 20       	mov    0x20(%r12),%rdi
    1dcb:	4c 89 95 58 fe ff ff 	mov    %r10,-0x1a8(%rbp)
    1dd2:	4c 89 bd 90 fe ff ff 	mov    %r15,-0x170(%rbp)
    1dd9:	48 89 8d 48 fe ff ff 	mov    %rcx,-0x1b8(%rbp)
    1de0:	4d 89 c6             	mov    %r8,%r14
    1de3:	4d 89 df             	mov    %r11,%r15
    1de6:	e8 00 00 00 00       	callq  1deb <inflate+0x1deb>
    1deb:	4d 89 f0             	mov    %r14,%r8
    1dee:	4d 89 fb             	mov    %r15,%r11
    1df1:	e9 10 04 00 00       	jmpq   2206 <inflate+0x2206>
    1df6:	49 63 54 24 18       	movslq 0x18(%r12),%rdx
    1dfb:	85 d2                	test   %edx,%edx
    1dfd:	0f 84 34 04 00 00    	je     2237 <inflate+0x2237>
    1e03:	4c 89 d2             	mov    %r10,%rdx
    1e06:	49 8b 74 24 20       	mov    0x20(%r12),%rsi
    1e0b:	48 39 d6             	cmp    %rdx,%rsi
    1e0e:	0f 85 61 04 00 00    	jne    2275 <inflate+0x2275>
    1e14:	31 c9                	xor    %ecx,%ecx
    1e16:	49 89 ca             	mov    %rcx,%r10
    1e19:	4d 89 ee             	mov    %r13,%r14
    1e1c:	e9 13 ee ff ff       	jmpq   c34 <inflate+0xc34>
    1e21:	b9 80 00 00 00       	mov    $0x80,%ecx
    1e26:	bf 00 01 00 00       	mov    $0x100,%edi
    1e2b:	41 81 f9 47 3f 00 00 	cmp    $0x3f47,%r9d
    1e32:	74 0b                	je     1e3f <inflate+0x1e3f>
    1e34:	41 81 f9 42 3f 00 00 	cmp    $0x3f42,%r9d
    1e3b:	74 02                	je     1e3f <inflate+0x1e3f>
    1e3d:	31 ff                	xor    %edi,%edi
    1e3f:	44 01 d2             	add    %r10d,%edx
    1e42:	01 d1                	add    %edx,%ecx
    1e44:	01 f9                	add    %edi,%ecx
    1e46:	89 4b 58             	mov    %ecx,0x58(%rbx)
    1e49:	45 39 ef             	cmp    %r13d,%r15d
    1e4c:	75 05                	jne    1e53 <inflate+0x1e53>
    1e4e:	45 39 c6             	cmp    %r8d,%r14d
    1e51:	74 09                	je     1e5c <inflate+0x1e5c>
    1e53:	83 fe 04             	cmp    $0x4,%esi
    1e56:	0f 85 3c 04 00 00    	jne    2298 <inflate+0x2298>
    1e5c:	85 c0                	test   %eax,%eax
    1e5e:	0f 85 4a 04 00 00    	jne    22ae <inflate+0x22ae>
    1e64:	48 c7 c0 fb ff ff ff 	mov    $0xfffffffffffffffb,%rax
    1e6b:	48 8b 5d f8          	mov    -0x8(%rbp),%rbx
    1e6f:	4c 8b 65 f0          	mov    -0x10(%rbp),%r12
    1e73:	4c 8b 6d e8          	mov    -0x18(%rbp),%r13
    1e77:	4c 8b 75 e0          	mov    -0x20(%rbp),%r14
    1e7b:	4c 8b 7d d8          	mov    -0x28(%rbp),%r15
    1e7f:	c9                   	leaveq 
    1e80:	c3                   	retq   
    1e81:	49 89 da             	mov    %rbx,%r10
    1e84:	49 c1 ea 03          	shr    $0x3,%r10
    1e88:	41 8d 4d fd          	lea    -0x3(%r13),%ecx
    1e8c:	4c 89 f6             	mov    %r14,%rsi
    1e8f:	4c 8b 9d f0 fe ff ff 	mov    -0x110(%rbp),%r11
    1e96:	4c 8b 45 a8          	mov    -0x58(%rbp),%r8
    1e9a:	4c 8b ad 28 ff ff ff 	mov    -0xd8(%rbp),%r13
    1ea1:	4c 8b b5 58 ff ff ff 	mov    -0xa8(%rbp),%r14
    1ea8:	48 8b 5d 88          	mov    -0x78(%rbp),%rbx
    1eac:	48 8b 85 b8 fe ff ff 	mov    -0x148(%rbp),%rax
    1eb3:	e9 e8 e2 ff ff       	jmpq   1a0 <inflate+0x1a0>
    1eb8:	45 85 db             	test   %r11d,%r11d
    1ebb:	0f 84 03 04 00 00    	je     22c4 <inflate+0x22c4>
    1ec1:	48 89 f9             	mov    %rdi,%rcx
    1ec4:	41 0f b6 00          	movzbl (%r8),%eax
    1ec8:	48 d3 e0             	shl    %cl,%rax
    1ecb:	49 01 c2             	add    %rax,%r10
    1ece:	49 83 c0 01          	add    $0x1,%r8
    1ed2:	8d 79 08             	lea    0x8(%rcx),%edi
    1ed5:	41 83 c3 ff          	add    $0xffffffff,%r11d
    1ed9:	0f b6 b5 39 fe ff ff 	movzbl -0x1c7(%rbp),%esi
    1ee0:	0f b6 85 38 fe ff ff 	movzbl -0x1c8(%rbp),%eax
    1ee7:	8d 0c 06             	lea    (%rsi,%rax,1),%ecx
    1eea:	48 89 d0             	mov    %rdx,%rax
    1eed:	d3 e0                	shl    %cl,%eax
    1eef:	83 c0 ff             	add    $0xffffffff,%eax
    1ef2:	44 21 d0             	and    %r10d,%eax
    1ef5:	48 89 f1             	mov    %rsi,%rcx
    1ef8:	d3 e8                	shr    %cl,%eax
    1efa:	0f b7 b5 3a fe ff ff 	movzwl -0x1c6(%rbp),%esi
    1f01:	01 f0                	add    %esi,%eax
    1f03:	89 c0                	mov    %eax,%eax
    1f05:	49 8b 74 24 68       	mov    0x68(%r12),%rsi
    1f0a:	8b 04 86             	mov    (%rsi,%rax,4),%eax
    1f0d:	89 85 34 fe ff ff    	mov    %eax,-0x1cc(%rbp)
    1f13:	c1 e8 08             	shr    $0x8,%eax
    1f16:	0f b6 c0             	movzbl %al,%eax
    1f19:	01 c8                	add    %ecx,%eax
    1f1b:	39 f8                	cmp    %edi,%eax
    1f1d:	77 99                	ja     1eb8 <inflate+0x1eb8>
    1f1f:	49 d3 ea             	shr    %cl,%r10
    1f22:	29 cf                	sub    %ecx,%edi
    1f24:	41 03 8c 24 ec 1b 00 	add    0x1bec(%r12),%ecx
    1f2b:	00 
    1f2c:	41 89 8c 24 ec 1b 00 	mov    %ecx,0x1bec(%r12)
    1f33:	00 
    1f34:	4c 8b 8d 40 fe ff ff 	mov    -0x1c0(%rbp),%r9
    1f3b:	e9 61 f0 ff ff       	jmpq   fa1 <inflate+0xfa1>
    1f40:	48 8d 15 00 00 00 00 	lea    0x0(%rip),%rdx        # 1f47 <inflate+0x1f47>
    1f47:	48 89 53 30          	mov    %rdx,0x30(%rbx)
    1f4b:	41 c7 44 24 08 51 3f 	movl   $0x3f51,0x8(%r12)
    1f52:	00 00 
    1f54:	e9 bd e1 ff ff       	jmpq   116 <inflate+0x116>
    1f59:	44 88 95 3c fe ff ff 	mov    %r10b,-0x1c4(%rbp)
    1f60:	49 c1 ea 08          	shr    $0x8,%r10
    1f64:	44 88 95 3d fe ff ff 	mov    %r10b,-0x1c3(%rbp)
    1f6b:	49 8b 7c 24 20       	mov    0x20(%r12),%rdi
    1f70:	48 8d b5 3c fe ff ff 	lea    -0x1c4(%rbp),%rsi
    1f77:	ba 02 00 00 00       	mov    $0x2,%edx
    1f7c:	4c 89 b5 60 ff ff ff 	mov    %r14,-0xa0(%rbp)
    1f83:	4c 89 ad 38 ff ff ff 	mov    %r13,-0xc8(%rbp)
    1f8a:	4d 89 c5             	mov    %r8,%r13
    1f8d:	4d 89 de             	mov    %r11,%r14
    1f90:	e8 00 00 00 00       	callq  1f95 <inflate+0x1f95>
    1f95:	49 89 44 24 20       	mov    %rax,0x20(%r12)
    1f9a:	4d 89 e8             	mov    %r13,%r8
    1f9d:	4d 89 f3             	mov    %r14,%r11
    1fa0:	4c 8b ad 38 ff ff ff 	mov    -0xc8(%rbp),%r13
    1fa7:	4c 8b b5 60 ff ff ff 	mov    -0xa0(%rbp),%r14
    1fae:	4c 8b 8d 40 fe ff ff 	mov    -0x1c0(%rbp),%r9
    1fb5:	48 8b 85 b8 fe ff ff 	mov    -0x148(%rbp),%rax
    1fbc:	31 c9                	xor    %ecx,%ecx
    1fbe:	49 89 ca             	mov    %rcx,%r10
    1fc1:	e9 88 e9 ff ff       	jmpq   94e <inflate+0x94e>
    1fc6:	4c 8b 4f 18          	mov    0x18(%rdi),%r9
    1fca:	4d 85 c9             	test   %r9,%r9
    1fcd:	0f 85 0a 03 00 00    	jne    22dd <inflate+0x22dd>
    1fd3:	4c 8b 8d 40 fe ff ff 	mov    -0x1c0(%rbp),%r9
    1fda:	e9 fa fa ff ff       	jmpq   1ad9 <inflate+0x1ad9>
    1fdf:	49 63 74 24 10       	movslq 0x10(%r12),%rsi
    1fe4:	83 e6 04             	and    $0x4,%esi
    1fe7:	85 f6                	test   %esi,%esi
    1fe9:	0f 8e fd fa ff ff    	jle    1aec <inflate+0x1aec>
    1fef:	49 8b 7c 24 20       	mov    0x20(%r12),%rdi
    1ff4:	4c 89 c6             	mov    %r8,%rsi
    1ff7:	48 89 d0             	mov    %rdx,%rax
    1ffa:	4c 89 bd e0 fe ff ff 	mov    %r15,-0x120(%rbp)
    2001:	48 89 5d 90          	mov    %rbx,-0x70(%rbp)
    2005:	4c 89 b5 68 ff ff ff 	mov    %r14,-0x98(%rbp)
    200c:	4c 89 ad 40 ff ff ff 	mov    %r13,-0xc0(%rbp)
    2013:	48 89 8d a0 fe ff ff 	mov    %rcx,-0x160(%rbp)
    201a:	4c 89 d3             	mov    %r10,%rbx
    201d:	4d 89 c5             	mov    %r8,%r13
    2020:	4d 89 de             	mov    %r11,%r14
    2023:	49 89 d7             	mov    %rdx,%r15
    2026:	48 89 c2             	mov    %rax,%rdx
    2029:	e8 00 00 00 00       	callq  202e <inflate+0x202e>
    202e:	49 89 44 24 20       	mov    %rax,0x20(%r12)
    2033:	4c 89 fa             	mov    %r15,%rdx
    2036:	4d 89 e8             	mov    %r13,%r8
    2039:	49 89 da             	mov    %rbx,%r10
    203c:	4d 89 f3             	mov    %r14,%r11
    203f:	48 8b 8d a0 fe ff ff 	mov    -0x160(%rbp),%rcx
    2046:	4c 8b ad 40 ff ff ff 	mov    -0xc0(%rbp),%r13
    204d:	4c 8b b5 68 ff ff ff 	mov    -0x98(%rbp),%r14
    2054:	48 8b 5d 90          	mov    -0x70(%rbp),%rbx
    2058:	4c 8b 8d 40 fe ff ff 	mov    -0x1c0(%rbp),%r9
    205f:	48 8b 85 b8 fe ff ff 	mov    -0x148(%rbp),%rax
    2066:	4c 8b bd e0 fe ff ff 	mov    -0x120(%rbp),%r15
    206d:	e9 7a fa ff ff       	jmpq   1aec <inflate+0x1aec>
    2072:	4c 89 d0             	mov    %r10,%rax
    2075:	83 e0 0f             	and    $0xf,%eax
    2078:	83 f8 08             	cmp    $0x8,%eax
    207b:	0f 85 8b 02 00 00    	jne    230c <inflate+0x230c>
    2081:	4c 89 d2             	mov    %r10,%rdx
    2084:	48 c1 ea 04          	shr    $0x4,%rdx
    2088:	48 89 d0             	mov    %rdx,%rax
    208b:	83 e0 0f             	and    $0xf,%eax
    208e:	8d 70 08             	lea    0x8(%rax),%esi
    2091:	41 8b 44 24 38       	mov    0x38(%r12),%eax
    2096:	85 c0                	test   %eax,%eax
    2098:	75 05                	jne    209f <inflate+0x209f>
    209a:	41 89 74 24 38       	mov    %esi,0x38(%r12)
    209f:	83 fe 0f             	cmp    $0xf,%esi
    20a2:	0f 86 87 02 00 00    	jbe    232f <inflate+0x232f>
    20a8:	48 8d 05 00 00 00 00 	lea    0x0(%rip),%rax        # 20af <inflate+0x20af>
    20af:	48 89 43 30          	mov    %rax,0x30(%rbx)
    20b3:	41 c7 44 24 08 51 3f 	movl   $0x3f51,0x8(%r12)
    20ba:	00 00 
    20bc:	83 c1 fc             	add    $0xfffffffc,%ecx
    20bf:	48 89 f8             	mov    %rdi,%rax
    20c2:	49 89 d2             	mov    %rdx,%r10
    20c5:	48 8b b5 98 fe ff ff 	mov    -0x168(%rbp),%rsi
    20cc:	e9 45 e0 ff ff       	jmpq   116 <inflate+0x116>
    20d1:	45 85 db             	test   %r11d,%r11d
    20d4:	0f 84 b5 02 00 00    	je     238f <inflate+0x238f>
    20da:	41 0f b6 10          	movzbl (%r8),%edx
    20de:	4c 89 c9             	mov    %r9,%rcx
    20e1:	48 d3 e2             	shl    %cl,%rdx
    20e4:	49 01 d2             	add    %rdx,%r10
    20e7:	49 83 c0 01          	add    $0x1,%r8
    20eb:	83 c1 08             	add    $0x8,%ecx
    20ee:	41 83 c3 ff          	add    $0xffffffff,%r11d
    20f2:	49 89 c9             	mov    %rcx,%r9
    20f5:	8b 0e                	mov    (%rsi),%ecx
    20f7:	48 89 fa             	mov    %rdi,%rdx
    20fa:	d3 e2                	shl    %cl,%edx
    20fc:	8d 4a ff             	lea    -0x1(%rdx),%ecx
    20ff:	44 21 d1             	and    %r10d,%ecx
    2102:	89 c9                	mov    %ecx,%ecx
    2104:	49 8b 54 24 68       	mov    0x68(%r12),%rdx
    2109:	8b 14 8a             	mov    (%rdx,%rcx,4),%edx
    210c:	89 95 34 fe ff ff    	mov    %edx,-0x1cc(%rbp)
    2112:	48 89 d1             	mov    %rdx,%rcx
    2115:	c1 e9 08             	shr    $0x8,%ecx
    2118:	0f b6 c9             	movzbl %cl,%ecx
    211b:	44 39 c9             	cmp    %r9d,%ecx
    211e:	77 b1                	ja     20d1 <inflate+0x20d1>
    2120:	c1 ea 10             	shr    $0x10,%edx
    2123:	66 83 fa 0f          	cmp    $0xf,%dx
    2127:	0f 86 17 f4 ff ff    	jbe    1544 <inflate+0x1544>
    212d:	66 83 fa 10          	cmp    $0x10,%dx
    2131:	0f 85 6a 02 00 00    	jne    23a1 <inflate+0x23a1>
    2137:	4c 89 c9             	mov    %r9,%rcx
    213a:	e9 95 02 00 00       	jmpq   23d4 <inflate+0x23d4>
    213f:	45 85 db             	test   %r11d,%r11d
    2142:	0f 84 19 03 00 00    	je     2461 <inflate+0x2461>
    2148:	48 89 f9             	mov    %rdi,%rcx
    214b:	41 0f b6 00          	movzbl (%r8),%eax
    214f:	48 d3 e0             	shl    %cl,%rax
    2152:	49 01 c2             	add    %rax,%r10
    2155:	49 83 c0 01          	add    $0x1,%r8
    2159:	8d 79 08             	lea    0x8(%rcx),%edi
    215c:	41 83 c3 ff          	add    $0xffffffff,%r11d
    2160:	0f b6 b5 39 fe ff ff 	movzbl -0x1c7(%rbp),%esi
    2167:	0f b6 85 38 fe ff ff 	movzbl -0x1c8(%rbp),%eax
    216e:	8d 0c 06             	lea    (%rsi,%rax,1),%ecx
    2171:	48 89 d0             	mov    %rdx,%rax
    2174:	d3 e0                	shl    %cl,%eax
    2176:	83 c0 ff             	add    $0xffffffff,%eax
    2179:	44 21 d0             	and    %r10d,%eax
    217c:	48 89 f1             	mov    %rsi,%rcx
    217f:	d3 e8                	shr    %cl,%eax
    2181:	0f b7 b5 3a fe ff ff 	movzwl -0x1c6(%rbp),%esi
    2188:	01 f0                	add    %esi,%eax
    218a:	89 c6                	mov    %eax,%esi
    218c:	49 8b 44 24 70       	mov    0x70(%r12),%rax
    2191:	8b 04 b0             	mov    (%rax,%rsi,4),%eax
    2194:	89 85 34 fe ff ff    	mov    %eax,-0x1cc(%rbp)
    219a:	c1 e8 08             	shr    $0x8,%eax
    219d:	0f b6 c0             	movzbl %al,%eax
    21a0:	01 c8                	add    %ecx,%eax
    21a2:	39 f8                	cmp    %edi,%eax
    21a4:	77 99                	ja     213f <inflate+0x213f>
    21a6:	49 d3 ea             	shr    %cl,%r10
    21a9:	29 cf                	sub    %ecx,%edi
    21ab:	41 03 8c 24 ec 1b 00 	add    0x1bec(%r12),%ecx
    21b2:	00 
    21b3:	41 89 8c 24 ec 1b 00 	mov    %ecx,0x1bec(%r12)
    21ba:	00 
    21bb:	48 8b 85 c0 fe ff ff 	mov    -0x140(%rbp),%rax
    21c2:	e9 d7 f4 ff ff       	jmpq   169e <inflate+0x169e>
    21c7:	48 89 fb             	mov    %rdi,%rbx
    21ca:	48 8b 7d 80          	mov    -0x80(%rbp),%rdi
    21ce:	e9 00 ea ff ff       	jmpq   bd3 <inflate+0xbd3>
    21d3:	89 d0                	mov    %edx,%eax
    21d5:	4c 89 fe             	mov    %r15,%rsi
    21d8:	48 29 c6             	sub    %rax,%rsi
    21db:	49 8b 7c 24 20       	mov    0x20(%r12),%rdi
    21e0:	4c 89 95 58 fe ff ff 	mov    %r10,-0x1a8(%rbp)
    21e7:	4c 89 bd 90 fe ff ff 	mov    %r15,-0x170(%rbp)
    21ee:	48 89 8d 48 fe ff ff 	mov    %rcx,-0x1b8(%rbp)
    21f5:	4d 89 c6             	mov    %r8,%r14
    21f8:	4d 89 df             	mov    %r11,%r15
    21fb:	e8 00 00 00 00       	callq  2200 <inflate+0x2200>
    2200:	4d 89 f0             	mov    %r14,%r8
    2203:	4d 89 fb             	mov    %r15,%r11
    2206:	49 89 44 24 20       	mov    %rax,0x20(%r12)
    220b:	48 89 43 60          	mov    %rax,0x60(%rbx)
    220f:	4c 8b 8d 40 fe ff ff 	mov    -0x1c0(%rbp),%r9
    2216:	48 8b 8d 48 fe ff ff 	mov    -0x1b8(%rbp),%rcx
    221d:	48 8b 85 b8 fe ff ff 	mov    -0x148(%rbp),%rax
    2224:	4c 8b bd 90 fe ff ff 	mov    -0x170(%rbp),%r15
    222b:	4c 8b 95 58 fe ff ff 	mov    -0x1a8(%rbp),%r10
    2232:	e9 e0 f5 ff ff       	jmpq   1817 <inflate+0x1817>
    2237:	ba 00 00 00 ff       	mov    $0xff000000,%edx
    223c:	4c 21 d2             	and    %r10,%rdx
    223f:	48 c1 ea 18          	shr    $0x18,%rdx
    2243:	4c 89 d6             	mov    %r10,%rsi
    2246:	48 81 e6 00 00 ff 00 	and    $0xff0000,%rsi
    224d:	48 c1 ee 08          	shr    $0x8,%rsi
    2251:	48 01 d6             	add    %rdx,%rsi
    2254:	4c 89 d2             	mov    %r10,%rdx
    2257:	48 81 e2 00 ff 00 00 	and    $0xff00,%rdx
    225e:	48 c1 e2 08          	shl    $0x8,%rdx
    2262:	48 01 d6             	add    %rdx,%rsi
    2265:	41 0f b6 d2          	movzbl %r10b,%edx
    2269:	48 c1 e2 18          	shl    $0x18,%rdx
    226d:	48 01 f2             	add    %rsi,%rdx
    2270:	e9 91 fb ff ff       	jmpq   1e06 <inflate+0x1e06>
    2275:	48 8d 15 00 00 00 00 	lea    0x0(%rip),%rdx        # 227c <inflate+0x227c>
    227c:	48 89 53 30          	mov    %rdx,0x30(%rbx)
    2280:	41 c7 44 24 08 51 3f 	movl   $0x3f51,0x8(%r12)
    2287:	00 00 
    2289:	48 8b b5 98 fe ff ff 	mov    -0x168(%rbp),%rsi
    2290:	4d 89 ee             	mov    %r13,%r14
    2293:	e9 7e de ff ff       	jmpq   116 <inflate+0x116>
    2298:	48 8b 5d f8          	mov    -0x8(%rbp),%rbx
    229c:	4c 8b 65 f0          	mov    -0x10(%rbp),%r12
    22a0:	4c 8b 6d e8          	mov    -0x18(%rbp),%r13
    22a4:	4c 8b 75 e0          	mov    -0x20(%rbp),%r14
    22a8:	4c 8b 7d d8          	mov    -0x28(%rbp),%r15
    22ac:	c9                   	leaveq 
    22ad:	c3                   	retq   
    22ae:	48 8b 5d f8          	mov    -0x8(%rbp),%rbx
    22b2:	4c 8b 65 f0          	mov    -0x10(%rbp),%r12
    22b6:	4c 8b 6d e8          	mov    -0x18(%rbp),%r13
    22ba:	4c 8b 75 e0          	mov    -0x20(%rbp),%r14
    22be:	4c 8b 7d d8          	mov    -0x28(%rbp),%r15
    22c2:	c9                   	leaveq 
    22c3:	c3                   	retq   
    22c4:	48 89 f9             	mov    %rdi,%rcx
    22c7:	48 8b 85 c0 fe ff ff 	mov    -0x140(%rbp),%rax
    22ce:	45 31 db             	xor    %r11d,%r11d
    22d1:	48 8b b5 98 fe ff ff 	mov    -0x168(%rbp),%rsi
    22d8:	e9 c3 de ff ff       	jmpq   1a0 <inflate+0x1a0>
    22dd:	8b 47 20             	mov    0x20(%rdi),%eax
    22e0:	4c 89 b5 68 ff ff ff 	mov    %r14,-0x98(%rbp)
    22e7:	49 89 c6             	mov    %rax,%r14
    22ea:	41 29 f6             	sub    %esi,%r14d
    22ed:	4c 89 ad 40 ff ff ff 	mov    %r13,-0xc0(%rbp)
    22f4:	46 8d 2c 32          	lea    (%rdx,%r14,1),%r13d
    22f8:	8b 7f 24             	mov    0x24(%rdi),%edi
    22fb:	44 39 ef             	cmp    %r13d,%edi
    22fe:	0f 82 76 01 00 00    	jb     247a <inflate+0x247a>
    2304:	48 89 d0             	mov    %rdx,%rax
    2307:	e9 73 01 00 00       	jmpq   247f <inflate+0x247f>
    230c:	48 8d 05 00 00 00 00 	lea    0x0(%rip),%rax        # 2313 <inflate+0x2313>
    2313:	48 89 43 30          	mov    %rax,0x30(%rbx)
    2317:	41 c7 44 24 08 51 3f 	movl   $0x3f51,0x8(%r12)
    231e:	00 00 
    2320:	48 89 f8             	mov    %rdi,%rax
    2323:	48 8b b5 98 fe ff ff 	mov    -0x168(%rbp),%rsi
    232a:	e9 e7 dd ff ff       	jmpq   116 <inflate+0x116>
    232f:	41 3b 74 24 38       	cmp    0x38(%r12),%esi
    2334:	0f 87 6e fd ff ff    	ja     20a8 <inflate+0x20a8>
    233a:	48 89 f1             	mov    %rsi,%rcx
    233d:	b8 01 00 00 00       	mov    $0x1,%eax
    2342:	d3 e0                	shl    %cl,%eax
    2344:	41 89 44 24 1c       	mov    %eax,0x1c(%r12)
    2349:	31 ff                	xor    %edi,%edi
    234b:	48 89 fe             	mov    %rdi,%rsi
    234e:	48 89 fa             	mov    %rdi,%rdx
    2351:	4c 89 b5 78 ff ff ff 	mov    %r14,-0x88(%rbp)
    2358:	4c 89 45 b0          	mov    %r8,-0x50(%rbp)
    235c:	4c 89 9d 00 ff ff ff 	mov    %r11,-0x100(%rbp)
    2363:	4d 89 d6             	mov    %r10,%r14
    2366:	e8 00 00 00 00       	callq  236b <inflate+0x236b>
    236b:	49 89 44 24 20       	mov    %rax,0x20(%r12)
    2370:	48 89 43 60          	mov    %rax,0x60(%rbx)
    2374:	49 81 e6 00 20 00 00 	and    $0x2000,%r14
    237b:	4d 85 f6             	test   %r14,%r14
    237e:	0f 85 6c 01 00 00    	jne    24f0 <inflate+0x24f0>
    2384:	ff 75 c8             	pushq  -0x38(%rbp)
    2387:	8f 45 b8             	popq   -0x48(%rbp)
    238a:	e9 67 01 00 00       	jmpq   24f6 <inflate+0x24f6>
    238f:	4c 89 c9             	mov    %r9,%rcx
    2392:	45 31 db             	xor    %r11d,%r11d
    2395:	48 8b b5 98 fe ff ff 	mov    -0x168(%rbp),%rsi
    239c:	e9 ff dd ff ff       	jmpq   1a0 <inflate+0x1a0>
    23a1:	66 83 fa 11          	cmp    $0x11,%dx
    23a5:	0f 85 85 01 00 00    	jne    2530 <inflate+0x2530>
    23ab:	4c 89 c9             	mov    %r9,%rcx
    23ae:	e9 a6 01 00 00       	jmpq   2559 <inflate+0x2559>
    23b3:	45 85 db             	test   %r11d,%r11d
    23b6:	0f 84 d7 01 00 00    	je     2593 <inflate+0x2593>
    23bc:	4d 8d 48 01          	lea    0x1(%r8),%r9
    23c0:	41 0f b6 10          	movzbl (%r8),%edx
    23c4:	48 d3 e2             	shl    %cl,%rdx
    23c7:	49 01 d2             	add    %rdx,%r10
    23ca:	83 c1 08             	add    $0x8,%ecx
    23cd:	41 83 c3 ff          	add    $0xffffffff,%r11d
    23d1:	4d 89 c8             	mov    %r9,%r8
    23d4:	0f b6 95 35 fe ff ff 	movzbl -0x1cb(%rbp),%edx
    23db:	44 8d 4a 02          	lea    0x2(%rdx),%r9d
    23df:	41 39 c9             	cmp    %ecx,%r9d
    23e2:	77 cf                	ja     23b3 <inflate+0x23b3>
    23e4:	49 89 d1             	mov    %rdx,%r9
    23e7:	48 89 ca             	mov    %rcx,%rdx
    23ea:	4c 89 c9             	mov    %r9,%rcx
    23ed:	49 d3 ea             	shr    %cl,%r10
    23f0:	f7 d9                	neg    %ecx
    23f2:	01 d1                	add    %edx,%ecx
    23f4:	41 8b 94 24 8c 00 00 	mov    0x8c(%r12),%edx
    23fb:	00 
    23fc:	85 d2                	test   %edx,%edx
    23fe:	0f 84 9e 01 00 00    	je     25a2 <inflate+0x25a2>
    2404:	83 c2 ff             	add    $0xffffffff,%edx
    2407:	89 d2                	mov    %edx,%edx
    2409:	4c 8b 8d 50 fe ff ff 	mov    -0x1b0(%rbp),%r9
    2410:	41 0f b7 3c 51       	movzwl (%r9,%rdx,2),%edi
    2415:	4c 89 d6             	mov    %r10,%rsi
    2418:	48 c1 ee 02          	shr    $0x2,%rsi
    241c:	41 83 e2 03          	and    $0x3,%r10d
    2420:	41 8d 52 03          	lea    0x3(%r10),%edx
    2424:	83 c1 fe             	add    $0xfffffffe,%ecx
    2427:	49 89 f2             	mov    %rsi,%r10
    242a:	41 8b b4 24 88 00 00 	mov    0x88(%r12),%esi
    2431:	00 
    2432:	41 03 b4 24 84 00 00 	add    0x84(%r12),%esi
    2439:	00 
    243a:	4c 89 b5 f0 fe ff ff 	mov    %r14,-0x110(%rbp)
    2441:	49 89 d6             	mov    %rdx,%r14
    2444:	45 03 b4 24 8c 00 00 	add    0x8c(%r12),%r14d
    244b:	00 
    244c:	44 39 f6             	cmp    %r14d,%esi
    244f:	0f 82 6d 01 00 00    	jb     25c2 <inflate+0x25c2>
    2455:	48 89 8d 58 fe ff ff 	mov    %rcx,-0x1a8(%rbp)
    245c:	e9 a8 01 00 00       	jmpq   2609 <inflate+0x2609>
    2461:	48 89 f9             	mov    %rdi,%rcx
    2464:	48 8b 85 c0 fe ff ff 	mov    -0x140(%rbp),%rax
    246b:	45 31 db             	xor    %r11d,%r11d
    246e:	48 8b b5 98 fe ff ff 	mov    -0x168(%rbp),%rsi
    2475:	e9 26 dd ff ff       	jmpq   1a0 <inflate+0x1a0>
    247a:	29 c6                	sub    %eax,%esi
    247c:	8d 04 37             	lea    (%rdi,%rsi,1),%eax
    247f:	44 89 f6             	mov    %r14d,%esi
    2482:	49 8d 3c 31          	lea    (%r9,%rsi,1),%rdi
    2486:	89 c0                	mov    %eax,%eax
    2488:	4c 89 c6             	mov    %r8,%rsi
    248b:	4c 89 bd e0 fe ff ff 	mov    %r15,-0x120(%rbp)
    2492:	48 89 5d 90          	mov    %rbx,-0x70(%rbp)
    2496:	48 89 8d a0 fe ff ff 	mov    %rcx,-0x160(%rbp)
    249d:	4c 89 c3             	mov    %r8,%rbx
    24a0:	4d 89 d5             	mov    %r10,%r13
    24a3:	4d 89 de             	mov    %r11,%r14
    24a6:	49 89 d7             	mov    %rdx,%r15
    24a9:	48 89 c2             	mov    %rax,%rdx
    24ac:	e8 00 00 00 00       	callq  24b1 <inflate+0x24b1>
    24b1:	4c 89 fa             	mov    %r15,%rdx
    24b4:	49 89 d8             	mov    %rbx,%r8
    24b7:	4d 89 ea             	mov    %r13,%r10
    24ba:	4d 89 f3             	mov    %r14,%r11
    24bd:	48 8b 8d a0 fe ff ff 	mov    -0x160(%rbp),%rcx
    24c4:	4c 8b ad 40 ff ff ff 	mov    -0xc0(%rbp),%r13
    24cb:	4c 8b b5 68 ff ff ff 	mov    -0x98(%rbp),%r14
    24d2:	48 8b 5d 90          	mov    -0x70(%rbp),%rbx
    24d6:	4c 8b 8d 40 fe ff ff 	mov    -0x1c0(%rbp),%r9
    24dd:	48 8b 85 b8 fe ff ff 	mov    -0x148(%rbp),%rax
    24e4:	4c 8b bd e0 fe ff ff 	mov    -0x120(%rbp),%r15
    24eb:	e9 e9 f5 ff ff       	jmpq   1ad9 <inflate+0x1ad9>
    24f0:	ff 75 c0             	pushq  -0x40(%rbp)
    24f3:	8f 45 b8             	popq   -0x48(%rbp)
    24f6:	48 8b 45 b8          	mov    -0x48(%rbp),%rax
    24fa:	41 89 44 24 08       	mov    %eax,0x8(%r12)
    24ff:	4c 8b 9d 00 ff ff ff 	mov    -0x100(%rbp),%r11
    2506:	4c 8b 45 b0          	mov    -0x50(%rbp),%r8
    250a:	4c 8b b5 78 ff ff ff 	mov    -0x88(%rbp),%r14
    2511:	4c 8b 8d 40 fe ff ff 	mov    -0x1c0(%rbp),%r9
    2518:	48 8b 85 b8 fe ff ff 	mov    -0x148(%rbp),%rax
    251f:	31 c9                	xor    %ecx,%ecx
    2521:	48 8b b5 98 fe ff ff 	mov    -0x168(%rbp),%rsi
    2528:	49 89 ca             	mov    %rcx,%r10
    252b:	e9 e6 db ff ff       	jmpq   116 <inflate+0x116>
    2530:	4c 89 c9             	mov    %r9,%rcx
    2533:	e9 0a 01 00 00       	jmpq   2642 <inflate+0x2642>
    2538:	45 85 db             	test   %r11d,%r11d
    253b:	0f 84 3b 01 00 00    	je     267c <inflate+0x267c>
    2541:	49 8d 70 01          	lea    0x1(%r8),%rsi
    2545:	41 0f b6 10          	movzbl (%r8),%edx
    2549:	48 d3 e2             	shl    %cl,%rdx
    254c:	49 01 d2             	add    %rdx,%r10
    254f:	83 c1 08             	add    $0x8,%ecx
    2552:	41 83 c3 ff          	add    $0xffffffff,%r11d
    2556:	49 89 f0             	mov    %rsi,%r8
    2559:	0f b6 95 35 fe ff ff 	movzbl -0x1cb(%rbp),%edx
    2560:	8d 72 03             	lea    0x3(%rdx),%esi
    2563:	39 ce                	cmp    %ecx,%esi
    2565:	77 d1                	ja     2538 <inflate+0x2538>
    2567:	48 89 ce             	mov    %rcx,%rsi
    256a:	48 89 d1             	mov    %rdx,%rcx
    256d:	4c 89 d2             	mov    %r10,%rdx
    2570:	48 d3 ea             	shr    %cl,%rdx
    2573:	49 89 d2             	mov    %rdx,%r10
    2576:	49 c1 ea 03          	shr    $0x3,%r10
    257a:	83 e2 07             	and    $0x7,%edx
    257d:	83 c2 03             	add    $0x3,%edx
    2580:	29 ce                	sub    %ecx,%esi
    2582:	8d 4e fd             	lea    -0x3(%rsi),%ecx
    2585:	31 ff                	xor    %edi,%edi
    2587:	4c 8b 8d 50 fe ff ff 	mov    -0x1b0(%rbp),%r9
    258e:	e9 97 fe ff ff       	jmpq   242a <inflate+0x242a>
    2593:	45 31 db             	xor    %r11d,%r11d
    2596:	48 8b b5 98 fe ff ff 	mov    -0x168(%rbp),%rsi
    259d:	e9 fe db ff ff       	jmpq   1a0 <inflate+0x1a0>
    25a2:	48 8d 15 00 00 00 00 	lea    0x0(%rip),%rdx        # 25a9 <inflate+0x25a9>
    25a9:	48 89 53 30          	mov    %rdx,0x30(%rbx)
    25ad:	41 c7 44 24 08 51 3f 	movl   $0x3f51,0x8(%r12)
    25b4:	00 00 
    25b6:	4c 8b 8d 50 fe ff ff 	mov    -0x1b0(%rbp),%r9
    25bd:	e9 f0 ef ff ff       	jmpq   15b2 <inflate+0x15b2>
    25c2:	48 8d 15 00 00 00 00 	lea    0x0(%rip),%rdx        # 25c9 <inflate+0x25c9>
    25c9:	48 89 53 30          	mov    %rdx,0x30(%rbx)
    25cd:	41 c7 44 24 08 51 3f 	movl   $0x3f51,0x8(%r12)
    25d4:	00 00 
    25d6:	4c 8b b5 f0 fe ff ff 	mov    -0x110(%rbp),%r14
    25dd:	48 8b b5 70 fe ff ff 	mov    -0x190(%rbp),%rsi
    25e4:	bf 01 00 00 00       	mov    $0x1,%edi
    25e9:	e9 c4 ef ff ff       	jmpq   15b2 <inflate+0x15b2>
    25ee:	41 8b 8c 24 8c 00 00 	mov    0x8c(%r12),%ecx
    25f5:	00 
    25f6:	8d 41 01             	lea    0x1(%rcx),%eax
    25f9:	41 89 84 24 8c 00 00 	mov    %eax,0x8c(%r12)
    2600:	00 
    2601:	66 41 89 3c 49       	mov    %di,(%r9,%rcx,2)
    2606:	83 c2 ff             	add    $0xffffffff,%edx
    2609:	85 d2                	test   %edx,%edx
    260b:	75 e1                	jne    25ee <inflate+0x25ee>
    260d:	48 8b 8d 58 fe ff ff 	mov    -0x1a8(%rbp),%rcx
    2614:	48 8b b5 70 fe ff ff 	mov    -0x190(%rbp),%rsi
    261b:	bf 01 00 00 00       	mov    $0x1,%edi
    2620:	e9 5a ef ff ff       	jmpq   157f <inflate+0x157f>
    2625:	45 85 db             	test   %r11d,%r11d
    2628:	74 61                	je     268b <inflate+0x268b>
    262a:	49 8d 70 01          	lea    0x1(%r8),%rsi
    262e:	41 0f b6 10          	movzbl (%r8),%edx
    2632:	48 d3 e2             	shl    %cl,%rdx
    2635:	49 01 d2             	add    %rdx,%r10
    2638:	83 c1 08             	add    $0x8,%ecx
    263b:	41 83 c3 ff          	add    $0xffffffff,%r11d
    263f:	49 89 f0             	mov    %rsi,%r8
    2642:	0f b6 95 35 fe ff ff 	movzbl -0x1cb(%rbp),%edx
    2649:	8d 72 07             	lea    0x7(%rdx),%esi
    264c:	39 ce                	cmp    %ecx,%esi
    264e:	77 d5                	ja     2625 <inflate+0x2625>
    2650:	48 89 ce             	mov    %rcx,%rsi
    2653:	48 89 d1             	mov    %rdx,%rcx
    2656:	4c 89 d2             	mov    %r10,%rdx
    2659:	48 d3 ea             	shr    %cl,%rdx
    265c:	49 89 d2             	mov    %rdx,%r10
    265f:	49 c1 ea 07          	shr    $0x7,%r10
    2663:	83 e2 7f             	and    $0x7f,%edx
    2666:	83 c2 0b             	add    $0xb,%edx
    2669:	29 ce                	sub    %ecx,%esi
    266b:	8d 4e f9             	lea    -0x7(%rsi),%ecx
    266e:	31 ff                	xor    %edi,%edi
    2670:	4c 8b 8d 50 fe ff ff 	mov    -0x1b0(%rbp),%r9
    2677:	e9 ae fd ff ff       	jmpq   242a <inflate+0x242a>
    267c:	45 31 db             	xor    %r11d,%r11d
    267f:	48 8b b5 98 fe ff ff 	mov    -0x168(%rbp),%rsi
    2686:	e9 15 db ff ff       	jmpq   1a0 <inflate+0x1a0>
    268b:	45 31 db             	xor    %r11d,%r11d
    268e:	48 8b b5 98 fe ff ff 	mov    -0x168(%rbp),%rsi
    2695:	e9 06 db ff ff       	jmpq   1a0 <inflate+0x1a0>
    269a:	66 0f 1f 44 00 00    	nopw   0x0(%rax,%rax,1)

00000000000026a0 <inflateEnd>:
    26a0:	55                   	push   %rbp
    26a1:	48 89 e5             	mov    %rsp,%rbp
    26a4:	48 83 ec 10          	sub    $0x10,%rsp
    26a8:	4c 89 7d f8          	mov    %r15,-0x8(%rbp)
    26ac:	49 89 ff             	mov    %rdi,%r15
    26af:	e8 8c 0b 00 00       	callq  3240 <inflateStateCheck>
    26b4:	85 c0                	test   %eax,%eax
    26b6:	74 0d                	je     26c5 <inflateEnd+0x25>
    26b8:	48 c7 c0 fe ff ff ff 	mov    $0xfffffffffffffffe,%rax
    26bf:	4c 8b 7d f8          	mov    -0x8(%rbp),%r15
    26c3:	c9                   	leaveq 
    26c4:	c3                   	retq   
    26c5:	49 8b 47 38          	mov    0x38(%r15),%rax
    26c9:	48 8b 70 48          	mov    0x48(%rax),%rsi
    26cd:	48 85 f6             	test   %rsi,%rsi
    26d0:	74 0a                	je     26dc <inflateEnd+0x3c>
    26d2:	49 8b 47 48          	mov    0x48(%r15),%rax
    26d6:	49 8b 7f 50          	mov    0x50(%r15),%rdi
    26da:	ff d0                	callq  *%rax
    26dc:	49 8b 47 48          	mov    0x48(%r15),%rax
    26e0:	49 8b 7f 50          	mov    0x50(%r15),%rdi
    26e4:	49 8b 77 38          	mov    0x38(%r15),%rsi
    26e8:	ff d0                	callq  *%rax
    26ea:	49 c7 47 38 00 00 00 	movq   $0x0,0x38(%r15)
    26f1:	00 
    26f2:	31 c0                	xor    %eax,%eax
    26f4:	4c 8b 7d f8          	mov    -0x8(%rbp),%r15
    26f8:	c9                   	leaveq 
    26f9:	c3                   	retq   
    26fa:	66 0f 1f 44 00 00    	nopw   0x0(%rax,%rax,1)

0000000000002700 <inflateSetDictionary>:
    2700:	55                   	push   %rbp
    2701:	48 89 e5             	mov    %rsp,%rbp
    2704:	48 83 ec 20          	sub    $0x20,%rsp
    2708:	4c 89 7d f8          	mov    %r15,-0x8(%rbp)
    270c:	48 89 55 e0          	mov    %rdx,-0x20(%rbp)
    2710:	48 89 75 e8          	mov    %rsi,-0x18(%rbp)
    2714:	49 89 ff             	mov    %rdi,%r15
    2717:	e8 24 0b 00 00       	callq  3240 <inflateStateCheck>
    271c:	85 c0                	test   %eax,%eax
    271e:	74 0d                	je     272d <inflateSetDictionary+0x2d>
    2720:	48 c7 c0 fe ff ff ff 	mov    $0xfffffffffffffffe,%rax
    2727:	4c 8b 7d f8          	mov    -0x8(%rbp),%r15
    272b:	c9                   	leaveq 
    272c:	c3                   	retq   
    272d:	49 8b 4f 38          	mov    0x38(%r15),%rcx
    2731:	48 63 41 10          	movslq 0x10(%rcx),%rax
    2735:	85 c0                	test   %eax,%eax
    2737:	75 39                	jne    2772 <inflateSetDictionary+0x72>
    2739:	31 ff                	xor    %edi,%edi
    273b:	8b 41 08             	mov    0x8(%rcx),%eax
    273e:	3d 3e 3f 00 00       	cmp    $0x3f3e,%eax
    2743:	74 44                	je     2789 <inflateSetDictionary+0x89>
    2745:	4c 89 ff             	mov    %r15,%rdi
    2748:	49 89 cf             	mov    %rcx,%r15
    274b:	48 8b 55 e0          	mov    -0x20(%rbp),%rdx
    274f:	89 d0                	mov    %edx,%eax
    2751:	48 8b 4d e8          	mov    -0x18(%rbp),%rcx
    2755:	48 8d 34 01          	lea    (%rcx,%rax,1),%rsi
    2759:	e8 72 0b 00 00       	callq  32d0 <updatewindow>
    275e:	85 c0                	test   %eax,%eax
    2760:	75 58                	jne    27ba <inflateSetDictionary+0xba>
    2762:	41 c7 47 14 01 00 00 	movl   $0x1,0x14(%r15)
    2769:	00 
    276a:	31 c0                	xor    %eax,%eax
    276c:	4c 8b 7d f8          	mov    -0x8(%rbp),%r15
    2770:	c9                   	leaveq 
    2771:	c3                   	retq   
    2772:	8b 41 08             	mov    0x8(%rcx),%eax
    2775:	3d 3e 3f 00 00       	cmp    $0x3f3e,%eax
    277a:	74 bd                	je     2739 <inflateSetDictionary+0x39>
    277c:	48 c7 c0 fe ff ff ff 	mov    $0xfffffffffffffffe,%rax
    2783:	4c 8b 7d f8          	mov    -0x8(%rbp),%r15
    2787:	c9                   	leaveq 
    2788:	c3                   	retq   
    2789:	48 89 fe             	mov    %rdi,%rsi
    278c:	48 89 fa             	mov    %rdi,%rdx
    278f:	4c 89 7d f0          	mov    %r15,-0x10(%rbp)
    2793:	49 89 cf             	mov    %rcx,%r15
    2796:	e8 00 00 00 00       	callq  279b <inflateSetDictionary+0x9b>
    279b:	48 89 c7             	mov    %rax,%rdi
    279e:	48 8b 75 e8          	mov    -0x18(%rbp),%rsi
    27a2:	48 8b 55 e0          	mov    -0x20(%rbp),%rdx
    27a6:	e8 00 00 00 00       	callq  27ab <inflateSetDictionary+0xab>
    27ab:	49 8b 4f 20          	mov    0x20(%r15),%rcx
    27af:	48 39 c1             	cmp    %rax,%rcx
    27b2:	75 1b                	jne    27cf <inflateSetDictionary+0xcf>
    27b4:	48 8b 7d f0          	mov    -0x10(%rbp),%rdi
    27b8:	eb 91                	jmp    274b <inflateSetDictionary+0x4b>
    27ba:	41 c7 47 08 52 3f 00 	movl   $0x3f52,0x8(%r15)
    27c1:	00 
    27c2:	48 c7 c0 fc ff ff ff 	mov    $0xfffffffffffffffc,%rax
    27c9:	4c 8b 7d f8          	mov    -0x8(%rbp),%r15
    27cd:	c9                   	leaveq 
    27ce:	c3                   	retq   
    27cf:	48 c7 c0 fd ff ff ff 	mov    $0xfffffffffffffffd,%rax
    27d6:	4c 8b 7d f8          	mov    -0x8(%rbp),%r15
    27da:	c9                   	leaveq 
    27db:	c3                   	retq   
    27dc:	0f 1f 40 00          	nopl   0x0(%rax)

00000000000027e0 <inflateGetDictionary>:
    27e0:	55                   	push   %rbp
    27e1:	48 89 e5             	mov    %rsp,%rbp
    27e4:	48 83 ec 20          	sub    $0x20,%rsp
    27e8:	4c 89 7d f8          	mov    %r15,-0x8(%rbp)
    27ec:	48 89 75 e8          	mov    %rsi,-0x18(%rbp)
    27f0:	48 89 55 f0          	mov    %rdx,-0x10(%rbp)
    27f4:	49 89 ff             	mov    %rdi,%r15
    27f7:	e8 44 0a 00 00       	callq  3240 <inflateStateCheck>
    27fc:	85 c0                	test   %eax,%eax
    27fe:	74 0d                	je     280d <inflateGetDictionary+0x2d>
    2800:	48 c7 c0 fe ff ff ff 	mov    $0xfffffffffffffffe,%rax
    2807:	4c 8b 7d f8          	mov    -0x8(%rbp),%r15
    280b:	c9                   	leaveq 
    280c:	c3                   	retq   
    280d:	4d 8b 7f 38          	mov    0x38(%r15),%r15
    2811:	41 8b 47 40          	mov    0x40(%r15),%eax
    2815:	85 c0                	test   %eax,%eax
    2817:	75 11                	jne    282a <inflateGetDictionary+0x4a>
    2819:	31 c0                	xor    %eax,%eax
    281b:	48 8b 55 f0          	mov    -0x10(%rbp),%rdx
    281f:	48 85 d2             	test   %rdx,%rdx
    2822:	75 4b                	jne    286f <inflateGetDictionary+0x8f>
    2824:	4c 8b 7d f8          	mov    -0x8(%rbp),%r15
    2828:	c9                   	leaveq 
    2829:	c3                   	retq   
    282a:	48 8b 4d e8          	mov    -0x18(%rbp),%rcx
    282e:	48 85 c9             	test   %rcx,%rcx
    2831:	74 e6                	je     2819 <inflateGetDictionary+0x39>
    2833:	41 8b 57 44          	mov    0x44(%r15),%edx
    2837:	48 89 d6             	mov    %rdx,%rsi
    283a:	49 03 77 48          	add    0x48(%r15),%rsi
    283e:	29 d0                	sub    %edx,%eax
    2840:	89 c2                	mov    %eax,%edx
    2842:	48 89 cf             	mov    %rcx,%rdi
    2845:	4c 89 75 e8          	mov    %r14,-0x18(%rbp)
    2849:	49 89 ce             	mov    %rcx,%r14
    284c:	e8 00 00 00 00       	callq  2851 <inflateGetDictionary+0x71>
    2851:	41 8b 47 40          	mov    0x40(%r15),%eax
    2855:	49 8d 3c 06          	lea    (%r14,%rax,1),%rdi
    2859:	41 8b 57 44          	mov    0x44(%r15),%edx
    285d:	48 29 d7             	sub    %rdx,%rdi
    2860:	49 8b 77 48          	mov    0x48(%r15),%rsi
    2864:	e8 00 00 00 00       	callq  2869 <inflateGetDictionary+0x89>
    2869:	4c 8b 75 e8          	mov    -0x18(%rbp),%r14
    286d:	eb aa                	jmp    2819 <inflateGetDictionary+0x39>
    286f:	41 8b 4f 40          	mov    0x40(%r15),%ecx
    2873:	89 0a                	mov    %ecx,(%rdx)
    2875:	4c 8b 7d f8          	mov    -0x8(%rbp),%r15
    2879:	c9                   	leaveq 
    287a:	c3                   	retq   
    287b:	0f 1f 44 00 00       	nopl   0x0(%rax,%rax,1)

0000000000002880 <inflateSync>:
    2880:	55                   	push   %rbp
    2881:	48 89 e5             	mov    %rsp,%rbp
    2884:	48 83 ec 30          	sub    $0x30,%rsp
    2888:	4c 89 7d e0          	mov    %r15,-0x20(%rbp)
    288c:	4d 89 f7             	mov    %r14,%r15
    288f:	49 89 fe             	mov    %rdi,%r14
    2892:	e8 a9 09 00 00       	callq  3240 <inflateStateCheck>
    2897:	85 c0                	test   %eax,%eax
    2899:	74 10                	je     28ab <inflateSync+0x2b>
    289b:	4d 89 fe             	mov    %r15,%r14
    289e:	48 c7 c0 fe ff ff ff 	mov    $0xfffffffffffffffe,%rax
    28a5:	4c 8b 7d e0          	mov    -0x20(%rbp),%r15
    28a9:	c9                   	leaveq 
    28aa:	c3                   	retq   
    28ab:	4d 8b 46 38          	mov    0x38(%r14),%r8
    28af:	41 8b 46 08          	mov    0x8(%r14),%eax
    28b3:	85 c0                	test   %eax,%eax
    28b5:	74 36                	je     28ed <inflateSync+0x6d>
    28b7:	49 8d b8 8c 00 00 00 	lea    0x8c(%r8),%rdi
    28be:	31 d2                	xor    %edx,%edx
    28c0:	41 8b 40 08          	mov    0x8(%r8),%eax
    28c4:	3d 53 3f 00 00       	cmp    $0x3f53,%eax
    28c9:	0f 84 8d 00 00 00    	je     295c <inflateSync+0xdc>
    28cf:	41 c7 40 08 53 3f 00 	movl   $0x3f53,0x8(%r8)
    28d6:	00 
    28d7:	41 8b 48 58          	mov    0x58(%r8),%ecx
    28db:	48 89 c8             	mov    %rcx,%rax
    28de:	83 e0 f8             	and    $0xfffffff8,%eax
    28e1:	49 8b 70 50          	mov    0x50(%r8),%rsi
    28e5:	83 e1 07             	and    $0x7,%ecx
    28e8:	48 d3 e6             	shl    %cl,%rsi
    28eb:	eb 31                	jmp    291e <inflateSync+0x9e>
    28ed:	41 8b 40 58          	mov    0x58(%r8),%eax
    28f1:	83 f8 07             	cmp    $0x7,%eax
    28f4:	77 c1                	ja     28b7 <inflateSync+0x37>
    28f6:	4d 89 fe             	mov    %r15,%r14
    28f9:	48 c7 c0 fb ff ff ff 	mov    $0xfffffffffffffffb,%rax
    2900:	4c 8b 7d e0          	mov    -0x20(%rbp),%r15
    2904:	c9                   	leaveq 
    2905:	c3                   	retq   
    2906:	48 89 f1             	mov    %rsi,%rcx
    2909:	48 c1 e9 08          	shr    $0x8,%rcx
    290d:	41 89 d1             	mov    %edx,%r9d
    2910:	42 88 74 0d dc       	mov    %sil,-0x24(%rbp,%r9,1)
    2915:	83 c0 f8             	add    $0xfffffff8,%eax
    2918:	83 c2 01             	add    $0x1,%edx
    291b:	48 89 ce             	mov    %rcx,%rsi
    291e:	41 89 40 58          	mov    %eax,0x58(%r8)
    2922:	49 89 70 50          	mov    %rsi,0x50(%r8)
    2926:	83 f8 07             	cmp    $0x7,%eax
    2929:	77 db                	ja     2906 <inflateSync+0x86>
    292b:	c7 07 00 00 00 00    	movl   $0x0,(%rdi)
    2931:	48 8d 75 dc          	lea    -0x24(%rbp),%rsi
    2935:	48 89 f8             	mov    %rdi,%rax
    2938:	4c 89 6d f0          	mov    %r13,-0x10(%rbp)
    293c:	4c 89 7d e8          	mov    %r15,-0x18(%rbp)
    2940:	49 89 fd             	mov    %rdi,%r13
    2943:	48 89 c7             	mov    %rax,%rdi
    2946:	4d 89 c7             	mov    %r8,%r15
    2949:	e8 22 0b 00 00       	callq  3470 <syncsearch>
    294e:	4c 89 ef             	mov    %r13,%rdi
    2951:	4d 89 f8             	mov    %r15,%r8
    2954:	4c 8b 7d e8          	mov    -0x18(%rbp),%r15
    2958:	4c 8b 6d f0          	mov    -0x10(%rbp),%r13
    295c:	49 8b 36             	mov    (%r14),%rsi
    295f:	41 8b 56 08          	mov    0x8(%r14),%edx
    2963:	4c 89 7d e8          	mov    %r15,-0x18(%rbp)
    2967:	4d 89 c7             	mov    %r8,%r15
    296a:	e8 01 0b 00 00       	callq  3470 <syncsearch>
    296f:	41 8b 4e 08          	mov    0x8(%r14),%ecx
    2973:	29 c1                	sub    %eax,%ecx
    2975:	41 89 4e 08          	mov    %ecx,0x8(%r14)
    2979:	89 c0                	mov    %eax,%eax
    297b:	48 89 c1             	mov    %rax,%rcx
    297e:	49 03 0e             	add    (%r14),%rcx
    2981:	49 89 0e             	mov    %rcx,(%r14)
    2984:	49 03 46 10          	add    0x10(%r14),%rax
    2988:	49 89 46 10          	mov    %rax,0x10(%r14)
    298c:	41 8b 8f 8c 00 00 00 	mov    0x8c(%r15),%ecx
    2993:	83 f9 04             	cmp    $0x4,%ecx
    2996:	74 11                	je     29a9 <inflateSync+0x129>
    2998:	48 c7 c0 fd ff ff ff 	mov    $0xfffffffffffffffd,%rax
    299f:	4c 8b 75 e8          	mov    -0x18(%rbp),%r14
    29a3:	4c 8b 7d e0          	mov    -0x20(%rbp),%r15
    29a7:	c9                   	leaveq 
    29a8:	c3                   	retq   
    29a9:	49 8b 4e 28          	mov    0x28(%r14),%rcx
    29ad:	4c 89 f7             	mov    %r14,%rdi
    29b0:	4c 89 6d f0          	mov    %r13,-0x10(%rbp)
    29b4:	4c 89 65 f8          	mov    %r12,-0x8(%rbp)
    29b8:	49 89 cc             	mov    %rcx,%r12
    29bb:	49 89 c5             	mov    %rax,%r13
    29be:	e8 00 00 00 00       	callq  29c3 <inflateSync+0x143>
    29c3:	4d 89 6e 10          	mov    %r13,0x10(%r14)
    29c7:	4d 89 66 28          	mov    %r12,0x28(%r14)
    29cb:	41 c7 47 08 3f 3f 00 	movl   $0x3f3f,0x8(%r15)
    29d2:	00 
    29d3:	4c 8b 65 f8          	mov    -0x8(%rbp),%r12
    29d7:	31 c0                	xor    %eax,%eax
    29d9:	4c 8b 75 e8          	mov    -0x18(%rbp),%r14
    29dd:	4c 8b 6d f0          	mov    -0x10(%rbp),%r13
    29e1:	4c 8b 7d e0          	mov    -0x20(%rbp),%r15
    29e5:	c9                   	leaveq 
    29e6:	c3                   	retq   
    29e7:	66 0f 1f 84 00 00 00 	nopw   0x0(%rax,%rax,1)
    29ee:	00 00 

00000000000029f0 <inflateCopy>:
    29f0:	55                   	push   %rbp
    29f1:	48 89 e5             	mov    %rsp,%rbp
    29f4:	48 83 ec 30          	sub    $0x30,%rsp
    29f8:	48 89 7d d8          	mov    %rdi,-0x28(%rbp)
    29fc:	48 89 f7             	mov    %rsi,%rdi
    29ff:	48 89 7d e0          	mov    %rdi,-0x20(%rbp)
    2a03:	e8 38 08 00 00       	callq  3240 <inflateStateCheck>
    2a08:	85 c0                	test   %eax,%eax
    2a0a:	74 09                	je     2a15 <inflateCopy+0x25>
    2a0c:	48 c7 c0 fe ff ff ff 	mov    $0xfffffffffffffffe,%rax
    2a13:	c9                   	leaveq 
    2a14:	c3                   	retq   
    2a15:	48 8b 45 d8          	mov    -0x28(%rbp),%rax
    2a19:	48 85 c0             	test   %rax,%rax
    2a1c:	75 09                	jne    2a27 <inflateCopy+0x37>
    2a1e:	48 c7 c0 fe ff ff ff 	mov    $0xfffffffffffffffe,%rax
    2a25:	c9                   	leaveq 
    2a26:	c3                   	retq   
    2a27:	48 8b 4d e0          	mov    -0x20(%rbp),%rcx
    2a2b:	48 8b 41 38          	mov    0x38(%rcx),%rax
    2a2f:	48 89 45 e8          	mov    %rax,-0x18(%rbp)
    2a33:	48 8b 41 40          	mov    0x40(%rcx),%rax
    2a37:	48 8b 79 50          	mov    0x50(%rcx),%rdi
    2a3b:	be 01 00 00 00       	mov    $0x1,%esi
    2a40:	ba f8 1b 00 00       	mov    $0x1bf8,%edx
    2a45:	ff d0                	callq  *%rax
    2a47:	48 85 c0             	test   %rax,%rax
    2a4a:	75 09                	jne    2a55 <inflateCopy+0x65>
    2a4c:	48 c7 c0 fc ff ff ff 	mov    $0xfffffffffffffffc,%rax
    2a53:	c9                   	leaveq 
    2a54:	c3                   	retq   
    2a55:	31 c9                	xor    %ecx,%ecx
    2a57:	4c 8b 45 e8          	mov    -0x18(%rbp),%r8
    2a5b:	49 8b 50 48          	mov    0x48(%r8),%rdx
    2a5f:	48 85 d2             	test   %rdx,%rdx
    2a62:	0f 85 db 00 00 00    	jne    2b43 <inflateCopy+0x153>
    2a68:	48 8b 75 e0          	mov    -0x20(%rbp),%rsi
    2a6c:	ba 70 00 00 00       	mov    $0x70,%edx
    2a71:	4c 8b 4d d8          	mov    -0x28(%rbp),%r9
    2a75:	4c 89 cf             	mov    %r9,%rdi
    2a78:	4c 89 75 e8          	mov    %r14,-0x18(%rbp)
    2a7c:	4c 89 7d d8          	mov    %r15,-0x28(%rbp)
    2a80:	4c 89 65 f8          	mov    %r12,-0x8(%rbp)
    2a84:	4c 89 6d f0          	mov    %r13,-0x10(%rbp)
    2a88:	49 89 c4             	mov    %rax,%r12
    2a8b:	49 89 cd             	mov    %rcx,%r13
    2a8e:	4d 89 ce             	mov    %r9,%r14
    2a91:	4d 89 c7             	mov    %r8,%r15
    2a94:	e8 00 00 00 00       	callq  2a99 <inflateCopy+0xa9>
    2a99:	4c 89 e7             	mov    %r12,%rdi
    2a9c:	4c 89 fe             	mov    %r15,%rsi
    2a9f:	ba f8 1b 00 00       	mov    $0x1bf8,%edx
    2aa4:	e8 00 00 00 00       	callq  2aa9 <inflateCopy+0xb9>
    2aa9:	4d 89 34 24          	mov    %r14,(%r12)
    2aad:	49 8d b7 58 05 00 00 	lea    0x558(%r15),%rsi
    2ab4:	49 8b 4f 68          	mov    0x68(%r15),%rcx
    2ab8:	48 39 ce             	cmp    %rcx,%rsi
    2abb:	0f 86 cf 00 00 00    	jbe    2b90 <inflateCopy+0x1a0>
    2ac1:	49 8b 87 90 00 00 00 	mov    0x90(%r15),%rax
    2ac8:	48 89 c2             	mov    %rax,%rdx
    2acb:	48 29 f2             	sub    %rsi,%rdx
    2ace:	48 89 d1             	mov    %rdx,%rcx
    2ad1:	48 d1 f9             	sar    %rcx
    2ad4:	48 c1 e9 3e          	shr    $0x3e,%rcx
    2ad8:	48 01 d1             	add    %rdx,%rcx
    2adb:	48 83 e1 fc          	and    $0xfffffffffffffffc,%rcx
    2adf:	49 8d 8c 0f 58 05 00 	lea    0x558(%r15,%rcx,1),%rcx
    2ae6:	00 
    2ae7:	48 f7 d9             	neg    %rcx
    2aea:	48 01 c1             	add    %rax,%rcx
    2aed:	49 8d 8c 0f 58 05 00 	lea    0x558(%r15,%rcx,1),%rcx
    2af4:	00 
    2af5:	48 29 c8             	sub    %rcx,%rax
    2af8:	49 8d 84 04 58 05 00 	lea    0x558(%r12,%rax,1),%rax
    2aff:	00 
    2b00:	49 89 84 24 90 00 00 	mov    %rax,0x90(%r12)
    2b07:	00 
    2b08:	4d 85 ed             	test   %r13,%r13
    2b0b:	74 19                	je     2b26 <inflateCopy+0x136>
    2b0d:	41 8b 4f 38          	mov    0x38(%r15),%ecx
    2b11:	b8 01 00 00 00       	mov    $0x1,%eax
    2b16:	d3 e0                	shl    %cl,%eax
    2b18:	89 c2                	mov    %eax,%edx
    2b1a:	49 8b 77 48          	mov    0x48(%r15),%rsi
    2b1e:	4c 89 ef             	mov    %r13,%rdi
    2b21:	e8 00 00 00 00       	callq  2b26 <inflateCopy+0x136>
    2b26:	4d 89 6c 24 48       	mov    %r13,0x48(%r12)
    2b2b:	4d 89 66 38          	mov    %r12,0x38(%r14)
    2b2f:	4c 8b 6d f0          	mov    -0x10(%rbp),%r13
    2b33:	4c 8b 65 f8          	mov    -0x8(%rbp),%r12
    2b37:	31 c0                	xor    %eax,%eax
    2b39:	4c 8b 7d d8          	mov    -0x28(%rbp),%r15
    2b3d:	4c 8b 75 e8          	mov    -0x18(%rbp),%r14
    2b41:	c9                   	leaveq 
    2b42:	c3                   	retq   
    2b43:	41 8b 48 38          	mov    0x38(%r8),%ecx
    2b47:	ba 01 00 00 00       	mov    $0x1,%edx
    2b4c:	48 89 d6             	mov    %rdx,%rsi
    2b4f:	d3 e6                	shl    %cl,%esi
    2b51:	4c 8b 45 e0          	mov    -0x20(%rbp),%r8
    2b55:	49 8b 48 40          	mov    0x40(%r8),%rcx
    2b59:	49 8b 78 50          	mov    0x50(%r8),%rdi
    2b5d:	4c 89 75 f0          	mov    %r14,-0x10(%rbp)
    2b61:	4c 89 7d e0          	mov    %r15,-0x20(%rbp)
    2b65:	4d 89 c6             	mov    %r8,%r14
    2b68:	49 89 c7             	mov    %rax,%r15
    2b6b:	ff d1                	callq  *%rcx
    2b6d:	48 85 c0             	test   %rax,%rax
    2b70:	0f 84 ad 00 00 00    	je     2c23 <inflateCopy+0x233>
    2b76:	48 89 c1             	mov    %rax,%rcx
    2b79:	4c 89 f8             	mov    %r15,%rax
    2b7c:	4c 89 f6             	mov    %r14,%rsi
    2b7f:	4c 8b 7d e0          	mov    -0x20(%rbp),%r15
    2b83:	4c 8b 75 f0          	mov    -0x10(%rbp),%r14
    2b87:	4c 8b 45 e8          	mov    -0x18(%rbp),%r8
    2b8b:	e9 dc fe ff ff       	jmpq   2a6c <inflateCopy+0x7c>
    2b90:	49 8d 87 e4 1b 00 00 	lea    0x1be4(%r15),%rax
    2b97:	48 39 c1             	cmp    %rax,%rcx
    2b9a:	0f 87 21 ff ff ff    	ja     2ac1 <inflateCopy+0xd1>
    2ba0:	48 89 ca             	mov    %rcx,%rdx
    2ba3:	48 29 f2             	sub    %rsi,%rdx
    2ba6:	48 89 d0             	mov    %rdx,%rax
    2ba9:	48 d1 f8             	sar    %rax
    2bac:	48 c1 e8 3e          	shr    $0x3e,%rax
    2bb0:	48 01 d0             	add    %rdx,%rax
    2bb3:	48 83 e0 fc          	and    $0xfffffffffffffffc,%rax
    2bb7:	49 8d 84 07 58 05 00 	lea    0x558(%r15,%rax,1),%rax
    2bbe:	00 
    2bbf:	48 f7 d8             	neg    %rax
    2bc2:	48 01 c8             	add    %rcx,%rax
    2bc5:	49 8d 84 07 58 05 00 	lea    0x558(%r15,%rax,1),%rax
    2bcc:	00 
    2bcd:	48 29 c1             	sub    %rax,%rcx
    2bd0:	49 8d 84 0c 58 05 00 	lea    0x558(%r12,%rcx,1),%rax
    2bd7:	00 
    2bd8:	49 89 44 24 68       	mov    %rax,0x68(%r12)
    2bdd:	49 8b 4f 70          	mov    0x70(%r15),%rcx
    2be1:	48 89 ca             	mov    %rcx,%rdx
    2be4:	48 29 f2             	sub    %rsi,%rdx
    2be7:	48 89 d0             	mov    %rdx,%rax
    2bea:	48 d1 f8             	sar    %rax
    2bed:	48 c1 e8 3e          	shr    $0x3e,%rax
    2bf1:	48 01 d0             	add    %rdx,%rax
    2bf4:	48 83 e0 fc          	and    $0xfffffffffffffffc,%rax
    2bf8:	49 8d 84 07 58 05 00 	lea    0x558(%r15,%rax,1),%rax
    2bff:	00 
    2c00:	48 f7 d8             	neg    %rax
    2c03:	48 01 c8             	add    %rcx,%rax
    2c06:	49 8d 84 07 58 05 00 	lea    0x558(%r15,%rax,1),%rax
    2c0d:	00 
    2c0e:	48 29 c1             	sub    %rax,%rcx
    2c11:	49 8d 84 0c 58 05 00 	lea    0x558(%r12,%rcx,1),%rax
    2c18:	00 
    2c19:	49 89 44 24 70       	mov    %rax,0x70(%r12)
    2c1e:	e9 9e fe ff ff       	jmpq   2ac1 <inflateCopy+0xd1>
    2c23:	49 8b 46 48          	mov    0x48(%r14),%rax
    2c27:	49 8b 7e 50          	mov    0x50(%r14),%rdi
    2c2b:	4c 89 fe             	mov    %r15,%rsi
    2c2e:	ff d0                	callq  *%rax
    2c30:	4c 8b 7d e0          	mov    -0x20(%rbp),%r15
    2c34:	4c 8b 75 f0          	mov    -0x10(%rbp),%r14
    2c38:	48 c7 c0 fc ff ff ff 	mov    $0xfffffffffffffffc,%rax
    2c3f:	c9                   	leaveq 
    2c40:	c3                   	retq   
    2c41:	66 66 2e 0f 1f 84 00 	data16 nopw %cs:0x0(%rax,%rax,1)
    2c48:	00 00 00 00 
    2c4c:	0f 1f 40 00          	nopl   0x0(%rax)

0000000000002c50 <inflateReset>:
    2c50:	55                   	push   %rbp
    2c51:	48 89 e5             	mov    %rsp,%rbp
    2c54:	48 83 ec 10          	sub    $0x10,%rsp
    2c58:	4c 89 7d f8          	mov    %r15,-0x8(%rbp)
    2c5c:	49 89 ff             	mov    %rdi,%r15
    2c5f:	e8 dc 05 00 00       	callq  3240 <inflateStateCheck>
    2c64:	85 c0                	test   %eax,%eax
    2c66:	74 0d                	je     2c75 <inflateReset+0x25>
    2c68:	48 c7 c0 fe ff ff ff 	mov    $0xfffffffffffffffe,%rax
    2c6f:	4c 8b 7d f8          	mov    -0x8(%rbp),%r15
    2c73:	c9                   	leaveq 
    2c74:	c3                   	retq   
    2c75:	49 8b 47 38          	mov    0x38(%r15),%rax
    2c79:	c7 40 3c 00 00 00 00 	movl   $0x0,0x3c(%rax)
    2c80:	c7 40 40 00 00 00 00 	movl   $0x0,0x40(%rax)
    2c87:	c7 40 44 00 00 00 00 	movl   $0x0,0x44(%rax)
    2c8e:	4c 89 ff             	mov    %r15,%rdi
    2c91:	e8 00 00 00 00       	callq  2c96 <inflateReset+0x46>
    2c96:	4c 8b 7d f8          	mov    -0x8(%rbp),%r15
    2c9a:	c9                   	leaveq 
    2c9b:	c3                   	retq   
    2c9c:	0f 1f 40 00          	nopl   0x0(%rax)

0000000000002ca0 <inflateReset2>:
    2ca0:	55                   	push   %rbp
    2ca1:	48 89 e5             	mov    %rsp,%rbp
    2ca4:	48 83 ec 20          	sub    $0x20,%rsp
    2ca8:	4c 89 7d e8          	mov    %r15,-0x18(%rbp)
    2cac:	48 89 75 e0          	mov    %rsi,-0x20(%rbp)
    2cb0:	49 89 ff             	mov    %rdi,%r15
    2cb3:	e8 88 05 00 00       	callq  3240 <inflateStateCheck>
    2cb8:	85 c0                	test   %eax,%eax
    2cba:	74 0d                	je     2cc9 <inflateReset2+0x29>
    2cbc:	48 c7 c0 fe ff ff ff 	mov    $0xfffffffffffffffe,%rax
    2cc3:	4c 8b 7d e8          	mov    -0x18(%rbp),%r15
    2cc7:	c9                   	leaveq 
    2cc8:	c3                   	retq   
    2cc9:	49 8b 57 38          	mov    0x38(%r15),%rdx
    2ccd:	48 8b 45 e0          	mov    -0x20(%rbp),%rax
    2cd1:	85 c0                	test   %eax,%eax
    2cd3:	78 13                	js     2ce8 <inflateReset2+0x48>
    2cd5:	48 89 c1             	mov    %rax,%rcx
    2cd8:	c1 f9 04             	sar    $0x4,%ecx
    2cdb:	83 c1 05             	add    $0x5,%ecx
    2cde:	83 f8 2f             	cmp    $0x2f,%eax
    2ce1:	7f 09                	jg     2cec <inflateReset2+0x4c>
    2ce3:	83 e0 0f             	and    $0xf,%eax
    2ce6:	eb 04                	jmp    2cec <inflateReset2+0x4c>
    2ce8:	f7 d8                	neg    %eax
    2cea:	31 c9                	xor    %ecx,%ecx
    2cec:	85 c0                	test   %eax,%eax
    2cee:	75 1d                	jne    2d0d <inflateReset2+0x6d>
    2cf0:	48 8b 72 48          	mov    0x48(%rdx),%rsi
    2cf4:	48 85 f6             	test   %rsi,%rsi
    2cf7:	75 26                	jne    2d1f <inflateReset2+0x7f>
    2cf9:	4c 89 ff             	mov    %r15,%rdi
    2cfc:	89 4a 10             	mov    %ecx,0x10(%rdx)
    2cff:	89 42 38             	mov    %eax,0x38(%rdx)
    2d02:	e8 00 00 00 00       	callq  2d07 <inflateReset2+0x67>
    2d07:	4c 8b 7d e8          	mov    -0x18(%rbp),%r15
    2d0b:	c9                   	leaveq 
    2d0c:	c3                   	retq   
    2d0d:	83 f8 07             	cmp    $0x7,%eax
    2d10:	7f 19                	jg     2d2b <inflateReset2+0x8b>
    2d12:	48 c7 c0 fe ff ff ff 	mov    $0xfffffffffffffffe,%rax
    2d19:	4c 8b 7d e8          	mov    -0x18(%rbp),%r15
    2d1d:	c9                   	leaveq 
    2d1e:	c3                   	retq   
    2d1f:	8b 7a 38             	mov    0x38(%rdx),%edi
    2d22:	39 c7                	cmp    %eax,%edi
    2d24:	75 17                	jne    2d3d <inflateReset2+0x9d>
    2d26:	4c 89 ff             	mov    %r15,%rdi
    2d29:	eb d1                	jmp    2cfc <inflateReset2+0x5c>
    2d2b:	83 f8 0f             	cmp    $0xf,%eax
    2d2e:	7e c0                	jle    2cf0 <inflateReset2+0x50>
    2d30:	48 c7 c0 fe ff ff ff 	mov    $0xfffffffffffffffe,%rax
    2d37:	4c 8b 7d e8          	mov    -0x18(%rbp),%r15
    2d3b:	c9                   	leaveq 
    2d3c:	c3                   	retq   
    2d3d:	4d 8b 47 48          	mov    0x48(%r15),%r8
    2d41:	49 8b 7f 50          	mov    0x50(%r15),%rdi
    2d45:	4c 89 65 f8          	mov    %r12,-0x8(%rbp)
    2d49:	4c 89 6d f0          	mov    %r13,-0x10(%rbp)
    2d4d:	4c 89 75 e0          	mov    %r14,-0x20(%rbp)
    2d51:	49 89 c4             	mov    %rax,%r12
    2d54:	49 89 cd             	mov    %rcx,%r13
    2d57:	49 89 d6             	mov    %rdx,%r14
    2d5a:	41 ff d0             	callq  *%r8
    2d5d:	4c 89 e0             	mov    %r12,%rax
    2d60:	4c 89 e9             	mov    %r13,%rcx
    2d63:	4c 89 f2             	mov    %r14,%rdx
    2d66:	4c 89 ff             	mov    %r15,%rdi
    2d69:	48 c7 42 48 00 00 00 	movq   $0x0,0x48(%rdx)
    2d70:	00 
    2d71:	4c 8b 75 e0          	mov    -0x20(%rbp),%r14
    2d75:	4c 8b 6d f0          	mov    -0x10(%rbp),%r13
    2d79:	4c 8b 65 f8          	mov    -0x8(%rbp),%r12
    2d7d:	e9 7a ff ff ff       	jmpq   2cfc <inflateReset2+0x5c>
    2d82:	66 66 2e 0f 1f 84 00 	data16 nopw %cs:0x0(%rax,%rax,1)
    2d89:	00 00 00 00 
    2d8d:	0f 1f 00             	nopl   (%rax)

0000000000002d90 <inflatePrime>:
    2d90:	55                   	push   %rbp
    2d91:	48 89 e5             	mov    %rsp,%rbp
    2d94:	48 83 ec 20          	sub    $0x20,%rsp
    2d98:	4c 89 7d f0          	mov    %r15,-0x10(%rbp)
    2d9c:	48 89 75 e8          	mov    %rsi,-0x18(%rbp)
    2da0:	48 89 55 f8          	mov    %rdx,-0x8(%rbp)
    2da4:	49 89 ff             	mov    %rdi,%r15
    2da7:	e8 94 04 00 00       	callq  3240 <inflateStateCheck>
    2dac:	85 c0                	test   %eax,%eax
    2dae:	74 0d                	je     2dbd <inflatePrime+0x2d>
    2db0:	48 c7 c0 fe ff ff ff 	mov    $0xfffffffffffffffe,%rax
    2db7:	4c 8b 7d f0          	mov    -0x10(%rbp),%r15
    2dbb:	c9                   	leaveq 
    2dbc:	c3                   	retq   
    2dbd:	49 8b 7f 38          	mov    0x38(%r15),%rdi
    2dc1:	31 c0                	xor    %eax,%eax
    2dc3:	48 8b 4d e8          	mov    -0x18(%rbp),%rcx
    2dc7:	85 c9                	test   %ecx,%ecx
    2dc9:	78 12                	js     2ddd <inflatePrime+0x4d>
    2dcb:	83 f9 10             	cmp    $0x10,%ecx
    2dce:	7e 22                	jle    2df2 <inflatePrime+0x62>
    2dd0:	48 c7 c0 fe ff ff ff 	mov    $0xfffffffffffffffe,%rax
    2dd7:	4c 8b 7d f0          	mov    -0x10(%rbp),%r15
    2ddb:	c9                   	leaveq 
    2ddc:	c3                   	retq   
    2ddd:	48 c7 47 50 00 00 00 	movq   $0x0,0x50(%rdi)
    2de4:	00 
    2de5:	c7 47 58 00 00 00 00 	movl   $0x0,0x58(%rdi)
    2dec:	4c 8b 7d f0          	mov    -0x10(%rbp),%r15
    2df0:	c9                   	leaveq 
    2df1:	c3                   	retq   
    2df2:	8b 57 58             	mov    0x58(%rdi),%edx
    2df5:	44 8d 04 0a          	lea    (%rdx,%rcx,1),%r8d
    2df9:	41 83 f8 20          	cmp    $0x20,%r8d
    2dfd:	76 0d                	jbe    2e0c <inflatePrime+0x7c>
    2dff:	48 c7 c0 fe ff ff ff 	mov    $0xfffffffffffffffe,%rax
    2e06:	4c 8b 7d f0          	mov    -0x10(%rbp),%r15
    2e0a:	c9                   	leaveq 
    2e0b:	c3                   	retq   
    2e0c:	be 01 00 00 00       	mov    $0x1,%esi
    2e11:	48 d3 e6             	shl    %cl,%rsi
    2e14:	83 c6 ff             	add    $0xffffffff,%esi
    2e17:	48 8b 4d f8          	mov    -0x8(%rbp),%rcx
    2e1b:	21 ce                	and    %ecx,%esi
    2e1d:	48 89 d1             	mov    %rdx,%rcx
    2e20:	d3 e6                	shl    %cl,%esi
    2e22:	89 f1                	mov    %esi,%ecx
    2e24:	48 03 4f 50          	add    0x50(%rdi),%rcx
    2e28:	48 89 4f 50          	mov    %rcx,0x50(%rdi)
    2e2c:	44 89 47 58          	mov    %r8d,0x58(%rdi)
    2e30:	4c 8b 7d f0          	mov    -0x10(%rbp),%r15
    2e34:	c9                   	leaveq 
    2e35:	c3                   	retq   
    2e36:	66 2e 0f 1f 84 00 00 	nopw   %cs:0x0(%rax,%rax,1)
    2e3d:	00 00 00 

0000000000002e40 <inflateMark>:
    2e40:	55                   	push   %rbp
    2e41:	48 89 e5             	mov    %rsp,%rbp
    2e44:	48 83 ec 10          	sub    $0x10,%rsp
    2e48:	4c 89 7d f8          	mov    %r15,-0x8(%rbp)
    2e4c:	49 89 ff             	mov    %rdi,%r15
    2e4f:	e8 ec 03 00 00       	callq  3240 <inflateStateCheck>
    2e54:	85 c0                	test   %eax,%eax
    2e56:	74 0d                	je     2e65 <inflateMark+0x25>
    2e58:	48 c7 c0 00 00 ff ff 	mov    $0xffffffffffff0000,%rax
    2e5f:	4c 8b 7d f8          	mov    -0x8(%rbp),%r15
    2e63:	c9                   	leaveq 
    2e64:	c3                   	retq   
    2e65:	49 8b 57 38          	mov    0x38(%r15),%rdx
    2e69:	48 63 8a ec 1b 00 00 	movslq 0x1bec(%rdx),%rcx
    2e70:	8b 42 08             	mov    0x8(%rdx),%eax
    2e73:	3d 43 3f 00 00       	cmp    $0x3f43,%eax
    2e78:	74 0b                	je     2e85 <inflateMark+0x45>
    2e7a:	3d 4c 3f 00 00       	cmp    $0x3f4c,%eax
    2e7f:	74 16                	je     2e97 <inflateMark+0x57>
    2e81:	31 c0                	xor    %eax,%eax
    2e83:	eb 03                	jmp    2e88 <inflateMark+0x48>
    2e85:	8b 42 5c             	mov    0x5c(%rdx),%eax
    2e88:	89 c0                	mov    %eax,%eax
    2e8a:	48 c1 e1 10          	shl    $0x10,%rcx
    2e8e:	48 01 c8             	add    %rcx,%rax
    2e91:	4c 8b 7d f8          	mov    -0x8(%rbp),%r15
    2e95:	c9                   	leaveq 
    2e96:	c3                   	retq   
    2e97:	8b 82 f0 1b 00 00    	mov    0x1bf0(%rdx),%eax
    2e9d:	8b 52 5c             	mov    0x5c(%rdx),%edx
    2ea0:	29 d0                	sub    %edx,%eax
    2ea2:	eb e4                	jmp    2e88 <inflateMark+0x48>
    2ea4:	66 66 2e 0f 1f 84 00 	data16 nopw %cs:0x0(%rax,%rax,1)
    2eab:	00 00 00 00 
    2eaf:	90                   	nop

0000000000002eb0 <inflateGetHeader>:
    2eb0:	55                   	push   %rbp
    2eb1:	48 89 e5             	mov    %rsp,%rbp
    2eb4:	48 83 ec 10          	sub    $0x10,%rsp
    2eb8:	4c 89 7d f0          	mov    %r15,-0x10(%rbp)
    2ebc:	48 89 75 f8          	mov    %rsi,-0x8(%rbp)
    2ec0:	49 89 ff             	mov    %rdi,%r15
    2ec3:	e8 78 03 00 00       	callq  3240 <inflateStateCheck>
    2ec8:	85 c0                	test   %eax,%eax
    2eca:	74 0d                	je     2ed9 <inflateGetHeader+0x29>
    2ecc:	48 c7 c0 fe ff ff ff 	mov    $0xfffffffffffffffe,%rax
    2ed3:	4c 8b 7d f0          	mov    -0x10(%rbp),%r15
    2ed7:	c9                   	leaveq 
    2ed8:	c3                   	retq   
    2ed9:	49 8b 4f 38          	mov    0x38(%r15),%rcx
    2edd:	48 63 41 10          	movslq 0x10(%rcx),%rax
    2ee1:	83 e0 02             	and    $0x2,%eax
    2ee4:	85 c0                	test   %eax,%eax
    2ee6:	75 0d                	jne    2ef5 <inflateGetHeader+0x45>
    2ee8:	48 c7 c0 fe ff ff ff 	mov    $0xfffffffffffffffe,%rax
    2eef:	4c 8b 7d f0          	mov    -0x10(%rbp),%r15
    2ef3:	c9                   	leaveq 
    2ef4:	c3                   	retq   
    2ef5:	48 8b 45 f8          	mov    -0x8(%rbp),%rax
    2ef9:	48 89 41 30          	mov    %rax,0x30(%rcx)
    2efd:	c7 40 48 00 00 00 00 	movl   $0x0,0x48(%rax)
    2f04:	31 c0                	xor    %eax,%eax
    2f06:	4c 8b 7d f0          	mov    -0x10(%rbp),%r15
    2f0a:	c9                   	leaveq 
    2f0b:	c3                   	retq   
    2f0c:	0f 1f 40 00          	nopl   0x0(%rax)

0000000000002f10 <inflateInit_>:
    2f10:	55                   	push   %rbp
    2f11:	48 89 e5             	mov    %rsp,%rbp
    2f14:	48 89 d1             	mov    %rdx,%rcx
    2f17:	48 89 f2             	mov    %rsi,%rdx
    2f1a:	be 0f 00 00 00       	mov    $0xf,%esi
    2f1f:	e8 00 00 00 00       	callq  2f24 <inflateInit_+0x14>
    2f24:	c9                   	leaveq 
    2f25:	c3                   	retq   
    2f26:	66 2e 0f 1f 84 00 00 	nopw   %cs:0x0(%rax,%rax,1)
    2f2d:	00 00 00 

0000000000002f30 <inflateInit2_>:
    2f30:	55                   	push   %rbp
    2f31:	48 89 e5             	mov    %rsp,%rbp
    2f34:	48 83 ec 20          	sub    $0x20,%rsp
    2f38:	48 c7 c0 fa ff ff ff 	mov    $0xfffffffffffffffa,%rax
    2f3f:	48 85 d2             	test   %rdx,%rdx
    2f42:	75 02                	jne    2f46 <inflateInit2_+0x16>
    2f44:	c9                   	leaveq 
    2f45:	c3                   	retq   
    2f46:	48 0f be 12          	movsbq (%rdx),%rdx
    2f4a:	80 fa 31             	cmp    $0x31,%dl
    2f4d:	74 02                	je     2f51 <inflateInit2_+0x21>
    2f4f:	c9                   	leaveq 
    2f50:	c3                   	retq   
    2f51:	83 f9 70             	cmp    $0x70,%ecx
    2f54:	74 02                	je     2f58 <inflateInit2_+0x28>
    2f56:	c9                   	leaveq 
    2f57:	c3                   	retq   
    2f58:	48 85 ff             	test   %rdi,%rdi
    2f5b:	75 09                	jne    2f66 <inflateInit2_+0x36>
    2f5d:	48 c7 c0 fe ff ff ff 	mov    $0xfffffffffffffffe,%rax
    2f64:	c9                   	leaveq 
    2f65:	c3                   	retq   
    2f66:	48 c7 47 30 00 00 00 	movq   $0x0,0x30(%rdi)
    2f6d:	00 
    2f6e:	48 8b 47 40          	mov    0x40(%rdi),%rax
    2f72:	48 85 c0             	test   %rax,%rax
    2f75:	75 13                	jne    2f8a <inflateInit2_+0x5a>
    2f77:	48 8b 05 00 00 00 00 	mov    0x0(%rip),%rax        # 2f7e <inflateInit2_+0x4e>
    2f7e:	48 89 47 40          	mov    %rax,0x40(%rdi)
    2f82:	48 c7 47 50 00 00 00 	movq   $0x0,0x50(%rdi)
    2f89:	00 
    2f8a:	48 8b 47 48          	mov    0x48(%rdi),%rax
    2f8e:	48 85 c0             	test   %rax,%rax
    2f91:	75 0b                	jne    2f9e <inflateInit2_+0x6e>
    2f93:	48 8b 05 00 00 00 00 	mov    0x0(%rip),%rax        # 2f9a <inflateInit2_+0x6a>
    2f9a:	48 89 47 48          	mov    %rax,0x48(%rdi)
    2f9e:	48 8b 47 40          	mov    0x40(%rdi),%rax
    2fa2:	48 8b 4f 50          	mov    0x50(%rdi),%rcx
    2fa6:	41 b8 01 00 00 00    	mov    $0x1,%r8d
    2fac:	ba f8 1b 00 00       	mov    $0x1bf8,%edx
    2fb1:	4c 89 7d f0          	mov    %r15,-0x10(%rbp)
    2fb5:	48 89 75 e8          	mov    %rsi,-0x18(%rbp)
    2fb9:	4c 89 c6             	mov    %r8,%rsi
    2fbc:	49 89 ff             	mov    %rdi,%r15
    2fbf:	48 89 cf             	mov    %rcx,%rdi
    2fc2:	ff d0                	callq  *%rax
    2fc4:	48 85 c0             	test   %rax,%rax
    2fc7:	75 0d                	jne    2fd6 <inflateInit2_+0xa6>
    2fc9:	48 c7 c0 fc ff ff ff 	mov    $0xfffffffffffffffc,%rax
    2fd0:	4c 8b 7d f0          	mov    -0x10(%rbp),%r15
    2fd4:	c9                   	leaveq 
    2fd5:	c3                   	retq   
    2fd6:	49 89 47 38          	mov    %rax,0x38(%r15)
    2fda:	4c 89 38             	mov    %r15,(%rax)
    2fdd:	48 c7 40 48 00 00 00 	movq   $0x0,0x48(%rax)
    2fe4:	00 
    2fe5:	c7 40 08 34 3f 00 00 	movl   $0x3f34,0x8(%rax)
    2fec:	4c 89 ff             	mov    %r15,%rdi
    2fef:	48 89 45 f8          	mov    %rax,-0x8(%rbp)
    2ff3:	48 8b 75 e8          	mov    -0x18(%rbp),%rsi
    2ff7:	e8 00 00 00 00       	callq  2ffc <inflateInit2_+0xcc>
    2ffc:	85 c0                	test   %eax,%eax
    2ffe:	75 08                	jne    3008 <inflateInit2_+0xd8>
    3000:	31 c0                	xor    %eax,%eax
    3002:	4c 8b 7d f0          	mov    -0x10(%rbp),%r15
    3006:	c9                   	leaveq 
    3007:	c3                   	retq   
    3008:	49 8b 4f 48          	mov    0x48(%r15),%rcx
    300c:	49 8b 7f 50          	mov    0x50(%r15),%rdi
    3010:	48 89 45 e8          	mov    %rax,-0x18(%rbp)
    3014:	48 8b 75 f8          	mov    -0x8(%rbp),%rsi
    3018:	ff d1                	callq  *%rcx
    301a:	49 c7 47 38 00 00 00 	movq   $0x0,0x38(%r15)
    3021:	00 
    3022:	48 8b 45 e8          	mov    -0x18(%rbp),%rax
    3026:	4c 8b 7d f0          	mov    -0x10(%rbp),%r15
    302a:	c9                   	leaveq 
    302b:	c3                   	retq   
    302c:	0f 1f 40 00          	nopl   0x0(%rax)

0000000000003030 <inflateSyncPoint>:
    3030:	55                   	push   %rbp
    3031:	48 89 e5             	mov    %rsp,%rbp
    3034:	48 83 ec 10          	sub    $0x10,%rsp
    3038:	4c 89 7d f8          	mov    %r15,-0x8(%rbp)
    303c:	49 89 ff             	mov    %rdi,%r15
    303f:	e8 fc 01 00 00       	callq  3240 <inflateStateCheck>
    3044:	85 c0                	test   %eax,%eax
    3046:	74 0d                	je     3055 <inflateSyncPoint+0x25>
    3048:	48 c7 c0 fe ff ff ff 	mov    $0xfffffffffffffffe,%rax
    304f:	4c 8b 7d f8          	mov    -0x8(%rbp),%r15
    3053:	c9                   	leaveq 
    3054:	c3                   	retq   
    3055:	31 c0                	xor    %eax,%eax
    3057:	49 8b 4f 38          	mov    0x38(%r15),%rcx
    305b:	8b 51 08             	mov    0x8(%rcx),%edx
    305e:	81 fa 41 3f 00 00    	cmp    $0x3f41,%edx
    3064:	74 06                	je     306c <inflateSyncPoint+0x3c>
    3066:	4c 8b 7d f8          	mov    -0x8(%rbp),%r15
    306a:	c9                   	leaveq 
    306b:	c3                   	retq   
    306c:	8b 49 58             	mov    0x58(%rcx),%ecx
    306f:	85 c9                	test   %ecx,%ecx
    3071:	75 0b                	jne    307e <inflateSyncPoint+0x4e>
    3073:	b8 01 00 00 00       	mov    $0x1,%eax
    3078:	4c 8b 7d f8          	mov    -0x8(%rbp),%r15
    307c:	c9                   	leaveq 
    307d:	c3                   	retq   
    307e:	4c 8b 7d f8          	mov    -0x8(%rbp),%r15
    3082:	c9                   	leaveq 
    3083:	c3                   	retq   
    3084:	66 66 2e 0f 1f 84 00 	data16 nopw %cs:0x0(%rax,%rax,1)
    308b:	00 00 00 00 
    308f:	90                   	nop

0000000000003090 <inflateUndermine>:
    3090:	55                   	push   %rbp
    3091:	48 89 e5             	mov    %rsp,%rbp
    3094:	48 83 ec 10          	sub    $0x10,%rsp
    3098:	4c 89 7d f8          	mov    %r15,-0x8(%rbp)
    309c:	49 89 ff             	mov    %rdi,%r15
    309f:	e8 9c 01 00 00       	callq  3240 <inflateStateCheck>
    30a4:	85 c0                	test   %eax,%eax
    30a6:	74 0d                	je     30b5 <inflateUndermine+0x25>
    30a8:	48 c7 c0 fe ff ff ff 	mov    $0xfffffffffffffffe,%rax
    30af:	4c 8b 7d f8          	mov    -0x8(%rbp),%r15
    30b3:	c9                   	leaveq 
    30b4:	c3                   	retq   
    30b5:	49 8b 47 38          	mov    0x38(%r15),%rax
    30b9:	c7 80 e8 1b 00 00 01 	movl   $0x1,0x1be8(%rax)
    30c0:	00 00 00 
    30c3:	48 c7 c0 fd ff ff ff 	mov    $0xfffffffffffffffd,%rax
    30ca:	4c 8b 7d f8          	mov    -0x8(%rbp),%r15
    30ce:	c9                   	leaveq 
    30cf:	c3                   	retq   

00000000000030d0 <inflateValidate>:
    30d0:	55                   	push   %rbp
    30d1:	48 89 e5             	mov    %rsp,%rbp
    30d4:	48 83 ec 10          	sub    $0x10,%rsp
    30d8:	4c 89 7d f8          	mov    %r15,-0x8(%rbp)
    30dc:	48 89 75 f0          	mov    %rsi,-0x10(%rbp)
    30e0:	49 89 ff             	mov    %rdi,%r15
    30e3:	e8 58 01 00 00       	callq  3240 <inflateStateCheck>
    30e8:	85 c0                	test   %eax,%eax
    30ea:	74 0d                	je     30f9 <inflateValidate+0x29>
    30ec:	48 c7 c0 fe ff ff ff 	mov    $0xfffffffffffffffe,%rax
    30f3:	4c 8b 7d f8          	mov    -0x8(%rbp),%r15
    30f7:	c9                   	leaveq 
    30f8:	c3                   	retq   
    30f9:	49 8b 57 38          	mov    0x38(%r15),%rdx
    30fd:	31 c0                	xor    %eax,%eax
    30ff:	48 8b 4d f0          	mov    -0x10(%rbp),%rcx
    3103:	85 c9                	test   %ecx,%ecx
    3105:	75 10                	jne    3117 <inflateValidate+0x47>
    3107:	48 63 4a 10          	movslq 0x10(%rdx),%rcx
    310b:	83 e1 fb             	and    $0xfffffffb,%ecx
    310e:	89 4a 10             	mov    %ecx,0x10(%rdx)
    3111:	4c 8b 7d f8          	mov    -0x8(%rbp),%r15
    3115:	c9                   	leaveq 
    3116:	c3                   	retq   
    3117:	48 63 4a 10          	movslq 0x10(%rdx),%rcx
    311b:	83 c9 04             	or     $0x4,%ecx
    311e:	89 4a 10             	mov    %ecx,0x10(%rdx)
    3121:	4c 8b 7d f8          	mov    -0x8(%rbp),%r15
    3125:	c9                   	leaveq 
    3126:	c3                   	retq   
    3127:	66 0f 1f 84 00 00 00 	nopw   0x0(%rax,%rax,1)
    312e:	00 00 

0000000000003130 <inflateCodesUsed>:
    3130:	55                   	push   %rbp
    3131:	48 89 e5             	mov    %rsp,%rbp
    3134:	48 83 ec 10          	sub    $0x10,%rsp
    3138:	4c 89 7d f8          	mov    %r15,-0x8(%rbp)
    313c:	49 89 ff             	mov    %rdi,%r15
    313f:	e8 fc 00 00 00       	callq  3240 <inflateStateCheck>
    3144:	85 c0                	test   %eax,%eax
    3146:	74 0d                	je     3155 <inflateCodesUsed+0x25>
    3148:	48 c7 c0 ff ff ff ff 	mov    $0xffffffffffffffff,%rax
    314f:	4c 8b 7d f8          	mov    -0x8(%rbp),%r15
    3153:	c9                   	leaveq 
    3154:	c3                   	retq   
    3155:	49 8b 4f 38          	mov    0x38(%r15),%rcx
    3159:	48 8b 81 90 00 00 00 	mov    0x90(%rcx),%rax
    3160:	48 81 c1 58 05 00 00 	add    $0x558,%rcx
    3167:	48 29 c8             	sub    %rcx,%rax
    316a:	48 c1 f8 02          	sar    $0x2,%rax
    316e:	4c 8b 7d f8          	mov    -0x8(%rbp),%r15
    3172:	c9                   	leaveq 
    3173:	c3                   	retq   
    3174:	66 66 2e 0f 1f 84 00 	data16 nopw %cs:0x0(%rax,%rax,1)
    317b:	00 00 00 00 
    317f:	90                   	nop

0000000000003180 <inflateResetKeep>:
    3180:	55                   	push   %rbp
    3181:	48 89 e5             	mov    %rsp,%rbp
    3184:	48 83 ec 10          	sub    $0x10,%rsp
    3188:	4c 89 7d f8          	mov    %r15,-0x8(%rbp)
    318c:	49 89 ff             	mov    %rdi,%r15
    318f:	e8 ac 00 00 00       	callq  3240 <inflateStateCheck>
    3194:	85 c0                	test   %eax,%eax
    3196:	74 0d                	je     31a5 <inflateResetKeep+0x25>
    3198:	48 c7 c0 fe ff ff ff 	mov    $0xfffffffffffffffe,%rax
    319f:	4c 8b 7d f8          	mov    -0x8(%rbp),%r15
    31a3:	c9                   	leaveq 
    31a4:	c3                   	retq   
    31a5:	49 8b 4f 38          	mov    0x38(%r15),%rcx
    31a9:	48 c7 41 28 00 00 00 	movq   $0x0,0x28(%rcx)
    31b0:	00 
    31b1:	49 c7 47 28 00 00 00 	movq   $0x0,0x28(%r15)
    31b8:	00 
    31b9:	49 c7 47 10 00 00 00 	movq   $0x0,0x10(%r15)
    31c0:	00 
    31c1:	49 c7 47 30 00 00 00 	movq   $0x0,0x30(%r15)
    31c8:	00 
    31c9:	48 63 41 10          	movslq 0x10(%rcx),%rax
    31cd:	85 c0                	test   %eax,%eax
    31cf:	74 0a                	je     31db <inflateResetKeep+0x5b>
    31d1:	83 e0 01             	and    $0x1,%eax
    31d4:	48 63 c0             	movslq %eax,%rax
    31d7:	49 89 47 60          	mov    %rax,0x60(%r15)
    31db:	c7 41 08 34 3f 00 00 	movl   $0x3f34,0x8(%rcx)
    31e2:	c7 41 0c 00 00 00 00 	movl   $0x0,0xc(%rcx)
    31e9:	c7 41 14 00 00 00 00 	movl   $0x0,0x14(%rcx)
    31f0:	c7 41 1c 00 80 00 00 	movl   $0x8000,0x1c(%rcx)
    31f7:	48 c7 41 30 00 00 00 	movq   $0x0,0x30(%rcx)
    31fe:	00 
    31ff:	48 c7 41 50 00 00 00 	movq   $0x0,0x50(%rcx)
    3206:	00 
    3207:	c7 41 58 00 00 00 00 	movl   $0x0,0x58(%rcx)
    320e:	48 8d 81 58 05 00 00 	lea    0x558(%rcx),%rax
    3215:	48 89 81 90 00 00 00 	mov    %rax,0x90(%rcx)
    321c:	48 89 41 70          	mov    %rax,0x70(%rcx)
    3220:	48 89 41 68          	mov    %rax,0x68(%rcx)
    3224:	c7 81 e8 1b 00 00 01 	movl   $0x1,0x1be8(%rcx)
    322b:	00 00 00 
    322e:	c7 81 ec 1b 00 00 ff 	movl   $0xffffffff,0x1bec(%rcx)
    3235:	ff ff ff 
    3238:	31 c0                	xor    %eax,%eax
    323a:	4c 8b 7d f8          	mov    -0x8(%rbp),%r15
    323e:	c9                   	leaveq 
    323f:	c3                   	retq   

0000000000003240 <inflateStateCheck>:
    3240:	55                   	push   %rbp
    3241:	48 89 e5             	mov    %rsp,%rbp
    3244:	b8 01 00 00 00       	mov    $0x1,%eax
    3249:	48 85 ff             	test   %rdi,%rdi
    324c:	75 02                	jne    3250 <inflateStateCheck+0x10>
    324e:	c9                   	leaveq 
    324f:	c3                   	retq   
    3250:	48 8b 4f 40          	mov    0x40(%rdi),%rcx
    3254:	48 85 c9             	test   %rcx,%rcx
    3257:	75 02                	jne    325b <inflateStateCheck+0x1b>
    3259:	c9                   	leaveq 
    325a:	c3                   	retq   
    325b:	48 8b 4f 48          	mov    0x48(%rdi),%rcx
    325f:	48 85 c9             	test   %rcx,%rcx
    3262:	75 02                	jne    3266 <inflateStateCheck+0x26>
    3264:	c9                   	leaveq 
    3265:	c3                   	retq   
    3266:	48 8b 4f 38          	mov    0x38(%rdi),%rcx
    326a:	48 85 c9             	test   %rcx,%rcx
    326d:	75 02                	jne    3271 <inflateStateCheck+0x31>
    326f:	c9                   	leaveq 
    3270:	c3                   	retq   
    3271:	48 3b 39             	cmp    (%rcx),%rdi
    3274:	74 02                	je     3278 <inflateStateCheck+0x38>
    3276:	c9                   	leaveq 
    3277:	c3                   	retq   
    3278:	8b 49 08             	mov    0x8(%rcx),%ecx
    327b:	81 f9 33 3f 00 00    	cmp    $0x3f33,%ecx
    3281:	77 02                	ja     3285 <inflateStateCheck+0x45>
    3283:	c9                   	leaveq 
    3284:	c3                   	retq   
    3285:	81 f9 53 3f 00 00    	cmp    $0x3f53,%ecx
    328b:	76 02                	jbe    328f <inflateStateCheck+0x4f>
    328d:	c9                   	leaveq 
    328e:	c3                   	retq   
    328f:	31 c0                	xor    %eax,%eax
    3291:	c9                   	leaveq 
    3292:	c3                   	retq   
    3293:	66 66 2e 0f 1f 84 00 	data16 nopw %cs:0x0(%rax,%rax,1)
    329a:	00 00 00 00 
    329e:	66 90                	xchg   %ax,%ax

00000000000032a0 <fixedtables>:
    32a0:	55                   	push   %rbp
    32a1:	48 89 e5             	mov    %rsp,%rbp
    32a4:	48 8d 05 00 00 00 00 	lea    0x0(%rip),%rax        # 32ab <fixedtables+0xb>
    32ab:	48 89 47 68          	mov    %rax,0x68(%rdi)
    32af:	c7 47 78 09 00 00 00 	movl   $0x9,0x78(%rdi)
    32b6:	48 8d 05 00 00 00 00 	lea    0x0(%rip),%rax        # 32bd <fixedtables+0x1d>
    32bd:	48 89 47 70          	mov    %rax,0x70(%rdi)
    32c1:	c7 47 7c 05 00 00 00 	movl   $0x5,0x7c(%rdi)
    32c8:	c9                   	leaveq 
    32c9:	c3                   	retq   
    32ca:	66 0f 1f 44 00 00    	nopw   0x0(%rax,%rax,1)

00000000000032d0 <updatewindow>:
    32d0:	55                   	push   %rbp
    32d1:	48 89 e5             	mov    %rsp,%rbp
    32d4:	48 83 ec 20          	sub    $0x20,%rsp
    32d8:	4c 89 7d f0          	mov    %r15,-0x10(%rbp)
    32dc:	b8 01 00 00 00       	mov    $0x1,%eax
    32e1:	4c 8b 7f 38          	mov    0x38(%rdi),%r15
    32e5:	49 8b 4f 48          	mov    0x48(%r15),%rcx
    32e9:	48 85 c9             	test   %rcx,%rcx
    32ec:	0f 84 b2 00 00 00    	je     33a4 <updatewindow+0xd4>
    32f2:	41 8b 4f 3c          	mov    0x3c(%r15),%ecx
    32f6:	85 c9                	test   %ecx,%ecx
    32f8:	75 1a                	jne    3314 <updatewindow+0x44>
    32fa:	41 8b 4f 38          	mov    0x38(%r15),%ecx
    32fe:	d3 e0                	shl    %cl,%eax
    3300:	41 89 47 3c          	mov    %eax,0x3c(%r15)
    3304:	41 c7 47 44 00 00 00 	movl   $0x0,0x44(%r15)
    330b:	00 
    330c:	41 c7 47 40 00 00 00 	movl   $0x0,0x40(%r15)
    3313:	00 
    3314:	41 8b 47 3c          	mov    0x3c(%r15),%eax
    3318:	39 d0                	cmp    %edx,%eax
    331a:	0f 86 c5 00 00 00    	jbe    33e5 <updatewindow+0x115>
    3320:	41 8b 7f 44          	mov    0x44(%r15),%edi
    3324:	29 f8                	sub    %edi,%eax
    3326:	39 c2                	cmp    %eax,%edx
    3328:	73 03                	jae    332d <updatewindow+0x5d>
    332a:	48 89 d0             	mov    %rdx,%rax
    332d:	49 03 7f 48          	add    0x48(%r15),%rdi
    3331:	89 d1                	mov    %edx,%ecx
    3333:	48 f7 d9             	neg    %rcx
    3336:	48 01 f1             	add    %rsi,%rcx
    3339:	41 89 c0             	mov    %eax,%r8d
    333c:	4c 89 65 f8          	mov    %r12,-0x8(%rbp)
    3340:	4c 89 6d e8          	mov    %r13,-0x18(%rbp)
    3344:	4c 89 75 e0          	mov    %r14,-0x20(%rbp)
    3348:	49 89 d4             	mov    %rdx,%r12
    334b:	4c 89 c2             	mov    %r8,%rdx
    334e:	49 89 c5             	mov    %rax,%r13
    3351:	49 89 f6             	mov    %rsi,%r14
    3354:	48 89 ce             	mov    %rcx,%rsi
    3357:	e8 00 00 00 00       	callq  335c <updatewindow+0x8c>
    335c:	45 39 ec             	cmp    %r13d,%r12d
    335f:	0f 85 a7 00 00 00    	jne    340c <updatewindow+0x13c>
    3365:	4c 89 e9             	mov    %r13,%rcx
    3368:	41 03 4f 44          	add    0x44(%r15),%ecx
    336c:	41 89 4f 44          	mov    %ecx,0x44(%r15)
    3370:	41 8b 47 3c          	mov    0x3c(%r15),%eax
    3374:	39 c8                	cmp    %ecx,%eax
    3376:	75 08                	jne    3380 <updatewindow+0xb0>
    3378:	41 c7 47 44 00 00 00 	movl   $0x0,0x44(%r15)
    337f:	00 
    3380:	41 8b 4f 40          	mov    0x40(%r15),%ecx
    3384:	41 8b 47 3c          	mov    0x3c(%r15),%eax
    3388:	39 c8                	cmp    %ecx,%eax
    338a:	0f 87 b1 00 00 00    	ja     3441 <updatewindow+0x171>
    3390:	31 c0                	xor    %eax,%eax
    3392:	4c 8b 75 e0          	mov    -0x20(%rbp),%r14
    3396:	4c 8b 6d e8          	mov    -0x18(%rbp),%r13
    339a:	4c 8b 65 f8          	mov    -0x8(%rbp),%r12
    339e:	4c 8b 7d f0          	mov    -0x10(%rbp),%r15
    33a2:	c9                   	leaveq 
    33a3:	c3                   	retq   
    33a4:	41 8b 4f 38          	mov    0x38(%r15),%ecx
    33a8:	49 89 c0             	mov    %rax,%r8
    33ab:	41 d3 e0             	shl    %cl,%r8d
    33ae:	48 8b 4f 40          	mov    0x40(%rdi),%rcx
    33b2:	48 8b 7f 50          	mov    0x50(%rdi),%rdi
    33b6:	48 89 55 e0          	mov    %rdx,-0x20(%rbp)
    33ba:	48 89 75 e8          	mov    %rsi,-0x18(%rbp)
    33be:	48 89 c2             	mov    %rax,%rdx
    33c1:	4c 89 c6             	mov    %r8,%rsi
    33c4:	ff d1                	callq  *%rcx
    33c6:	49 89 47 48          	mov    %rax,0x48(%r15)
    33ca:	48 85 c0             	test   %rax,%rax
    33cd:	0f 84 8b 00 00 00    	je     345e <updatewindow+0x18e>
    33d3:	b8 01 00 00 00       	mov    $0x1,%eax
    33d8:	48 8b 75 e8          	mov    -0x18(%rbp),%rsi
    33dc:	48 8b 55 e0          	mov    -0x20(%rbp),%rdx
    33e0:	e9 0d ff ff ff       	jmpq   32f2 <updatewindow+0x22>
    33e5:	48 29 c6             	sub    %rax,%rsi
    33e8:	48 89 c2             	mov    %rax,%rdx
    33eb:	49 8b 7f 48          	mov    0x48(%r15),%rdi
    33ef:	e8 00 00 00 00       	callq  33f4 <updatewindow+0x124>
    33f4:	41 c7 47 44 00 00 00 	movl   $0x0,0x44(%r15)
    33fb:	00 
    33fc:	41 8b 47 3c          	mov    0x3c(%r15),%eax
    3400:	41 89 47 40          	mov    %eax,0x40(%r15)
    3404:	31 c0                	xor    %eax,%eax
    3406:	4c 8b 7d f0          	mov    -0x10(%rbp),%r15
    340a:	c9                   	leaveq 
    340b:	c3                   	retq   
    340c:	45 29 ec             	sub    %r13d,%r12d
    340f:	44 89 e2             	mov    %r12d,%edx
    3412:	4c 89 f6             	mov    %r14,%rsi
    3415:	48 29 d6             	sub    %rdx,%rsi
    3418:	49 8b 7f 48          	mov    0x48(%r15),%rdi
    341c:	e8 00 00 00 00       	callq  3421 <updatewindow+0x151>
    3421:	45 89 67 44          	mov    %r12d,0x44(%r15)
    3425:	41 8b 47 3c          	mov    0x3c(%r15),%eax
    3429:	41 89 47 40          	mov    %eax,0x40(%r15)
    342d:	31 c0                	xor    %eax,%eax
    342f:	4c 8b 75 e0          	mov    -0x20(%rbp),%r14
    3433:	4c 8b 6d e8          	mov    -0x18(%rbp),%r13
    3437:	4c 8b 65 f8          	mov    -0x8(%rbp),%r12
    343b:	4c 8b 7d f0          	mov    -0x10(%rbp),%r15
    343f:	c9                   	leaveq 
    3440:	c3                   	retq   
    3441:	41 8d 44 0d 00       	lea    0x0(%r13,%rcx,1),%eax
    3446:	41 89 47 40          	mov    %eax,0x40(%r15)
    344a:	31 c0                	xor    %eax,%eax
    344c:	4c 8b 75 e0          	mov    -0x20(%rbp),%r14
    3450:	4c 8b 6d e8          	mov    -0x18(%rbp),%r13
    3454:	4c 8b 65 f8          	mov    -0x8(%rbp),%r12
    3458:	4c 8b 7d f0          	mov    -0x10(%rbp),%r15
    345c:	c9                   	leaveq 
    345d:	c3                   	retq   
    345e:	b8 01 00 00 00       	mov    $0x1,%eax
    3463:	4c 8b 7d f0          	mov    -0x10(%rbp),%r15
    3467:	c9                   	leaveq 
    3468:	c3                   	retq   
    3469:	0f 1f 80 00 00 00 00 	nopl   0x0(%rax)

0000000000003470 <syncsearch>:
    3470:	55                   	push   %rbp
    3471:	48 89 e5             	mov    %rsp,%rbp
    3474:	48 83 ec 10          	sub    $0x10,%rsp
    3478:	4c 89 7d f8          	mov    %r15,-0x8(%rbp)
    347c:	8b 0f                	mov    (%rdi),%ecx
    347e:	45 31 ff             	xor    %r15d,%r15d
    3481:	41 b9 04 00 00 00    	mov    $0x4,%r9d
    3487:	41 ba ff 00 00 00    	mov    $0xff,%r10d
    348d:	4c 89 f8             	mov    %r15,%rax
    3490:	eb 06                	jmp    3498 <syncsearch+0x28>
    3492:	83 c1 01             	add    $0x1,%ecx
    3495:	83 c0 01             	add    $0x1,%eax
    3498:	39 d0                	cmp    %edx,%eax
    349a:	73 17                	jae    34b3 <syncsearch+0x43>
    349c:	83 f9 03             	cmp    $0x3,%ecx
    349f:	77 12                	ja     34b3 <syncsearch+0x43>
    34a1:	41 89 c0             	mov    %eax,%r8d
    34a4:	46 0f b6 04 06       	movzbl (%rsi,%r8,1),%r8d
    34a9:	83 f9 01             	cmp    $0x1,%ecx
    34ac:	76 0d                	jbe    34bb <syncsearch+0x4b>
    34ae:	4d 89 d3             	mov    %r10,%r11
    34b1:	eb 0b                	jmp    34be <syncsearch+0x4e>
    34b3:	89 0f                	mov    %ecx,(%rdi)
    34b5:	4c 8b 7d f8          	mov    -0x8(%rbp),%r15
    34b9:	c9                   	leaveq 
    34ba:	c3                   	retq   
    34bb:	4d 89 fb             	mov    %r15,%r11
    34be:	45 39 c3             	cmp    %r8d,%r11d
    34c1:	74 cf                	je     3492 <syncsearch+0x22>
    34c3:	45 84 c0             	test   %r8b,%r8b
    34c6:	74 05                	je     34cd <syncsearch+0x5d>
    34c8:	4c 89 f9             	mov    %r15,%rcx
    34cb:	eb c8                	jmp    3495 <syncsearch+0x25>
    34cd:	f7 d9                	neg    %ecx
    34cf:	44 01 c9             	add    %r9d,%ecx
    34d2:	eb c1                	jmp    3495 <syncsearch+0x25>

inftrees.o:     file format elf64-x86-64


Disassembly of section .text:

0000000000000000 <inflate_table>:
   0:	55                   	push   %rbp
   1:	48 89 e5             	mov    %rsp,%rbp
   4:	48 81 ec 00 01 00 00 	sub    $0x100,%rsp
   b:	45 31 db             	xor    %r11d,%r11d
   e:	4d 89 da             	mov    %r11,%r10
  11:	eb 11                	jmp    24 <inflate_table+0x24>
  13:	44 89 d0             	mov    %r10d,%eax
  16:	66 c7 84 45 10 ff ff 	movw   $0x0,-0xf0(%rbp,%rax,2)
  1d:	ff 00 00 
  20:	41 83 c2 01          	add    $0x1,%r10d
  24:	41 83 fa 0f          	cmp    $0xf,%r10d
  28:	76 e9                	jbe    13 <inflate_table+0x13>
  2a:	4c 89 8d 68 ff ff ff 	mov    %r9,-0x98(%rbp)
  31:	4d 89 d9             	mov    %r11,%r9
  34:	eb 21                	jmp    57 <inflate_table+0x57>
  36:	44 89 c8             	mov    %r9d,%eax
  39:	0f b7 04 46          	movzwl (%rsi,%rax,2),%eax
  3d:	44 0f b7 94 45 10 ff 	movzwl -0xf0(%rbp,%rax,2),%r10d
  44:	ff ff 
  46:	41 83 c2 01          	add    $0x1,%r10d
  4a:	66 44 89 94 45 10 ff 	mov    %r10w,-0xf0(%rbp,%rax,2)
  51:	ff ff 
  53:	41 83 c1 01          	add    $0x1,%r9d
  57:	41 39 d1             	cmp    %edx,%r9d
  5a:	72 da                	jb     36 <inflate_table+0x36>
  5c:	41 8b 00             	mov    (%r8),%eax
  5f:	41 b9 0f 00 00 00    	mov    $0xf,%r9d
  65:	eb 16                	jmp    7d <inflate_table+0x7d>
  67:	45 89 ca             	mov    %r9d,%r10d
  6a:	46 0f b7 94 55 10 ff 	movzwl -0xf0(%rbp,%r10,2),%r10d
  71:	ff ff 
  73:	66 45 85 d2          	test   %r10w,%r10w
  77:	75 09                	jne    82 <inflate_table+0x82>
  79:	41 83 c1 ff          	add    $0xffffffff,%r9d
  7d:	45 85 c9             	test   %r9d,%r9d
  80:	75 e5                	jne    67 <inflate_table+0x67>
  82:	41 39 c1             	cmp    %eax,%r9d
  85:	73 03                	jae    8a <inflate_table+0x8a>
  87:	4c 89 c8             	mov    %r9,%rax
  8a:	45 85 c9             	test   %r9d,%r9d
  8d:	74 19                	je     a8 <inflate_table+0xa8>
  8f:	41 ba 01 00 00 00    	mov    $0x1,%r10d
  95:	48 89 b5 70 ff ff ff 	mov    %rsi,-0x90(%rbp)
  9c:	48 89 95 60 ff ff ff 	mov    %rdx,-0xa0(%rbp)
  a3:	4c 89 d2             	mov    %r10,%rdx
  a6:	eb 53                	jmp    fb <inflate_table+0xfb>
  a8:	c6 85 0c ff ff ff 40 	movb   $0x40,-0xf4(%rbp)
  af:	c6 85 0d ff ff ff 01 	movb   $0x1,-0xf3(%rbp)
  b6:	66 c7 85 0e ff ff ff 	movw   $0x0,-0xf2(%rbp)
  bd:	00 00 
  bf:	48 8b 31             	mov    (%rcx),%rsi
  c2:	48 8d 46 04          	lea    0x4(%rsi),%rax
  c6:	48 89 01             	mov    %rax,(%rcx)
  c9:	8b 95 0c ff ff ff    	mov    -0xf4(%rbp),%edx
  cf:	89 16                	mov    %edx,(%rsi)
  d1:	48 8b 01             	mov    (%rcx),%rax
  d4:	48 8d 70 04          	lea    0x4(%rax),%rsi
  d8:	48 89 31             	mov    %rsi,(%rcx)
  db:	89 10                	mov    %edx,(%rax)
  dd:	41 c7 00 01 00 00 00 	movl   $0x1,(%r8)
  e4:	4c 89 d8             	mov    %r11,%rax
  e7:	c9                   	leaveq 
  e8:	c3                   	retq   
  e9:	89 d6                	mov    %edx,%esi
  eb:	0f b7 b4 75 10 ff ff 	movzwl -0xf0(%rbp,%rsi,2),%esi
  f2:	ff 
  f3:	66 85 f6             	test   %si,%si
  f6:	75 08                	jne    100 <inflate_table+0x100>
  f8:	83 c2 01             	add    $0x1,%edx
  fb:	41 39 d1             	cmp    %edx,%r9d
  fe:	77 e9                	ja     e9 <inflate_table+0xe9>
 100:	48 c7 c6 ff ff ff ff 	mov    $0xffffffffffffffff,%rsi
 107:	39 c2                	cmp    %eax,%edx
 109:	77 1a                	ja     125 <inflate_table+0x125>
 10b:	48 89 bd 50 ff ff ff 	mov    %rdi,-0xb0(%rbp)
 112:	4c 89 8d 58 ff ff ff 	mov    %r9,-0xa8(%rbp)
 119:	48 89 55 98          	mov    %rdx,-0x68(%rbp)
 11d:	4c 89 d2             	mov    %r10,%rdx
 120:	48 89 d7             	mov    %rdx,%rdi
 123:	eb 35                	jmp    15a <inflate_table+0x15a>
 125:	48 89 bd 50 ff ff ff 	mov    %rdi,-0xb0(%rbp)
 12c:	4c 89 8d 58 ff ff ff 	mov    %r9,-0xa8(%rbp)
 133:	48 89 d0             	mov    %rdx,%rax
 136:	48 89 45 98          	mov    %rax,-0x68(%rbp)
 13a:	4c 89 d2             	mov    %r10,%rdx
 13d:	48 89 d7             	mov    %rdx,%rdi
 140:	eb 18                	jmp    15a <inflate_table+0x15a>
 142:	01 d2                	add    %edx,%edx
 144:	41 89 f9             	mov    %edi,%r9d
 147:	46 0f b7 8c 4d 10 ff 	movzwl -0xf0(%rbp,%r9,2),%r9d
 14e:	ff ff 
 150:	44 29 ca             	sub    %r9d,%edx
 153:	85 d2                	test   %edx,%edx
 155:	78 1c                	js     173 <inflate_table+0x173>
 157:	83 c7 01             	add    $0x1,%edi
 15a:	83 ff 0f             	cmp    $0xf,%edi
 15d:	76 e3                	jbe    142 <inflate_table+0x142>
 15f:	85 d2                	test   %edx,%edx
 161:	7e 15                	jle    178 <inflate_table+0x178>
 163:	48 8b 95 50 ff ff ff 	mov    -0xb0(%rbp),%rdx
 16a:	85 d2                	test   %edx,%edx
 16c:	75 15                	jne    183 <inflate_table+0x183>
 16e:	48 89 f0             	mov    %rsi,%rax
 171:	c9                   	leaveq 
 172:	c3                   	retq   
 173:	48 89 f0             	mov    %rsi,%rax
 176:	c9                   	leaveq 
 177:	c3                   	retq   
 178:	66 c7 85 32 ff ff ff 	movw   $0x0,-0xce(%rbp)
 17f:	00 00 
 181:	eb 35                	jmp    1b8 <inflate_table+0x1b8>
 183:	48 8b 95 58 ff ff ff 	mov    -0xa8(%rbp),%rdx
 18a:	83 fa 01             	cmp    $0x1,%edx
 18d:	74 e9                	je     178 <inflate_table+0x178>
 18f:	48 89 f0             	mov    %rsi,%rax
 192:	c9                   	leaveq 
 193:	c3                   	retq   
 194:	44 89 d6             	mov    %r10d,%esi
 197:	0f b7 94 75 10 ff ff 	movzwl -0xf0(%rbp,%rsi,2),%edx
 19e:	ff 
 19f:	0f b7 b4 75 30 ff ff 	movzwl -0xd0(%rbp,%rsi,2),%esi
 1a6:	ff 
 1a7:	01 d6                	add    %edx,%esi
 1a9:	41 83 c2 01          	add    $0x1,%r10d
 1ad:	44 89 d2             	mov    %r10d,%edx
 1b0:	66 89 b4 55 30 ff ff 	mov    %si,-0xd0(%rbp,%rdx,2)
 1b7:	ff 
 1b8:	41 83 fa 0e          	cmp    $0xe,%r10d
 1bc:	76 d6                	jbe    194 <inflate_table+0x194>
 1be:	48 89 85 78 ff ff ff 	mov    %rax,-0x88(%rbp)
 1c5:	4c 89 7d d0          	mov    %r15,-0x30(%rbp)
 1c9:	48 8b bd 60 ff ff ff 	mov    -0xa0(%rbp),%rdi
 1d0:	48 8b 85 68 ff ff ff 	mov    -0x98(%rbp),%rax
 1d7:	48 8b b5 70 ff ff ff 	mov    -0x90(%rbp),%rsi
 1de:	4c 89 da             	mov    %r11,%rdx
 1e1:	eb 2c                	jmp    20f <inflate_table+0x20f>
 1e3:	41 89 d1             	mov    %edx,%r9d
 1e6:	46 0f b7 3c 4e       	movzwl (%rsi,%r9,2),%r15d
 1eb:	66 45 85 ff          	test   %r15w,%r15w
 1ef:	74 1b                	je     20c <inflate_table+0x20c>
 1f1:	46 0f b7 8c 7d 30 ff 	movzwl -0xd0(%rbp,%r15,2),%r9d
 1f8:	ff ff 
 1fa:	45 8d 51 01          	lea    0x1(%r9),%r10d
 1fe:	66 46 89 94 7d 30 ff 	mov    %r10w,-0xd0(%rbp,%r15,2)
 205:	ff ff 
 207:	66 42 89 14 48       	mov    %dx,(%rax,%r9,2)
 20c:	83 c2 01             	add    $0x1,%edx
 20f:	39 d7                	cmp    %edx,%edi
 211:	77 d0                	ja     1e3 <inflate_table+0x1e3>
 213:	48 8b b5 50 ff ff ff 	mov    -0xb0(%rbp),%rsi
 21a:	85 f6                	test   %esi,%esi
 21c:	75 67                	jne    285 <inflate_table+0x285>
 21e:	41 bf 14 00 00 00    	mov    $0x14,%r15d
 224:	48 89 c7             	mov    %rax,%rdi
 227:	49 89 fa             	mov    %rdi,%r10
 22a:	48 89 7d c8          	mov    %rdi,-0x38(%rbp)
 22e:	4c 89 7d b8          	mov    %r15,-0x48(%rbp)
 232:	4c 89 55 c0          	mov    %r10,-0x40(%rbp)
 236:	4c 8b 09             	mov    (%rcx),%r9
 239:	4c 89 45 f8          	mov    %r8,-0x8(%rbp)
 23d:	4c 8b 85 78 ff ff ff 	mov    -0x88(%rbp),%r8
 244:	48 89 4d a0          	mov    %rcx,-0x60(%rbp)
 248:	4c 89 c1             	mov    %r8,%rcx
 24b:	4d 89 e0             	mov    %r12,%r8
 24e:	4d 89 d4             	mov    %r10,%r12
 251:	4d 89 f2             	mov    %r14,%r10
 254:	49 89 fe             	mov    %rdi,%r14
 257:	ba 01 00 00 00       	mov    $0x1,%edx
 25c:	48 89 d7             	mov    %rdx,%rdi
 25f:	d3 e7                	shl    %cl,%edi
 261:	48 89 4d 80          	mov    %rcx,-0x80(%rbp)
 265:	48 89 7d 90          	mov    %rdi,-0x70(%rbp)
 269:	83 fe 01             	cmp    $0x1,%esi
 26c:	75 2f                	jne    29d <inflate_table+0x29d>
 26e:	81 ff 54 03 00 00    	cmp    $0x354,%edi
 274:	76 27                	jbe    29d <inflate_table+0x29d>
 276:	48 89 d0             	mov    %rdx,%rax
 279:	4d 89 c4             	mov    %r8,%r12
 27c:	4d 89 d6             	mov    %r10,%r14
 27f:	4c 8b 7d d0          	mov    -0x30(%rbp),%r15
 283:	c9                   	leaveq 
 284:	c3                   	retq   
 285:	83 fe 01             	cmp    $0x1,%esi
 288:	74 60                	je     2ea <inflate_table+0x2ea>
 28a:	48 8d 3d 00 00 00 00 	lea    0x0(%rip),%rdi        # 291 <inflate_table+0x291>
 291:	4c 8d 15 00 00 00 00 	lea    0x0(%rip),%r10        # 298 <inflate_table+0x298>
 298:	4d 89 df             	mov    %r11,%r15
 29b:	eb 8d                	jmp    22a <inflate_table+0x22a>
 29d:	8d 57 ff             	lea    -0x1(%rdi),%edx
 2a0:	48 89 95 50 ff ff ff 	mov    %rdx,-0xb0(%rbp)
 2a7:	ba ff ff ff ff       	mov    $0xffffffff,%edx
 2ac:	48 89 95 60 ff ff ff 	mov    %rdx,-0xa0(%rbp)
 2b3:	83 fe 02             	cmp    $0x2,%esi
 2b6:	74 4b                	je     303 <inflate_table+0x303>
 2b8:	48 89 75 88          	mov    %rsi,-0x78(%rbp)
 2bc:	48 89 5d f0          	mov    %rbx,-0x10(%rbp)
 2c0:	4c 89 45 e8          	mov    %r8,-0x18(%rbp)
 2c4:	4c 89 6d e0          	mov    %r13,-0x20(%rbp)
 2c8:	4c 89 55 d8          	mov    %r10,-0x28(%rbp)
 2cc:	48 8b 5d 98          	mov    -0x68(%rbp),%rbx
 2d0:	ba 01 00 00 00       	mov    $0x1,%edx
 2d5:	4c 8b 95 58 ff ff ff 	mov    -0xa8(%rbp),%r10
 2dc:	4c 89 de             	mov    %r11,%rsi
 2df:	48 89 f7             	mov    %rsi,%rdi
 2e2:	49 89 f8             	mov    %rdi,%r8
 2e5:	e9 9d 00 00 00       	jmpq   387 <inflate_table+0x387>
 2ea:	48 8d 3d 00 00 00 00 	lea    0x0(%rip),%rdi        # 2f1 <inflate_table+0x2f1>
 2f1:	41 bf 01 01 00 00    	mov    $0x101,%r15d
 2f7:	4c 8d 15 00 00 00 00 	lea    0x0(%rip),%r10        # 2fe <inflate_table+0x2fe>
 2fe:	e9 27 ff ff ff       	jmpq   22a <inflate_table+0x22a>
 303:	81 ff 50 02 00 00    	cmp    $0x250,%edi
 309:	0f 87 b6 00 00 00    	ja     3c5 <inflate_table+0x3c5>
 30f:	48 89 75 88          	mov    %rsi,-0x78(%rbp)
 313:	48 89 5d f0          	mov    %rbx,-0x10(%rbp)
 317:	4c 89 45 e8          	mov    %r8,-0x18(%rbp)
 31b:	4c 89 6d e0          	mov    %r13,-0x20(%rbp)
 31f:	4c 89 55 d8          	mov    %r10,-0x28(%rbp)
 323:	48 8b 5d 98          	mov    -0x68(%rbp),%rbx
 327:	ba 01 00 00 00       	mov    $0x1,%edx
 32c:	4c 8b 95 58 ff ff ff 	mov    -0xa8(%rbp),%r10
 333:	4c 89 de             	mov    %r11,%rsi
 336:	48 89 f7             	mov    %rsi,%rdi
 339:	49 89 f8             	mov    %rdi,%r8
 33c:	eb 49                	jmp    387 <inflate_table+0x387>
 33e:	8d 70 ff             	lea    -0x1(%rax),%esi
 341:	21 fe                	and    %edi,%esi
 343:	8d 3c 30             	lea    (%rax,%rsi,1),%edi
 346:	89 de                	mov    %ebx,%esi
 348:	0f b7 84 75 10 ff ff 	movzwl -0xf0(%rbp,%rsi,2),%eax
 34f:	ff 
 350:	05 ff ff 00 00       	add    $0xffff,%eax
 355:	66 89 84 75 10 ff ff 	mov    %ax,-0xf0(%rbp,%rsi,2)
 35c:	ff 
 35d:	41 83 c0 01          	add    $0x1,%r8d
 361:	66 85 c0             	test   %ax,%ax
 364:	74 70                	je     3d6 <inflate_table+0x3d6>
 366:	48 8b 85 68 ff ff ff 	mov    -0x98(%rbp),%rax
 36d:	48 8b 75 80          	mov    -0x80(%rbp),%rsi
 371:	39 de                	cmp    %ebx,%esi
 373:	0f 82 c3 00 00 00    	jb     43c <inflate_table+0x43c>
 379:	48 8b 4d a8          	mov    -0x58(%rbp),%rcx
 37d:	48 8b b5 78 ff ff ff 	mov    -0x88(%rbp),%rsi
 384:	45 31 db             	xor    %r11d,%r11d
 387:	49 89 dd             	mov    %rbx,%r13
 38a:	41 29 f5             	sub    %esi,%r13d
 38d:	44 88 ad 0d ff ff ff 	mov    %r13b,-0xf3(%rbp)
 394:	4c 89 55 98          	mov    %r10,-0x68(%rbp)
 398:	45 89 c2             	mov    %r8d,%r10d
 39b:	46 0f b7 14 50       	movzwl (%rax,%r10,2),%r10d
 3a0:	41 8d 42 01          	lea    0x1(%r10),%eax
 3a4:	41 39 c7             	cmp    %eax,%r15d
 3a7:	0f 87 c0 00 00 00    	ja     46d <inflate_table+0x46d>
 3ad:	45 39 d7             	cmp    %r10d,%r15d
 3b0:	0f 86 f9 00 00 00    	jbe    4af <inflate_table+0x4af>
 3b6:	4d 89 da             	mov    %r11,%r10
 3b9:	c6 85 0c ff ff ff 60 	movb   $0x60,-0xf4(%rbp)
 3c0:	e9 af 00 00 00       	jmpq   474 <inflate_table+0x474>
 3c5:	4d 89 c4             	mov    %r8,%r12
 3c8:	4d 89 d6             	mov    %r10,%r14
 3cb:	4c 8b 7d d0          	mov    -0x30(%rbp),%r15
 3cf:	b8 01 00 00 00       	mov    $0x1,%eax
 3d4:	c9                   	leaveq 
 3d5:	c3                   	retq   
 3d6:	41 39 da             	cmp    %ebx,%r10d
 3d9:	0f 85 e8 00 00 00    	jne    4c7 <inflate_table+0x4c7>
 3df:	85 ff                	test   %edi,%edi
 3e1:	74 26                	je     409 <inflate_table+0x409>
 3e3:	c6 85 0c ff ff ff 40 	movb   $0x40,-0xf4(%rbp)
 3ea:	48 8b 45 b0          	mov    -0x50(%rbp),%rax
 3ee:	88 85 0d ff ff ff    	mov    %al,-0xf3(%rbp)
 3f4:	66 c7 85 0e ff ff ff 	movw   $0x0,-0xf2(%rbp)
 3fb:	00 00 
 3fd:	8b 8d 0c ff ff ff    	mov    -0xf4(%rbp),%ecx
 403:	89 f8                	mov    %edi,%eax
 405:	41 89 0c 81          	mov    %ecx,(%r9,%rax,4)
 409:	44 89 e8             	mov    %r13d,%eax
 40c:	48 c1 e0 02          	shl    $0x2,%rax
 410:	48 8b 4d a0          	mov    -0x60(%rbp),%rcx
 414:	48 03 01             	add    (%rcx),%rax
 417:	48 89 01             	mov    %rax,(%rcx)
 41a:	48 8b 4d 80          	mov    -0x80(%rbp),%rcx
 41e:	48 8b 45 f8          	mov    -0x8(%rbp),%rax
 422:	89 08                	mov    %ecx,(%rax)
 424:	4c 8b 75 d8          	mov    -0x28(%rbp),%r14
 428:	4c 8b 6d e0          	mov    -0x20(%rbp),%r13
 42c:	4c 8b 65 e8          	mov    -0x18(%rbp),%r12
 430:	48 8b 5d f0          	mov    -0x10(%rbp),%rbx
 434:	31 c0                	xor    %eax,%eax
 436:	4c 8b 7d d0          	mov    -0x30(%rbp),%r15
 43a:	c9                   	leaveq 
 43b:	c3                   	retq   
 43c:	4c 89 5d b0          	mov    %r11,-0x50(%rbp)
 440:	4c 8b 9d 50 ff ff ff 	mov    -0xb0(%rbp),%r11
 447:	41 21 fb             	and    %edi,%r11d
 44a:	4c 89 9d 58 ff ff ff 	mov    %r11,-0xa8(%rbp)
 451:	41 39 cb             	cmp    %ecx,%r11d
 454:	0f 85 8b 00 00 00    	jne    4e5 <inflate_table+0x4e5>
 45a:	48 8b 4d a8          	mov    -0x58(%rbp),%rcx
 45e:	48 8b b5 78 ff ff ff 	mov    -0x88(%rbp),%rsi
 465:	45 31 db             	xor    %r11d,%r11d
 468:	e9 1a ff ff ff       	jmpq   387 <inflate_table+0x387>
 46d:	c6 85 0c ff ff ff 00 	movb   $0x0,-0xf4(%rbp)
 474:	49 89 d3             	mov    %rdx,%r11
 477:	41 d3 e3             	shl    %cl,%r11d
 47a:	48 89 4d a8          	mov    %rcx,-0x58(%rbp)
 47e:	4c 89 e9             	mov    %r13,%rcx
 481:	48 89 d0             	mov    %rdx,%rax
 484:	d3 e0                	shl    %cl,%eax
 486:	48 89 4d b0          	mov    %rcx,-0x50(%rbp)
 48a:	48 89 f1             	mov    %rsi,%rcx
 48d:	49 89 fe             	mov    %rdi,%r14
 490:	41 d3 ee             	shr    %cl,%r14d
 493:	48 89 8d 78 ff ff ff 	mov    %rcx,-0x88(%rbp)
 49a:	66 44 89 95 0e ff ff 	mov    %r10w,-0xf2(%rbp)
 4a1:	ff 
 4a2:	4c 8b 6d 90          	mov    -0x70(%rbp),%r13
 4a6:	4c 8b 55 98          	mov    -0x68(%rbp),%r10
 4aa:	4c 89 d9             	mov    %r11,%rcx
 4ad:	eb 57                	jmp    506 <inflate_table+0x506>
 4af:	45 29 fa             	sub    %r15d,%r10d
 4b2:	44 89 d0             	mov    %r10d,%eax
 4b5:	45 0f b7 14 44       	movzwl (%r12,%rax,2),%r10d
 4ba:	41 0f b6 04 46       	movzbl (%r14,%rax,2),%eax
 4bf:	88 85 0c ff ff ff    	mov    %al,-0xf4(%rbp)
 4c5:	eb ad                	jmp    474 <inflate_table+0x474>
 4c7:	44 89 c6             	mov    %r8d,%esi
 4ca:	48 8b 85 68 ff ff ff 	mov    -0x98(%rbp),%rax
 4d1:	0f b7 34 70          	movzwl (%rax,%rsi,2),%esi
 4d5:	48 8b 9d 70 ff ff ff 	mov    -0x90(%rbp),%rbx
 4dc:	0f b7 1c 73          	movzwl (%rbx,%rsi,2),%ebx
 4e0:	e9 88 fe ff ff       	jmpq   36d <inflate_table+0x36d>
 4e5:	48 8b 8d 78 ff ff ff 	mov    -0x88(%rbp),%rcx
 4ec:	85 c9                	test   %ecx,%ecx
 4ee:	74 03                	je     4f3 <inflate_table+0x4f3>
 4f0:	48 89 ce             	mov    %rcx,%rsi
 4f3:	48 89 d9             	mov    %rbx,%rcx
 4f6:	29 f1                	sub    %esi,%ecx
 4f8:	d3 e2                	shl    %cl,%edx
 4fa:	48 89 9d 60 ff ff ff 	mov    %rbx,-0xa0(%rbp)
 501:	eb 53                	jmp    556 <inflate_table+0x556>
 503:	48 89 f1             	mov    %rsi,%rcx
 506:	48 89 ce             	mov    %rcx,%rsi
 509:	29 c6                	sub    %eax,%esi
 50b:	46 8d 24 36          	lea    (%rsi,%r14,1),%r12d
 50f:	45 89 e4             	mov    %r12d,%r12d
 512:	44 8b bd 0c ff ff ff 	mov    -0xf4(%rbp),%r15d
 519:	47 89 3c a1          	mov    %r15d,(%r9,%r12,4)
 51d:	39 c1                	cmp    %eax,%ecx
 51f:	75 e2                	jne    503 <inflate_table+0x503>
 521:	8d 4b 1f             	lea    0x1f(%rbx),%ecx
 524:	48 89 d0             	mov    %rdx,%rax
 527:	d3 e0                	shl    %cl,%eax
 529:	4c 8b 65 c0          	mov    -0x40(%rbp),%r12
 52d:	4c 8b 7d b8          	mov    -0x48(%rbp),%r15
 531:	4c 8b 75 c8          	mov    -0x38(%rbp),%r14
 535:	48 8b 8d 60 ff ff ff 	mov    -0xa0(%rbp),%rcx
 53c:	e9 b5 00 00 00       	jmpq   5f6 <inflate_table+0x5f6>
 541:	89 db                	mov    %ebx,%ebx
 543:	0f b7 9c 5d 10 ff ff 	movzwl -0xf0(%rbp,%rbx,2),%ebx
 54a:	ff 
 54b:	29 da                	sub    %ebx,%edx
 54d:	85 d2                	test   %edx,%edx
 54f:	7e 0d                	jle    55e <inflate_table+0x55e>
 551:	83 c1 01             	add    $0x1,%ecx
 554:	01 d2                	add    %edx,%edx
 556:	8d 1c 31             	lea    (%rcx,%rsi,1),%ebx
 559:	41 39 da             	cmp    %ebx,%r10d
 55c:	77 e3                	ja     541 <inflate_table+0x541>
 55e:	ba 01 00 00 00       	mov    $0x1,%edx
 563:	48 89 d3             	mov    %rdx,%rbx
 566:	d3 e3                	shl    %cl,%ebx
 568:	4c 8b 55 88          	mov    -0x78(%rbp),%r10
 56c:	41 83 fa 01          	cmp    $0x1,%r10d
 570:	41 8d 5c 1d 00       	lea    0x0(%r13,%rbx,1),%ebx
 575:	48 89 5d 90          	mov    %rbx,-0x70(%rbp)
 579:	75 0c                	jne    587 <inflate_table+0x587>
 57b:	81 fb 54 03 00 00    	cmp    $0x354,%ebx
 581:	0f 87 87 00 00 00    	ja     60e <inflate_table+0x60e>
 587:	41 83 fa 02          	cmp    $0x2,%r10d
 58b:	0f 84 96 00 00 00    	je     627 <inflate_table+0x627>
 591:	4c 89 55 88          	mov    %r10,-0x78(%rbp)
 595:	48 8b 55 a0          	mov    -0x60(%rbp),%rdx
 599:	48 8b 1a             	mov    (%rdx),%rbx
 59c:	45 89 db             	mov    %r11d,%r11d
 59f:	42 88 0c 9b          	mov    %cl,(%rbx,%r11,4)
 5a3:	4c 8b 12             	mov    (%rdx),%r10
 5a6:	48 8b 5d 80          	mov    -0x80(%rbp),%rbx
 5aa:	43 88 5c 9a 01       	mov    %bl,0x1(%r10,%r11,4)
 5af:	48 8b 5d b0          	mov    -0x50(%rbp),%rbx
 5b3:	89 db                	mov    %ebx,%ebx
 5b5:	4d 8d 0c 99          	lea    (%r9,%rbx,4),%r9
 5b9:	48 8b 1a             	mov    (%rdx),%rbx
 5bc:	4c 89 ca             	mov    %r9,%rdx
 5bf:	48 29 da             	sub    %rbx,%rdx
 5c2:	48 c1 fa 02          	sar    $0x2,%rdx
 5c6:	66 42 89 54 9b 02    	mov    %dx,0x2(%rbx,%r11,4)
 5cc:	48 8b 9d 60 ff ff ff 	mov    -0xa0(%rbp),%rbx
 5d3:	4c 8b 75 c8          	mov    -0x38(%rbp),%r14
 5d7:	45 31 db             	xor    %r11d,%r11d
 5da:	ba 01 00 00 00       	mov    $0x1,%edx
 5df:	4c 8b 55 98          	mov    -0x68(%rbp),%r10
 5e3:	ff b5 58 ff ff ff    	pushq  -0xa8(%rbp)
 5e9:	8f 85 60 ff ff ff    	popq   -0xa0(%rbp)
 5ef:	e9 93 fd ff ff       	jmpq   387 <inflate_table+0x387>
 5f4:	d1 e8                	shr    %eax
 5f6:	48 89 c6             	mov    %rax,%rsi
 5f9:	21 fe                	and    %edi,%esi
 5fb:	85 f6                	test   %esi,%esi
 5fd:	75 f5                	jne    5f4 <inflate_table+0x5f4>
 5ff:	85 c0                	test   %eax,%eax
 601:	0f 85 37 fd ff ff    	jne    33e <inflate_table+0x33e>
 607:	31 ff                	xor    %edi,%edi
 609:	e9 38 fd ff ff       	jmpq   346 <inflate_table+0x346>
 60e:	48 89 d0             	mov    %rdx,%rax
 611:	4c 8b 75 d8          	mov    -0x28(%rbp),%r14
 615:	4c 8b 6d e0          	mov    -0x20(%rbp),%r13
 619:	4c 8b 65 e8          	mov    -0x18(%rbp),%r12
 61d:	48 8b 5d f0          	mov    -0x10(%rbp),%rbx
 621:	4c 8b 7d d0          	mov    -0x30(%rbp),%r15
 625:	c9                   	leaveq 
 626:	c3                   	retq   
 627:	81 fb 50 02 00 00    	cmp    $0x250,%ebx
 62d:	0f 86 5e ff ff ff    	jbe    591 <inflate_table+0x591>
 633:	48 89 d0             	mov    %rdx,%rax
 636:	4c 8b 75 d8          	mov    -0x28(%rbp),%r14
 63a:	4c 8b 6d e0          	mov    -0x20(%rbp),%r13
 63e:	4c 8b 65 e8          	mov    -0x18(%rbp),%r12
 642:	48 8b 5d f0          	mov    -0x10(%rbp),%rbx
 646:	4c 8b 7d d0          	mov    -0x30(%rbp),%r15
 64a:	c9                   	leaveq 
 64b:	c3                   	retq   

trees.o:     file format elf64-x86-64


Disassembly of section .text:

0000000000000000 <_tr_init>:
       0:	55                   	push   %rbp
       1:	48 89 e5             	mov    %rsp,%rbp
       4:	48 8d 87 d4 00 00 00 	lea    0xd4(%rdi),%rax
       b:	48 89 87 58 0b 00 00 	mov    %rax,0xb58(%rdi)
      12:	48 8d 05 00 00 00 00 	lea    0x0(%rip),%rax        # 19 <_tr_init+0x19>
      19:	48 89 87 68 0b 00 00 	mov    %rax,0xb68(%rdi)
      20:	48 8d 87 c8 09 00 00 	lea    0x9c8(%rdi),%rax
      27:	48 89 87 70 0b 00 00 	mov    %rax,0xb70(%rdi)
      2e:	48 8d 05 00 00 00 00 	lea    0x0(%rip),%rax        # 35 <_tr_init+0x35>
      35:	48 89 87 80 0b 00 00 	mov    %rax,0xb80(%rdi)
      3c:	48 8d 87 bc 0a 00 00 	lea    0xabc(%rdi),%rax
      43:	48 89 87 88 0b 00 00 	mov    %rax,0xb88(%rdi)
      4a:	48 8d 05 00 00 00 00 	lea    0x0(%rip),%rax        # 51 <_tr_init+0x51>
      51:	48 89 87 98 0b 00 00 	mov    %rax,0xb98(%rdi)
      58:	66 c7 87 30 17 00 00 	movw   $0x0,0x1730(%rdi)
      5f:	00 00 
      61:	c7 87 34 17 00 00 00 	movl   $0x0,0x1734(%rdi)
      68:	00 00 00 
      6b:	e8 a0 06 00 00       	callq  710 <init_block>
      70:	c9                   	leaveq 
      71:	c3                   	retq   
      72:	66 66 2e 0f 1f 84 00 	data16 nopw %cs:0x0(%rax,%rax,1)
      79:	00 00 00 00 
      7d:	0f 1f 00             	nopl   (%rax)

0000000000000080 <_tr_tally>:
      80:	55                   	push   %rbp
      81:	48 89 e5             	mov    %rsp,%rbp
      84:	48 8b 8f 10 17 00 00 	mov    0x1710(%rdi),%rcx
      8b:	8b 87 0c 17 00 00    	mov    0x170c(%rdi),%eax
      91:	66 89 34 41          	mov    %si,(%rcx,%rax,2)
      95:	8b 8f 0c 17 00 00    	mov    0x170c(%rdi),%ecx
      9b:	8d 41 01             	lea    0x1(%rcx),%eax
      9e:	89 87 0c 17 00 00    	mov    %eax,0x170c(%rdi)
      a4:	48 8b 87 00 17 00 00 	mov    0x1700(%rdi),%rax
      ab:	88 14 01             	mov    %dl,(%rcx,%rax,1)
      ae:	85 f6                	test   %esi,%esi
      b0:	74 59                	je     10b <_tr_tally+0x8b>
      b2:	8b 87 28 17 00 00    	mov    0x1728(%rdi),%eax
      b8:	83 c0 01             	add    $0x1,%eax
      bb:	89 87 28 17 00 00    	mov    %eax,0x1728(%rdi)
      c1:	4c 8b 05 00 00 00 00 	mov    0x0(%rip),%r8        # c8 <_tr_tally+0x48>
      c8:	89 d1                	mov    %edx,%ecx
      ca:	48 8b 05 00 00 00 00 	mov    0x0(%rip),%rax        # d1 <_tr_tally+0x51>
      d1:	0f b6 04 01          	movzbl (%rcx,%rax,1),%eax
      d5:	05 01 01 00 00       	add    $0x101,%eax
      da:	48 63 c0             	movslq %eax,%rax
      dd:	0f b7 8c 87 d4 00 00 	movzwl 0xd4(%rdi,%rax,4),%ecx
      e4:	00 
      e5:	83 c1 01             	add    $0x1,%ecx
      e8:	66 89 8c 87 d4 00 00 	mov    %cx,0xd4(%rdi,%rax,4)
      ef:	00 
      f0:	8d 46 ff             	lea    -0x1(%rsi),%eax
      f3:	3d ff 00 00 00       	cmp    $0xff,%eax
      f8:	76 3e                	jbe    138 <_tr_tally+0xb8>
      fa:	c1 e8 07             	shr    $0x7,%eax
      fd:	05 00 01 00 00       	add    $0x100,%eax
     102:	89 c0                	mov    %eax,%eax
     104:	42 0f b6 04 00       	movzbl (%rax,%r8,1),%eax
     109:	eb 34                	jmp    13f <_tr_tally+0xbf>
     10b:	89 d1                	mov    %edx,%ecx
     10d:	0f b7 84 8f d4 00 00 	movzwl 0xd4(%rdi,%rcx,4),%eax
     114:	00 
     115:	83 c0 01             	add    $0x1,%eax
     118:	66 89 84 8f d4 00 00 	mov    %ax,0xd4(%rdi,%rcx,4)
     11f:	00 
     120:	8b 87 08 17 00 00    	mov    0x1708(%rdi),%eax
     126:	83 c0 ff             	add    $0xffffffff,%eax
     129:	3b 87 0c 17 00 00    	cmp    0x170c(%rdi),%eax
     12f:	75 26                	jne    157 <_tr_tally+0xd7>
     131:	b8 01 00 00 00       	mov    $0x1,%eax
     136:	c9                   	leaveq 
     137:	c3                   	retq   
     138:	89 c0                	mov    %eax,%eax
     13a:	42 0f b6 04 00       	movzbl (%rax,%r8,1),%eax
     13f:	48 63 c8             	movslq %eax,%rcx
     142:	0f b7 84 8f c8 09 00 	movzwl 0x9c8(%rdi,%rcx,4),%eax
     149:	00 
     14a:	83 c0 01             	add    $0x1,%eax
     14d:	66 89 84 8f c8 09 00 	mov    %ax,0x9c8(%rdi,%rcx,4)
     154:	00 
     155:	eb c9                	jmp    120 <_tr_tally+0xa0>
     157:	31 c0                	xor    %eax,%eax
     159:	c9                   	leaveq 
     15a:	c3                   	retq   
     15b:	0f 1f 44 00 00       	nopl   0x0(%rax,%rax,1)

0000000000000160 <_tr_flush_block>:
     160:	55                   	push   %rbp
     161:	48 89 e5             	mov    %rsp,%rbp
     164:	48 83 ec 30          	sub    $0x30,%rsp
     168:	4c 89 75 e0          	mov    %r14,-0x20(%rbp)
     16c:	4c 89 7d d8          	mov    %r15,-0x28(%rbp)
     170:	48 63 87 c4 00 00 00 	movslq 0xc4(%rdi),%rax
     177:	85 c0                	test   %eax,%eax
     179:	7f 69                	jg     1e4 <_tr_flush_block+0x84>
     17b:	31 c0                	xor    %eax,%eax
     17d:	4c 8d 42 05          	lea    0x5(%rdx),%r8
     181:	4d 89 e6             	mov    %r12,%r14
     184:	49 89 fc             	mov    %rdi,%r12
     187:	4d 89 ef             	mov    %r13,%r15
     18a:	49 89 cd             	mov    %rcx,%r13
     18d:	4c 89 c7             	mov    %r8,%rdi
     190:	48 8d 4a 04          	lea    0x4(%rdx),%rcx
     194:	48 39 cf             	cmp    %rcx,%rdi
     197:	73 72                	jae    20b <_tr_flush_block+0xab>
     199:	ba 10 00 00 00       	mov    $0x10,%edx
     19e:	49 63 8c 24 c8 00 00 	movslq 0xc8(%r12),%rcx
     1a5:	00 
     1a6:	83 f9 04             	cmp    $0x4,%ecx
     1a9:	74 75                	je     220 <_tr_flush_block+0xc0>
     1ab:	4c 39 c7             	cmp    %r8,%rdi
     1ae:	74 70                	je     220 <_tr_flush_block+0xc0>
     1b0:	49 63 8c 24 34 17 00 	movslq 0x1734(%r12),%rcx
     1b7:	00 
     1b8:	83 f9 0d             	cmp    $0xd,%ecx
     1bb:	0f 8f 93 00 00 00    	jg     254 <_tr_flush_block+0xf4>
     1c1:	41 8d 55 04          	lea    0x4(%r13),%edx
     1c5:	d3 e2                	shl    %cl,%edx
     1c7:	41 0f b7 b4 24 30 17 	movzwl 0x1730(%r12),%esi
     1ce:	00 00 
     1d0:	66 09 f2             	or     %si,%dx
     1d3:	66 41 89 94 24 30 17 	mov    %dx,0x1730(%r12)
     1da:	00 00 
     1dc:	83 c1 03             	add    $0x3,%ecx
     1df:	e9 e6 00 00 00       	jmpq   2ca <_tr_flush_block+0x16a>
     1e4:	4c 8b 07             	mov    (%rdi),%r8
     1e7:	49 63 40 58          	movslq 0x58(%r8),%rax
     1eb:	83 f8 02             	cmp    $0x2,%eax
     1ee:	0f 84 1c 01 00 00    	je     310 <_tr_flush_block+0x1b0>
     1f4:	4c 89 e0             	mov    %r12,%rax
     1f7:	49 89 fc             	mov    %rdi,%r12
     1fa:	49 89 f6             	mov    %rsi,%r14
     1fd:	49 89 d7             	mov    %rdx,%r15
     200:	4c 89 ea             	mov    %r13,%rdx
     203:	49 89 cd             	mov    %rcx,%r13
     206:	e9 3a 01 00 00       	jmpq   345 <_tr_flush_block+0x1e5>
     20b:	48 85 f6             	test   %rsi,%rsi
     20e:	74 89                	je     199 <_tr_flush_block+0x39>
     210:	4c 89 e7             	mov    %r12,%rdi
     213:	4c 89 e9             	mov    %r13,%rcx
     216:	e8 00 00 00 00       	callq  21b <_tr_flush_block+0xbb>
     21b:	e9 24 02 00 00       	jmpq   444 <_tr_flush_block+0x2e4>
     220:	49 63 8c 24 34 17 00 	movslq 0x1734(%r12),%rcx
     227:	00 
     228:	83 f9 0d             	cmp    $0xd,%ecx
     22b:	0f 8f 80 01 00 00    	jg     3b1 <_tr_flush_block+0x251>
     231:	41 8d 45 02          	lea    0x2(%r13),%eax
     235:	d3 e0                	shl    %cl,%eax
     237:	41 0f b7 94 24 30 17 	movzwl 0x1730(%r12),%edx
     23e:	00 00 
     240:	66 09 d0             	or     %dx,%ax
     243:	66 41 89 84 24 30 17 	mov    %ax,0x1730(%r12)
     24a:	00 00 
     24c:	8d 41 03             	lea    0x3(%rcx),%eax
     24f:	e9 d2 01 00 00       	jmpq   426 <_tr_flush_block+0x2c6>
     254:	41 8d 75 04          	lea    0x4(%r13),%esi
     258:	48 89 f7             	mov    %rsi,%rdi
     25b:	d3 e7                	shl    %cl,%edi
     25d:	41 0f b7 8c 24 30 17 	movzwl 0x1730(%r12),%ecx
     264:	00 00 
     266:	66 09 cf             	or     %cx,%di
     269:	66 41 89 bc 24 30 17 	mov    %di,0x1730(%r12)
     270:	00 00 
     272:	4d 8b 44 24 28       	mov    0x28(%r12),%r8
     277:	49 8d 48 01          	lea    0x1(%r8),%rcx
     27b:	49 89 4c 24 28       	mov    %rcx,0x28(%r12)
     280:	49 8b 4c 24 10       	mov    0x10(%r12),%rcx
     285:	41 88 3c 08          	mov    %dil,(%r8,%rcx,1)
     289:	4d 8b 44 24 28       	mov    0x28(%r12),%r8
     28e:	49 8d 48 01          	lea    0x1(%r8),%rcx
     292:	49 89 4c 24 28       	mov    %rcx,0x28(%r12)
     297:	41 0f b7 8c 24 30 17 	movzwl 0x1730(%r12),%ecx
     29e:	00 00 
     2a0:	c1 e9 08             	shr    $0x8,%ecx
     2a3:	49 8b 7c 24 10       	mov    0x10(%r12),%rdi
     2a8:	41 88 0c 38          	mov    %cl,(%r8,%rdi,1)
     2ac:	49 63 bc 24 34 17 00 	movslq 0x1734(%r12),%rdi
     2b3:	00 
     2b4:	29 fa                	sub    %edi,%edx
     2b6:	0f b7 f6             	movzwl %si,%esi
     2b9:	48 89 d1             	mov    %rdx,%rcx
     2bc:	d3 ee                	shr    %cl,%esi
     2be:	66 41 89 b4 24 30 17 	mov    %si,0x1730(%r12)
     2c5:	00 00 
     2c7:	8d 4f f3             	lea    -0xd(%rdi),%ecx
     2ca:	41 89 8c 24 34 17 00 	mov    %ecx,0x1734(%r12)
     2d1:	00 
     2d2:	49 63 b4 24 60 0b 00 	movslq 0xb60(%r12),%rsi
     2d9:	00 
     2da:	83 c6 01             	add    $0x1,%esi
     2dd:	49 63 94 24 78 0b 00 	movslq 0xb78(%r12),%rdx
     2e4:	00 
     2e5:	83 c2 01             	add    $0x1,%edx
     2e8:	8d 48 01             	lea    0x1(%rax),%ecx
     2eb:	4c 89 e7             	mov    %r12,%rdi
     2ee:	e8 1d 14 00 00       	callq  1710 <send_all_trees>
     2f3:	49 8d b4 24 d4 00 00 	lea    0xd4(%r12),%rsi
     2fa:	00 
     2fb:	49 8d 94 24 c8 09 00 	lea    0x9c8(%r12),%rdx
     302:	00 
     303:	4c 89 e7             	mov    %r12,%rdi
     306:	e8 f5 16 00 00       	callq  1a00 <compress_block>
     30b:	e9 34 01 00 00       	jmpq   444 <_tr_flush_block+0x2e4>
     310:	48 89 f8             	mov    %rdi,%rax
     313:	48 89 5d f8          	mov    %rbx,-0x8(%rbp)
     317:	4c 89 65 f0          	mov    %r12,-0x10(%rbp)
     31b:	4c 89 6d e8          	mov    %r13,-0x18(%rbp)
     31f:	4c 89 c3             	mov    %r8,%rbx
     322:	49 89 fc             	mov    %rdi,%r12
     325:	48 89 c7             	mov    %rax,%rdi
     328:	49 89 cd             	mov    %rcx,%r13
     32b:	49 89 f6             	mov    %rsi,%r14
     32e:	49 89 d7             	mov    %rdx,%r15
     331:	e8 da 1b 00 00       	callq  1f10 <detect_data_type>
     336:	89 43 58             	mov    %eax,0x58(%rbx)
     339:	48 8b 55 e8          	mov    -0x18(%rbp),%rdx
     33d:	48 8b 45 f0          	mov    -0x10(%rbp),%rax
     341:	48 8b 5d f8          	mov    -0x8(%rbp),%rbx
     345:	49 8d b4 24 58 0b 00 	lea    0xb58(%r12),%rsi
     34c:	00 
     34d:	4c 89 e7             	mov    %r12,%rdi
     350:	48 89 45 f0          	mov    %rax,-0x10(%rbp)
     354:	48 89 55 e8          	mov    %rdx,-0x18(%rbp)
     358:	e8 03 08 00 00       	callq  b60 <build_tree>
     35d:	49 8d b4 24 70 0b 00 	lea    0xb70(%r12),%rsi
     364:	00 
     365:	4c 89 e7             	mov    %r12,%rdi
     368:	e8 f3 07 00 00       	callq  b60 <build_tree>
     36d:	4c 89 e7             	mov    %r12,%rdi
     370:	e8 fb 12 00 00       	callq  1670 <build_bl_tree>
     375:	4d 8b 84 24 20 17 00 	mov    0x1720(%r12),%r8
     37c:	00 
     37d:	49 83 c0 0a          	add    $0xa,%r8
     381:	49 c1 e8 03          	shr    $0x3,%r8
     385:	49 8b bc 24 18 17 00 	mov    0x1718(%r12),%rdi
     38c:	00 
     38d:	48 83 c7 0a          	add    $0xa,%rdi
     391:	48 c1 ef 03          	shr    $0x3,%rdi
     395:	49 39 f8             	cmp    %rdi,%r8
     398:	0f 86 c3 00 00 00    	jbe    461 <_tr_flush_block+0x301>
     39e:	4c 89 fa             	mov    %r15,%rdx
     3a1:	4c 89 f6             	mov    %r14,%rsi
     3a4:	4c 8b 7d e8          	mov    -0x18(%rbp),%r15
     3a8:	4c 8b 75 f0          	mov    -0x10(%rbp),%r14
     3ac:	e9 df fd ff ff       	jmpq   190 <_tr_flush_block+0x30>
     3b1:	41 8d 45 02          	lea    0x2(%r13),%eax
     3b5:	48 89 c6             	mov    %rax,%rsi
     3b8:	d3 e6                	shl    %cl,%esi
     3ba:	41 0f b7 8c 24 30 17 	movzwl 0x1730(%r12),%ecx
     3c1:	00 00 
     3c3:	66 09 ce             	or     %cx,%si
     3c6:	66 41 89 b4 24 30 17 	mov    %si,0x1730(%r12)
     3cd:	00 00 
     3cf:	49 8b 7c 24 28       	mov    0x28(%r12),%rdi
     3d4:	48 8d 4f 01          	lea    0x1(%rdi),%rcx
     3d8:	49 89 4c 24 28       	mov    %rcx,0x28(%r12)
     3dd:	49 8b 4c 24 10       	mov    0x10(%r12),%rcx
     3e2:	40 88 34 0f          	mov    %sil,(%rdi,%rcx,1)
     3e6:	49 8b 7c 24 28       	mov    0x28(%r12),%rdi
     3eb:	48 8d 4f 01          	lea    0x1(%rdi),%rcx
     3ef:	49 89 4c 24 28       	mov    %rcx,0x28(%r12)
     3f4:	41 0f b7 8c 24 30 17 	movzwl 0x1730(%r12),%ecx
     3fb:	00 00 
     3fd:	c1 e9 08             	shr    $0x8,%ecx
     400:	49 8b 74 24 10       	mov    0x10(%r12),%rsi
     405:	88 0c 37             	mov    %cl,(%rdi,%rsi,1)
     408:	49 63 b4 24 34 17 00 	movslq 0x1734(%r12),%rsi
     40f:	00 
     410:	29 f2                	sub    %esi,%edx
     412:	0f b7 c0             	movzwl %ax,%eax
     415:	48 89 d1             	mov    %rdx,%rcx
     418:	d3 e8                	shr    %cl,%eax
     41a:	66 41 89 84 24 30 17 	mov    %ax,0x1730(%r12)
     421:	00 00 
     423:	8d 46 f3             	lea    -0xd(%rsi),%eax
     426:	41 89 84 24 34 17 00 	mov    %eax,0x1734(%r12)
     42d:	00 
     42e:	48 8d 35 00 00 00 00 	lea    0x0(%rip),%rsi        # 435 <_tr_flush_block+0x2d5>
     435:	48 8d 15 00 00 00 00 	lea    0x0(%rip),%rdx        # 43c <_tr_flush_block+0x2dc>
     43c:	4c 89 e7             	mov    %r12,%rdi
     43f:	e8 bc 15 00 00       	callq  1a00 <compress_block>
     444:	4c 89 e7             	mov    %r12,%rdi
     447:	e8 c4 02 00 00       	callq  710 <init_block>
     44c:	45 85 ed             	test   %r13d,%r13d
     44f:	75 26                	jne    477 <_tr_flush_block+0x317>
     451:	4d 89 f4             	mov    %r14,%r12
     454:	4d 89 fd             	mov    %r15,%r13
     457:	4c 8b 7d d8          	mov    -0x28(%rbp),%r15
     45b:	4c 8b 75 e0          	mov    -0x20(%rbp),%r14
     45f:	c9                   	leaveq 
     460:	c3                   	retq   
     461:	4c 89 fa             	mov    %r15,%rdx
     464:	4c 89 f6             	mov    %r14,%rsi
     467:	4c 8b 7d e8          	mov    -0x18(%rbp),%r15
     46b:	4c 8b 75 f0          	mov    -0x10(%rbp),%r14
     46f:	4c 89 c7             	mov    %r8,%rdi
     472:	e9 19 fd ff ff       	jmpq   190 <_tr_flush_block+0x30>
     477:	4c 89 e7             	mov    %r12,%rdi
     47a:	e8 61 1b 00 00       	callq  1fe0 <bi_windup>
     47f:	4d 89 f4             	mov    %r14,%r12
     482:	4d 89 fd             	mov    %r15,%r13
     485:	4c 8b 7d d8          	mov    -0x28(%rbp),%r15
     489:	4c 8b 75 e0          	mov    -0x20(%rbp),%r14
     48d:	c9                   	leaveq 
     48e:	c3                   	retq   
     48f:	90                   	nop

0000000000000490 <_tr_flush_bits>:
     490:	55                   	push   %rbp
     491:	48 89 e5             	mov    %rsp,%rbp
     494:	e8 c7 1b 00 00       	callq  2060 <bi_flush>
     499:	c9                   	leaveq 
     49a:	c3                   	retq   
     49b:	0f 1f 44 00 00       	nopl   0x0(%rax,%rax,1)

00000000000004a0 <_tr_align>:
     4a0:	55                   	push   %rbp
     4a1:	48 89 e5             	mov    %rsp,%rbp
     4a4:	b8 02 00 00 00       	mov    $0x2,%eax
     4a9:	48 63 8f 34 17 00 00 	movslq 0x1734(%rdi),%rcx
     4b0:	83 f9 0d             	cmp    $0xd,%ecx
     4b3:	7f 18                	jg     4cd <_tr_align+0x2d>
     4b5:	d3 e0                	shl    %cl,%eax
     4b7:	0f b7 97 30 17 00 00 	movzwl 0x1730(%rdi),%edx
     4be:	66 09 d0             	or     %dx,%ax
     4c1:	66 89 87 30 17 00 00 	mov    %ax,0x1730(%rdi)
     4c8:	8d 41 03             	lea    0x3(%rcx),%eax
     4cb:	eb 60                	jmp    52d <_tr_align+0x8d>
     4cd:	48 89 c2             	mov    %rax,%rdx
     4d0:	d3 e2                	shl    %cl,%edx
     4d2:	0f b7 8f 30 17 00 00 	movzwl 0x1730(%rdi),%ecx
     4d9:	66 09 ca             	or     %cx,%dx
     4dc:	66 89 97 30 17 00 00 	mov    %dx,0x1730(%rdi)
     4e3:	48 8b 77 28          	mov    0x28(%rdi),%rsi
     4e7:	48 8d 4e 01          	lea    0x1(%rsi),%rcx
     4eb:	48 89 4f 28          	mov    %rcx,0x28(%rdi)
     4ef:	48 8b 4f 10          	mov    0x10(%rdi),%rcx
     4f3:	88 14 0e             	mov    %dl,(%rsi,%rcx,1)
     4f6:	48 8b 57 28          	mov    0x28(%rdi),%rdx
     4fa:	48 8d 4a 01          	lea    0x1(%rdx),%rcx
     4fe:	48 89 4f 28          	mov    %rcx,0x28(%rdi)
     502:	0f b7 8f 30 17 00 00 	movzwl 0x1730(%rdi),%ecx
     509:	c1 e9 08             	shr    $0x8,%ecx
     50c:	48 8b 77 10          	mov    0x10(%rdi),%rsi
     510:	88 0c 32             	mov    %cl,(%rdx,%rsi,1)
     513:	b9 10 00 00 00       	mov    $0x10,%ecx
     518:	48 63 97 34 17 00 00 	movslq 0x1734(%rdi),%rdx
     51f:	29 d1                	sub    %edx,%ecx
     521:	d3 e8                	shr    %cl,%eax
     523:	66 89 87 30 17 00 00 	mov    %ax,0x1730(%rdi)
     52a:	8d 42 f3             	lea    -0xd(%rdx),%eax
     52d:	89 87 34 17 00 00    	mov    %eax,0x1734(%rdi)
     533:	83 f8 09             	cmp    $0x9,%eax
     536:	7f 05                	jg     53d <_tr_align+0x9d>
     538:	83 c0 07             	add    $0x7,%eax
     53b:	eb 4a                	jmp    587 <_tr_align+0xe7>
     53d:	48 8b 4f 28          	mov    0x28(%rdi),%rcx
     541:	48 8d 41 01          	lea    0x1(%rcx),%rax
     545:	48 89 47 28          	mov    %rax,0x28(%rdi)
     549:	0f b6 97 30 17 00 00 	movzbl 0x1730(%rdi),%edx
     550:	48 8b 47 10          	mov    0x10(%rdi),%rax
     554:	88 14 01             	mov    %dl,(%rcx,%rax,1)
     557:	48 8b 57 28          	mov    0x28(%rdi),%rdx
     55b:	48 8d 42 01          	lea    0x1(%rdx),%rax
     55f:	48 89 47 28          	mov    %rax,0x28(%rdi)
     563:	0f b7 87 30 17 00 00 	movzwl 0x1730(%rdi),%eax
     56a:	c1 e8 08             	shr    $0x8,%eax
     56d:	48 8b 4f 10          	mov    0x10(%rdi),%rcx
     571:	88 04 0a             	mov    %al,(%rdx,%rcx,1)
     574:	66 c7 87 30 17 00 00 	movw   $0x0,0x1730(%rdi)
     57b:	00 00 
     57d:	48 63 87 34 17 00 00 	movslq 0x1734(%rdi),%rax
     584:	83 c0 f7             	add    $0xfffffff7,%eax
     587:	89 87 34 17 00 00    	mov    %eax,0x1734(%rdi)
     58d:	e8 ce 1a 00 00       	callq  2060 <bi_flush>
     592:	c9                   	leaveq 
     593:	c3                   	retq   
     594:	66 66 2e 0f 1f 84 00 	data16 nopw %cs:0x0(%rax,%rax,1)
     59b:	00 00 00 00 
     59f:	90                   	nop

00000000000005a0 <_tr_stored_block>:
     5a0:	55                   	push   %rbp
     5a1:	48 89 e5             	mov    %rsp,%rbp
     5a4:	48 83 ec 20          	sub    $0x20,%rsp
     5a8:	4c 89 6d f8          	mov    %r13,-0x8(%rbp)
     5ac:	4c 89 75 f0          	mov    %r14,-0x10(%rbp)
     5b0:	4c 89 7d e8          	mov    %r15,-0x18(%rbp)
     5b4:	48 63 87 34 17 00 00 	movslq 0x1734(%rdi),%rax
     5bb:	83 f8 0d             	cmp    $0xd,%eax
     5be:	7f 2f                	jg     5ef <_tr_stored_block+0x4f>
     5c0:	4d 89 e5             	mov    %r12,%r13
     5c3:	49 89 dc             	mov    %rbx,%r12
     5c6:	48 89 d3             	mov    %rdx,%rbx
     5c9:	49 89 fe             	mov    %rdi,%r14
     5cc:	48 89 ca             	mov    %rcx,%rdx
     5cf:	48 89 c1             	mov    %rax,%rcx
     5d2:	48 89 d0             	mov    %rdx,%rax
     5d5:	d3 e0                	shl    %cl,%eax
     5d7:	41 0f b7 96 30 17 00 	movzwl 0x1730(%r14),%edx
     5de:	00 
     5df:	66 09 d0             	or     %dx,%ax
     5e2:	66 41 89 86 30 17 00 	mov    %ax,0x1730(%r14)
     5e9:	00 
     5ea:	8d 41 03             	lea    0x3(%rcx),%eax
     5ed:	eb 79                	jmp    668 <_tr_stored_block+0xc8>
     5ef:	4d 89 e5             	mov    %r12,%r13
     5f2:	49 89 dc             	mov    %rbx,%r12
     5f5:	48 89 d3             	mov    %rdx,%rbx
     5f8:	49 89 fe             	mov    %rdi,%r14
     5fb:	48 89 cf             	mov    %rcx,%rdi
     5fe:	48 89 c1             	mov    %rax,%rcx
     601:	48 89 f8             	mov    %rdi,%rax
     604:	d3 e0                	shl    %cl,%eax
     606:	41 0f b7 8e 30 17 00 	movzwl 0x1730(%r14),%ecx
     60d:	00 
     60e:	66 09 c8             	or     %cx,%ax
     611:	66 41 89 86 30 17 00 	mov    %ax,0x1730(%r14)
     618:	00 
     619:	49 8b 56 28          	mov    0x28(%r14),%rdx
     61d:	48 8d 4a 01          	lea    0x1(%rdx),%rcx
     621:	49 89 4e 28          	mov    %rcx,0x28(%r14)
     625:	49 8b 4e 10          	mov    0x10(%r14),%rcx
     629:	88 04 0a             	mov    %al,(%rdx,%rcx,1)
     62c:	49 8b 56 28          	mov    0x28(%r14),%rdx
     630:	48 8d 42 01          	lea    0x1(%rdx),%rax
     634:	49 89 46 28          	mov    %rax,0x28(%r14)
     638:	41 0f b7 86 30 17 00 	movzwl 0x1730(%r14),%eax
     63f:	00 
     640:	c1 e8 08             	shr    $0x8,%eax
     643:	49 8b 4e 10          	mov    0x10(%r14),%rcx
     647:	88 04 0a             	mov    %al,(%rdx,%rcx,1)
     64a:	49 63 96 34 17 00 00 	movslq 0x1734(%r14),%rdx
     651:	b9 10 00 00 00       	mov    $0x10,%ecx
     656:	29 d1                	sub    %edx,%ecx
     658:	0f b7 c7             	movzwl %di,%eax
     65b:	d3 e8                	shr    %cl,%eax
     65d:	66 41 89 86 30 17 00 	mov    %ax,0x1730(%r14)
     664:	00 
     665:	8d 42 f3             	lea    -0xd(%rdx),%eax
     668:	41 89 86 34 17 00 00 	mov    %eax,0x1734(%r14)
     66f:	49 89 f7             	mov    %rsi,%r15
     672:	4c 89 f7             	mov    %r14,%rdi
     675:	e8 66 19 00 00       	callq  1fe0 <bi_windup>
     67a:	49 8b 4e 28          	mov    0x28(%r14),%rcx
     67e:	48 8d 41 01          	lea    0x1(%rcx),%rax
     682:	49 89 46 28          	mov    %rax,0x28(%r14)
     686:	49 8b 46 10          	mov    0x10(%r14),%rax
     68a:	88 1c 01             	mov    %bl,(%rcx,%rax,1)
     68d:	49 8b 56 28          	mov    0x28(%r14),%rdx
     691:	48 8d 42 01          	lea    0x1(%rdx),%rax
     695:	49 89 46 28          	mov    %rax,0x28(%r14)
     699:	0f b7 c3             	movzwl %bx,%eax
     69c:	c1 e8 08             	shr    $0x8,%eax
     69f:	49 8b 4e 10          	mov    0x10(%r14),%rcx
     6a3:	88 04 0a             	mov    %al,(%rdx,%rcx,1)
     6a6:	49 8b 4e 28          	mov    0x28(%r14),%rcx
     6aa:	48 8d 41 01          	lea    0x1(%rcx),%rax
     6ae:	49 89 46 28          	mov    %rax,0x28(%r14)
     6b2:	48 89 da             	mov    %rbx,%rdx
     6b5:	f7 d2                	not    %edx
     6b7:	49 8b 46 10          	mov    0x10(%r14),%rax
     6bb:	88 14 01             	mov    %dl,(%rcx,%rax,1)
     6be:	49 8b 4e 28          	mov    0x28(%r14),%rcx
     6c2:	48 8d 41 01          	lea    0x1(%rcx),%rax
     6c6:	49 89 46 28          	mov    %rax,0x28(%r14)
     6ca:	0f b7 c2             	movzwl %dx,%eax
     6cd:	c1 e8 08             	shr    $0x8,%eax
     6d0:	49 8b 56 10          	mov    0x10(%r14),%rdx
     6d4:	88 04 11             	mov    %al,(%rcx,%rdx,1)
     6d7:	49 8b 7e 28          	mov    0x28(%r14),%rdi
     6db:	49 03 7e 10          	add    0x10(%r14),%rdi
     6df:	4c 89 fe             	mov    %r15,%rsi
     6e2:	48 89 da             	mov    %rbx,%rdx
     6e5:	e8 00 00 00 00       	callq  6ea <_tr_stored_block+0x14a>
     6ea:	49 03 5e 28          	add    0x28(%r14),%rbx
     6ee:	49 89 5e 28          	mov    %rbx,0x28(%r14)
     6f2:	4c 89 e3             	mov    %r12,%rbx
     6f5:	4d 89 ec             	mov    %r13,%r12
     6f8:	4c 8b 7d e8          	mov    -0x18(%rbp),%r15
     6fc:	4c 8b 75 f0          	mov    -0x10(%rbp),%r14
     700:	4c 8b 6d f8          	mov    -0x8(%rbp),%r13
     704:	c9                   	leaveq 
     705:	c3                   	retq   
     706:	66 2e 0f 1f 84 00 00 	nopw   %cs:0x0(%rax,%rax,1)
     70d:	00 00 00 

0000000000000710 <init_block>:
     710:	55                   	push   %rbp
     711:	48 89 e5             	mov    %rsp,%rbp
     714:	31 c0                	xor    %eax,%eax
     716:	48 89 c1             	mov    %rax,%rcx
     719:	eb 10                	jmp    72b <init_block+0x1b>
     71b:	48 63 d1             	movslq %ecx,%rdx
     71e:	66 c7 84 97 d4 00 00 	movw   $0x0,0xd4(%rdi,%rdx,4)
     725:	00 00 00 
     728:	83 c1 01             	add    $0x1,%ecx
     72b:	81 f9 1d 01 00 00    	cmp    $0x11d,%ecx
     731:	7e e8                	jle    71b <init_block+0xb>
     733:	48 89 c1             	mov    %rax,%rcx
     736:	eb 10                	jmp    748 <init_block+0x38>
     738:	48 63 d1             	movslq %ecx,%rdx
     73b:	66 c7 84 97 c8 09 00 	movw   $0x0,0x9c8(%rdi,%rdx,4)
     742:	00 00 00 
     745:	83 c1 01             	add    $0x1,%ecx
     748:	83 f9 1d             	cmp    $0x1d,%ecx
     74b:	7e eb                	jle    738 <init_block+0x28>
     74d:	eb 10                	jmp    75f <init_block+0x4f>
     74f:	48 63 c8             	movslq %eax,%rcx
     752:	66 c7 84 8f bc 0a 00 	movw   $0x0,0xabc(%rdi,%rcx,4)
     759:	00 00 00 
     75c:	83 c0 01             	add    $0x1,%eax
     75f:	83 f8 12             	cmp    $0x12,%eax
     762:	7e eb                	jle    74f <init_block+0x3f>
     764:	66 c7 87 d4 04 00 00 	movw   $0x1,0x4d4(%rdi)
     76b:	01 00 
     76d:	48 c7 87 20 17 00 00 	movq   $0x0,0x1720(%rdi)
     774:	00 00 00 00 
     778:	48 c7 87 18 17 00 00 	movq   $0x0,0x1718(%rdi)
     77f:	00 00 00 00 
     783:	c7 87 28 17 00 00 00 	movl   $0x0,0x1728(%rdi)
     78a:	00 00 00 
     78d:	c7 87 0c 17 00 00 00 	movl   $0x0,0x170c(%rdi)
     794:	00 00 00 
     797:	c9                   	leaveq 
     798:	c3                   	retq   
     799:	0f 1f 80 00 00 00 00 	nopl   0x0(%rax)

00000000000007a0 <pqdownheap>:
     7a0:	55                   	push   %rbp
     7a1:	48 89 e5             	mov    %rsp,%rbp
     7a4:	48 83 ec 10          	sub    $0x10,%rsp
     7a8:	4c 89 7d f8          	mov    %r15,-0x8(%rbp)
     7ac:	48 63 c2             	movslq %edx,%rax
     7af:	4c 63 9c 87 c0 0b 00 	movslq 0xbc0(%rdi,%rax,4),%r11
     7b6:	00 
     7b7:	8d 04 12             	lea    (%rdx,%rdx,1),%eax
     7ba:	eb 4f                	jmp    80b <pqdownheap+0x6b>
     7bc:	39 c8                	cmp    %ecx,%eax
     7be:	7c 67                	jl     827 <pqdownheap+0x87>
     7c0:	48 89 c2             	mov    %rax,%rdx
     7c3:	4c 63 ca             	movslq %edx,%r9
     7c6:	4e 63 84 8f c0 0b 00 	movslq 0xbc0(%rdi,%r9,4),%r8
     7cd:	00 
     7ce:	42 0f b7 0c 86       	movzwl (%rsi,%r8,4),%ecx
     7d3:	42 0f b7 04 9e       	movzwl (%rsi,%r11,4),%eax
     7d8:	66 39 c1             	cmp    %ax,%cx
     7db:	77 3c                	ja     819 <pqdownheap+0x79>
     7dd:	66 39 c1             	cmp    %ax,%cx
     7e0:	75 16                	jne    7f8 <pqdownheap+0x58>
     7e2:	42 0f b6 8c 07 bc 14 	movzbl 0x14bc(%rdi,%r8,1),%ecx
     7e9:	00 00 
     7eb:	42 0f b6 84 1f bc 14 	movzbl 0x14bc(%rdi,%r11,1),%eax
     7f2:	00 00 
     7f4:	38 c1                	cmp    %al,%cl
     7f6:	73 21                	jae    819 <pqdownheap+0x79>
     7f8:	4a 63 84 8f c0 0b 00 	movslq 0xbc0(%rdi,%r9,4),%rax
     7ff:	00 
     800:	42 89 84 97 c0 0b 00 	mov    %eax,0xbc0(%rdi,%r10,4)
     807:	00 
     808:	8d 04 12             	lea    (%rdx,%rdx,1),%eax
     80b:	4c 63 d2             	movslq %edx,%r10
     80e:	48 63 8f b4 14 00 00 	movslq 0x14b4(%rdi),%rcx
     815:	39 c8                	cmp    %ecx,%eax
     817:	7e a3                	jle    7bc <pqdownheap+0x1c>
     819:	46 89 9c 97 c0 0b 00 	mov    %r11d,0xbc0(%rdi,%r10,4)
     820:	00 
     821:	4c 8b 7d f8          	mov    -0x8(%rbp),%r15
     825:	c9                   	leaveq 
     826:	c3                   	retq   
     827:	48 63 c8             	movslq %eax,%rcx
     82a:	48 63 8c 8f c0 0b 00 	movslq 0xbc0(%rdi,%rcx,4),%rcx
     831:	00 
     832:	44 0f b7 0c 8e       	movzwl (%rsi,%rcx,4),%r9d
     837:	8d 50 01             	lea    0x1(%rax),%edx
     83a:	4c 63 c2             	movslq %edx,%r8
     83d:	4e 63 84 87 c0 0b 00 	movslq 0xbc0(%rdi,%r8,4),%r8
     844:	00 
     845:	46 0f b7 3c 86       	movzwl (%rsi,%r8,4),%r15d
     84a:	66 45 39 f9          	cmp    %r15w,%r9w
     84e:	0f 87 6f ff ff ff    	ja     7c3 <pqdownheap+0x23>
     854:	66 45 39 f9          	cmp    %r15w,%r9w
     858:	74 08                	je     862 <pqdownheap+0xc2>
     85a:	48 89 c2             	mov    %rax,%rdx
     85d:	e9 61 ff ff ff       	jmpq   7c3 <pqdownheap+0x23>
     862:	0f b6 8c 0f bc 14 00 	movzbl 0x14bc(%rdi,%rcx,1),%ecx
     869:	00 
     86a:	46 0f b6 84 07 bc 14 	movzbl 0x14bc(%rdi,%r8,1),%r8d
     871:	00 00 
     873:	44 38 c1             	cmp    %r8b,%cl
     876:	0f 83 47 ff ff ff    	jae    7c3 <pqdownheap+0x23>
     87c:	48 89 c2             	mov    %rax,%rdx
     87f:	e9 3f ff ff ff       	jmpq   7c3 <pqdownheap+0x23>
     884:	66 66 2e 0f 1f 84 00 	data16 nopw %cs:0x0(%rax,%rax,1)
     88b:	00 00 00 00 
     88f:	90                   	nop

0000000000000890 <gen_bitlen>:
     890:	55                   	push   %rbp
     891:	48 89 e5             	mov    %rsp,%rbp
     894:	48 83 ec 30          	sub    $0x30,%rsp
     898:	4c 8b 0e             	mov    (%rsi),%r9
     89b:	48 8b 46 10          	mov    0x10(%rsi),%rax
     89f:	4c 63 40 18          	movslq 0x18(%rax),%r8
     8a3:	48 63 4e 08          	movslq 0x8(%rsi),%rcx
     8a7:	48 89 4d d0          	mov    %rcx,-0x30(%rbp)
     8ab:	4c 8b 18             	mov    (%rax),%r11
     8ae:	48 8b 70 08          	mov    0x8(%rax),%rsi
     8b2:	48 63 50 10          	movslq 0x10(%rax),%rdx
     8b6:	45 31 d2             	xor    %r10d,%r10d
     8b9:	4c 89 d0             	mov    %r10,%rax
     8bc:	eb 10                	jmp    8ce <gen_bitlen+0x3e>
     8be:	48 63 c8             	movslq %eax,%rcx
     8c1:	66 c7 84 4f a0 0b 00 	movw   $0x0,0xba0(%rdi,%rcx,2)
     8c8:	00 00 00 
     8cb:	83 c0 01             	add    $0x1,%eax
     8ce:	83 f8 0f             	cmp    $0xf,%eax
     8d1:	7e eb                	jle    8be <gen_bitlen+0x2e>
     8d3:	48 63 87 b8 14 00 00 	movslq 0x14b8(%rdi),%rax
     8da:	48 63 84 87 c0 0b 00 	movslq 0xbc0(%rdi,%rax,4),%rax
     8e1:	00 
     8e2:	66 41 c7 44 81 02 00 	movw   $0x0,0x2(%r9,%rax,4)
     8e9:	00 
     8ea:	48 63 87 b8 14 00 00 	movslq 0x14b8(%rdi),%rax
     8f1:	83 c0 01             	add    $0x1,%eax
     8f4:	48 89 5d f8          	mov    %rbx,-0x8(%rbp)
     8f8:	4c 89 65 f0          	mov    %r12,-0x10(%rbp)
     8fc:	4c 89 6d e8          	mov    %r13,-0x18(%rbp)
     900:	4c 89 75 e0          	mov    %r14,-0x20(%rbp)
     904:	4c 89 7d d8          	mov    %r15,-0x28(%rbp)
     908:	4c 8b 7d d0          	mov    -0x30(%rbp),%r15
     90c:	4c 89 d1             	mov    %r10,%rcx
     90f:	eb 4e                	jmp    95f <gen_bitlen+0xcf>
     911:	4d 89 f4             	mov    %r14,%r12
     914:	41 29 d4             	sub    %edx,%r12d
     917:	4d 63 e4             	movslq %r12d,%r12
     91a:	4e 63 2c a6          	movslq (%rsi,%r12,4),%r13
     91e:	47 0f b7 24 b1       	movzwl (%r9,%r14,4),%r12d
     923:	44 01 eb             	add    %r13d,%ebx
     926:	89 db                	mov    %ebx,%ebx
     928:	49 0f af dc          	imul   %r12,%rbx
     92c:	48 03 9f 18 17 00 00 	add    0x1718(%rdi),%rbx
     933:	4d 85 db             	test   %r11,%r11
     936:	48 89 9f 18 17 00 00 	mov    %rbx,0x1718(%rdi)
     93d:	74 1d                	je     95c <gen_bitlen+0xcc>
     93f:	43 0f b7 5c b3 02    	movzwl 0x2(%r11,%r14,4),%ebx
     945:	44 01 eb             	add    %r13d,%ebx
     948:	89 db                	mov    %ebx,%ebx
     94a:	4c 0f af e3          	imul   %rbx,%r12
     94e:	4c 03 a7 20 17 00 00 	add    0x1720(%rdi),%r12
     955:	4c 89 a7 20 17 00 00 	mov    %r12,0x1720(%rdi)
     95c:	83 c0 01             	add    $0x1,%eax
     95f:	3d 3c 02 00 00       	cmp    $0x23c,%eax
     964:	7e 1a                	jle    980 <gen_bitlen+0xf0>
     966:	85 c9                	test   %ecx,%ecx
     968:	75 70                	jne    9da <gen_bitlen+0x14a>
     96a:	4c 8b 7d d8          	mov    -0x28(%rbp),%r15
     96e:	4c 8b 75 e0          	mov    -0x20(%rbp),%r14
     972:	4c 8b 6d e8          	mov    -0x18(%rbp),%r13
     976:	4c 8b 65 f0          	mov    -0x10(%rbp),%r12
     97a:	48 8b 5d f8          	mov    -0x8(%rbp),%rbx
     97e:	c9                   	leaveq 
     97f:	c3                   	retq   
     980:	48 63 d8             	movslq %eax,%rbx
     983:	4c 63 b4 9f c0 0b 00 	movslq 0xbc0(%rdi,%rbx,4),%r14
     98a:	00 
     98b:	43 0f b7 5c b1 02    	movzwl 0x2(%r9,%r14,4),%ebx
     991:	41 0f b7 5c 99 02    	movzwl 0x2(%r9,%rbx,4),%ebx
     997:	83 c3 01             	add    $0x1,%ebx
     99a:	44 39 c3             	cmp    %r8d,%ebx
     99d:	7e 06                	jle    9a5 <gen_bitlen+0x115>
     99f:	83 c1 01             	add    $0x1,%ecx
     9a2:	4c 89 c3             	mov    %r8,%rbx
     9a5:	66 43 89 5c b1 02    	mov    %bx,0x2(%r9,%r14,4)
     9ab:	45 39 fe             	cmp    %r15d,%r14d
     9ae:	7f ac                	jg     95c <gen_bitlen+0xcc>
     9b0:	4c 63 eb             	movslq %ebx,%r13
     9b3:	46 0f b7 a4 6f a0 0b 	movzwl 0xba0(%rdi,%r13,2),%r12d
     9ba:	00 00 
     9bc:	41 83 c4 01          	add    $0x1,%r12d
     9c0:	66 46 89 a4 6f a0 0b 	mov    %r12w,0xba0(%rdi,%r13,2)
     9c7:	00 00 
     9c9:	41 39 d6             	cmp    %edx,%r14d
     9cc:	0f 8d 3f ff ff ff    	jge    911 <gen_bitlen+0x81>
     9d2:	4d 89 d5             	mov    %r10,%r13
     9d5:	e9 44 ff ff ff       	jmpq   91e <gen_bitlen+0x8e>
     9da:	45 8d 50 ff          	lea    -0x1(%r8),%r10d
     9de:	4c 89 d2             	mov    %r10,%rdx
     9e1:	eb 03                	jmp    9e6 <gen_bitlen+0x156>
     9e3:	83 c2 ff             	add    $0xffffffff,%edx
     9e6:	48 63 da             	movslq %edx,%rbx
     9e9:	0f b7 b4 5f a0 0b 00 	movzwl 0xba0(%rdi,%rbx,2),%esi
     9f0:	00 
     9f1:	66 85 f6             	test   %si,%si
     9f4:	74 ed                	je     9e3 <gen_bitlen+0x153>
     9f6:	81 c6 ff ff 00 00    	add    $0xffff,%esi
     9fc:	66 89 b4 5f a0 0b 00 	mov    %si,0xba0(%rdi,%rbx,2)
     a03:	00 
     a04:	83 c2 01             	add    $0x1,%edx
     a07:	48 63 f2             	movslq %edx,%rsi
     a0a:	0f b7 94 77 a0 0b 00 	movzwl 0xba0(%rdi,%rsi,2),%edx
     a11:	00 
     a12:	83 c2 02             	add    $0x2,%edx
     a15:	66 89 94 77 a0 0b 00 	mov    %dx,0xba0(%rdi,%rsi,2)
     a1c:	00 
     a1d:	42 0f b7 94 47 a0 0b 	movzwl 0xba0(%rdi,%r8,2),%edx
     a24:	00 00 
     a26:	81 c2 ff ff 00 00    	add    $0xffff,%edx
     a2c:	66 42 89 94 47 a0 0b 	mov    %dx,0xba0(%rdi,%r8,2)
     a33:	00 00 
     a35:	83 c1 fe             	add    $0xfffffffe,%ecx
     a38:	85 c9                	test   %ecx,%ecx
     a3a:	7e 51                	jle    a8d <gen_bitlen+0x1fd>
     a3c:	4c 89 d2             	mov    %r10,%rdx
     a3f:	eb a5                	jmp    9e6 <gen_bitlen+0x156>
     a41:	83 c0 ff             	add    $0xffffffff,%eax
     a44:	48 63 d0             	movslq %eax,%rdx
     a47:	48 63 9c 97 c0 0b 00 	movslq 0xbc0(%rdi,%rdx,4),%rbx
     a4e:	00 
     a4f:	41 39 df             	cmp    %ebx,%r15d
     a52:	7c 31                	jl     a85 <gen_bitlen+0x1f5>
     a54:	41 0f b7 74 99 02    	movzwl 0x2(%r9,%rbx,4),%esi
     a5a:	44 39 c6             	cmp    %r8d,%esi
     a5d:	74 23                	je     a82 <gen_bitlen+0x1f2>
     a5f:	41 0f b7 14 99       	movzwl (%r9,%rbx,4),%edx
     a64:	48 f7 de             	neg    %rsi
     a67:	4c 01 d6             	add    %r10,%rsi
     a6a:	48 0f af d6          	imul   %rsi,%rdx
     a6e:	48 03 97 18 17 00 00 	add    0x1718(%rdi),%rdx
     a75:	48 89 97 18 17 00 00 	mov    %rdx,0x1718(%rdi)
     a7c:	66 45 89 44 99 02    	mov    %r8w,0x2(%r9,%rbx,4)
     a82:	83 c1 ff             	add    $0xffffffff,%ecx
     a85:	85 c9                	test   %ecx,%ecx
     a87:	75 b8                	jne    a41 <gen_bitlen+0x1b1>
     a89:	41 83 c0 ff          	add    $0xffffffff,%r8d
     a8d:	45 85 c0             	test   %r8d,%r8d
     a90:	75 16                	jne    aa8 <gen_bitlen+0x218>
     a92:	4c 8b 7d d8          	mov    -0x28(%rbp),%r15
     a96:	4c 8b 75 e0          	mov    -0x20(%rbp),%r14
     a9a:	4c 8b 6d e8          	mov    -0x18(%rbp),%r13
     a9e:	4c 8b 65 f0          	mov    -0x10(%rbp),%r12
     aa2:	48 8b 5d f8          	mov    -0x8(%rbp),%rbx
     aa6:	c9                   	leaveq 
     aa7:	c3                   	retq   
     aa8:	4d 63 d0             	movslq %r8d,%r10
     aab:	42 0f b7 8c 57 a0 0b 	movzwl 0xba0(%rdi,%r10,2),%ecx
     ab2:	00 00 
     ab4:	eb cf                	jmp    a85 <gen_bitlen+0x1f5>
     ab6:	66 2e 0f 1f 84 00 00 	nopw   %cs:0x0(%rax,%rax,1)
     abd:	00 00 00 

0000000000000ac0 <gen_codes>:
     ac0:	55                   	push   %rbp
     ac1:	48 89 e5             	mov    %rsp,%rbp
     ac4:	48 83 ec 40          	sub    $0x40,%rsp
     ac8:	45 31 c9             	xor    %r9d,%r9d
     acb:	b8 01 00 00 00       	mov    $0x1,%eax
     ad0:	4c 89 c9             	mov    %r9,%rcx
     ad3:	eb 1d                	jmp    af2 <gen_codes+0x32>
     ad5:	44 8d 40 ff          	lea    -0x1(%rax),%r8d
     ad9:	4d 63 c0             	movslq %r8d,%r8
     adc:	46 0f b7 04 42       	movzwl (%rdx,%r8,2),%r8d
     ae1:	44 01 c1             	add    %r8d,%ecx
     ae4:	01 c9                	add    %ecx,%ecx
     ae6:	4c 63 c0             	movslq %eax,%r8
     ae9:	66 42 89 4c 45 c0    	mov    %cx,-0x40(%rbp,%r8,2)
     aef:	83 c0 01             	add    $0x1,%eax
     af2:	83 f8 0f             	cmp    $0xf,%eax
     af5:	7e de                	jle    ad5 <gen_codes+0x15>
     af7:	4c 89 65 f8          	mov    %r12,-0x8(%rbp)
     afb:	4c 89 6d f0          	mov    %r13,-0x10(%rbp)
     aff:	4c 89 75 e8          	mov    %r14,-0x18(%rbp)
     b03:	4c 89 7d e0          	mov    %r15,-0x20(%rbp)
     b07:	4d 89 cc             	mov    %r9,%r12
     b0a:	49 89 f5             	mov    %rsi,%r13
     b0d:	49 89 fe             	mov    %rdi,%r14
     b10:	eb 29                	jmp    b3b <gen_codes+0x7b>
     b12:	4d 63 fc             	movslq %r12d,%r15
     b15:	43 0f b7 74 be 02    	movzwl 0x2(%r14,%r15,4),%esi
     b1b:	66 85 f6             	test   %si,%si
     b1e:	74 17                	je     b37 <gen_codes+0x77>
     b20:	0f b7 7c 75 c0       	movzwl -0x40(%rbp,%rsi,2),%edi
     b25:	8d 47 01             	lea    0x1(%rdi),%eax
     b28:	66 89 44 75 c0       	mov    %ax,-0x40(%rbp,%rsi,2)
     b2d:	e8 7e 14 00 00       	callq  1fb0 <bi_reverse>
     b32:	66 43 89 04 be       	mov    %ax,(%r14,%r15,4)
     b37:	41 83 c4 01          	add    $0x1,%r12d
     b3b:	45 39 ec             	cmp    %r13d,%r12d
     b3e:	7e d2                	jle    b12 <gen_codes+0x52>
     b40:	4c 8b 7d e0          	mov    -0x20(%rbp),%r15
     b44:	4c 8b 75 e8          	mov    -0x18(%rbp),%r14
     b48:	4c 8b 6d f0          	mov    -0x10(%rbp),%r13
     b4c:	4c 8b 65 f8          	mov    -0x8(%rbp),%r12
     b50:	c9                   	leaveq 
     b51:	c3                   	retq   
     b52:	66 66 2e 0f 1f 84 00 	data16 nopw %cs:0x0(%rax,%rax,1)
     b59:	00 00 00 00 
     b5d:	0f 1f 00             	nopl   (%rax)

0000000000000b60 <build_tree>:
     b60:	55                   	push   %rbp
     b61:	48 89 e5             	mov    %rsp,%rbp
     b64:	48 83 ec 40          	sub    $0x40,%rsp
     b68:	4c 8b 16             	mov    (%rsi),%r10
     b6b:	48 8b 46 10          	mov    0x10(%rsi),%rax
     b6f:	4c 63 58 14          	movslq 0x14(%rax),%r11
     b73:	4c 8b 00             	mov    (%rax),%r8
     b76:	c7 87 b4 14 00 00 00 	movl   $0x0,0x14b4(%rdi)
     b7d:	00 00 00 
     b80:	c7 87 b8 14 00 00 3d 	movl   $0x23d,0x14b8(%rdi)
     b87:	02 00 00 
     b8a:	48 c7 c0 ff ff ff ff 	mov    $0xffffffffffffffff,%rax
     b91:	31 c9                	xor    %ecx,%ecx
     b93:	eb 29                	jmp    bbe <build_tree+0x5e>
     b95:	48 63 87 b4 14 00 00 	movslq 0x14b4(%rdi),%rax
     b9c:	83 c0 01             	add    $0x1,%eax
     b9f:	89 87 b4 14 00 00    	mov    %eax,0x14b4(%rdi)
     ba5:	48 63 c0             	movslq %eax,%rax
     ba8:	89 8c 87 c0 0b 00 00 	mov    %ecx,0xbc0(%rdi,%rax,4)
     baf:	42 c6 84 0f bc 14 00 	movb   $0x0,0x14bc(%rdi,%r9,1)
     bb6:	00 00 
     bb8:	48 89 c8             	mov    %rcx,%rax
     bbb:	83 c1 01             	add    $0x1,%ecx
     bbe:	41 39 cb             	cmp    %ecx,%r11d
     bc1:	7f 05                	jg     bc8 <build_tree+0x68>
     bc3:	45 31 c9             	xor    %r9d,%r9d
     bc6:	eb 67                	jmp    c2f <build_tree+0xcf>
     bc8:	4c 63 c9             	movslq %ecx,%r9
     bcb:	43 0f b7 14 8a       	movzwl (%r10,%r9,4),%edx
     bd0:	66 85 d2             	test   %dx,%dx
     bd3:	75 c0                	jne    b95 <build_tree+0x35>
     bd5:	66 43 c7 44 8a 02 00 	movw   $0x0,0x2(%r10,%r9,4)
     bdc:	00 
     bdd:	eb dc                	jmp    bbb <build_tree+0x5b>
     bdf:	8d 48 01             	lea    0x1(%rax),%ecx
     be2:	48 89 c8             	mov    %rcx,%rax
     be5:	48 63 d2             	movslq %edx,%rdx
     be8:	89 8c 97 c0 0b 00 00 	mov    %ecx,0xbc0(%rdi,%rdx,4)
     bef:	48 63 d1             	movslq %ecx,%rdx
     bf2:	66 41 c7 04 92 01 00 	movw   $0x1,(%r10,%rdx,4)
     bf9:	c6 84 17 bc 14 00 00 	movb   $0x0,0x14bc(%rdi,%rdx,1)
     c00:	00 
     c01:	48 8b 8f 18 17 00 00 	mov    0x1718(%rdi),%rcx
     c08:	48 83 c1 ff          	add    $0xffffffffffffffff,%rcx
     c0c:	4d 85 c0             	test   %r8,%r8
     c0f:	48 89 8f 18 17 00 00 	mov    %rcx,0x1718(%rdi)
     c16:	74 17                	je     c2f <build_tree+0xcf>
     c18:	41 0f b7 54 90 02    	movzwl 0x2(%r8,%rdx,4),%edx
     c1e:	48 8b 8f 20 17 00 00 	mov    0x1720(%rdi),%rcx
     c25:	48 29 d1             	sub    %rdx,%rcx
     c28:	48 89 8f 20 17 00 00 	mov    %rcx,0x1720(%rdi)
     c2f:	48 63 8f b4 14 00 00 	movslq 0x14b4(%rdi),%rcx
     c36:	83 f9 01             	cmp    $0x1,%ecx
     c39:	7e 3a                	jle    c75 <build_tree+0x115>
     c3b:	89 46 08             	mov    %eax,0x8(%rsi)
     c3e:	48 63 97 b4 14 00 00 	movslq 0x14b4(%rdi),%rdx
     c45:	48 89 d1             	mov    %rdx,%rcx
     c48:	c1 e9 1f             	shr    $0x1f,%ecx
     c4b:	01 d1                	add    %edx,%ecx
     c4d:	d1 f9                	sar    %ecx
     c4f:	48 89 5d e8          	mov    %rbx,-0x18(%rbp)
     c53:	4c 89 65 e0          	mov    %r12,-0x20(%rbp)
     c57:	4c 89 6d d8          	mov    %r13,-0x28(%rbp)
     c5b:	4c 89 75 d0          	mov    %r14,-0x30(%rbp)
     c5f:	4c 89 7d c8          	mov    %r15,-0x38(%rbp)
     c63:	4c 89 5d c0          	mov    %r11,-0x40(%rbp)
     c67:	4c 89 d3             	mov    %r10,%rbx
     c6a:	49 89 fc             	mov    %rdi,%r12
     c6d:	49 89 cd             	mov    %rcx,%r13
     c70:	49 89 f7             	mov    %rsi,%r15
     c73:	eb 32                	jmp    ca7 <build_tree+0x147>
     c75:	8d 51 01             	lea    0x1(%rcx),%edx
     c78:	89 97 b4 14 00 00    	mov    %edx,0x14b4(%rdi)
     c7e:	83 f8 01             	cmp    $0x1,%eax
     c81:	0f 8e 58 ff ff ff    	jle    bdf <build_tree+0x7f>
     c87:	4c 89 c9             	mov    %r9,%rcx
     c8a:	e9 56 ff ff ff       	jmpq   be5 <build_tree+0x85>
     c8f:	49 89 c6             	mov    %rax,%r14
     c92:	4c 89 e7             	mov    %r12,%rdi
     c95:	48 89 de             	mov    %rbx,%rsi
     c98:	4c 89 ea             	mov    %r13,%rdx
     c9b:	e8 00 fb ff ff       	callq  7a0 <pqdownheap>
     ca0:	41 83 c5 ff          	add    $0xffffffff,%r13d
     ca4:	4c 89 f0             	mov    %r14,%rax
     ca7:	45 85 ed             	test   %r13d,%r13d
     caa:	7f e3                	jg     c8f <build_tree+0x12f>
     cac:	41 be 01 00 00 00    	mov    $0x1,%r14d
     cb2:	4c 89 7d f0          	mov    %r15,-0x10(%rbp)
     cb6:	48 89 45 f8          	mov    %rax,-0x8(%rbp)
     cba:	4c 8b 6d c0          	mov    -0x40(%rbp),%r13
     cbe:	eb 04                	jmp    cc4 <build_tree+0x164>
     cc0:	41 83 c5 01          	add    $0x1,%r13d
     cc4:	49 63 8c 24 b4 14 00 	movslq 0x14b4(%r12),%rcx
     ccb:	00 
     ccc:	8d 41 ff             	lea    -0x1(%rcx),%eax
     ccf:	41 89 84 24 b4 14 00 	mov    %eax,0x14b4(%r12)
     cd6:	00 
     cd7:	49 63 84 8c c0 0b 00 	movslq 0xbc0(%r12,%rcx,4),%rax
     cde:	00 
     cdf:	4d 63 bc 24 c4 0b 00 	movslq 0xbc4(%r12),%r15
     ce6:	00 
     ce7:	41 89 84 24 c4 0b 00 	mov    %eax,0xbc4(%r12)
     cee:	00 
     cef:	4c 89 e7             	mov    %r12,%rdi
     cf2:	48 89 de             	mov    %rbx,%rsi
     cf5:	4c 89 f2             	mov    %r14,%rdx
     cf8:	e8 a3 fa ff ff       	callq  7a0 <pqdownheap>
     cfd:	49 63 8c 24 b8 14 00 	movslq 0x14b8(%r12),%rcx
     d04:	00 
     d05:	8d 41 ff             	lea    -0x1(%rcx),%eax
     d08:	48 63 c0             	movslq %eax,%rax
     d0b:	83 c1 fe             	add    $0xfffffffe,%ecx
     d0e:	49 63 b4 24 c4 0b 00 	movslq 0xbc4(%r12),%rsi
     d15:	00 
     d16:	45 89 bc 84 c0 0b 00 	mov    %r15d,0xbc0(%r12,%rax,4)
     d1d:	00 
     d1e:	41 89 8c 24 b8 14 00 	mov    %ecx,0x14b8(%r12)
     d25:	00 
     d26:	48 63 c1             	movslq %ecx,%rax
     d29:	41 89 b4 84 c0 0b 00 	mov    %esi,0xbc0(%r12,%rax,4)
     d30:	00 
     d31:	0f b7 0c b3          	movzwl (%rbx,%rsi,4),%ecx
     d35:	42 0f b7 04 bb       	movzwl (%rbx,%r15,4),%eax
     d3a:	01 c8                	add    %ecx,%eax
     d3c:	49 63 d5             	movslq %r13d,%rdx
     d3f:	66 89 04 93          	mov    %ax,(%rbx,%rdx,4)
     d43:	43 0f b6 8c 3c bc 14 	movzbl 0x14bc(%r12,%r15,1),%ecx
     d4a:	00 00 
     d4c:	41 0f b6 84 34 bc 14 	movzbl 0x14bc(%r12,%rsi,1),%eax
     d53:	00 00 
     d55:	38 c8                	cmp    %cl,%al
     d57:	77 03                	ja     d5c <build_tree+0x1fc>
     d59:	48 89 c8             	mov    %rcx,%rax
     d5c:	83 c0 01             	add    $0x1,%eax
     d5f:	41 88 84 14 bc 14 00 	mov    %al,0x14bc(%r12,%rdx,1)
     d66:	00 
     d67:	66 44 89 6c b3 02    	mov    %r13w,0x2(%rbx,%rsi,4)
     d6d:	66 46 89 6c bb 02    	mov    %r13w,0x2(%rbx,%r15,4)
     d73:	45 89 ac 24 c4 0b 00 	mov    %r13d,0xbc4(%r12)
     d7a:	00 
     d7b:	4c 89 e7             	mov    %r12,%rdi
     d7e:	48 89 de             	mov    %rbx,%rsi
     d81:	4c 89 f2             	mov    %r14,%rdx
     d84:	e8 17 fa ff ff       	callq  7a0 <pqdownheap>
     d89:	49 63 84 24 b4 14 00 	movslq 0x14b4(%r12),%rax
     d90:	00 
     d91:	83 f8 01             	cmp    $0x1,%eax
     d94:	0f 8f 26 ff ff ff    	jg     cc0 <build_tree+0x160>
     d9a:	49 63 84 24 b8 14 00 	movslq 0x14b8(%r12),%rax
     da1:	00 
     da2:	83 c0 ff             	add    $0xffffffff,%eax
     da5:	41 89 84 24 b8 14 00 	mov    %eax,0x14b8(%r12)
     dac:	00 
     dad:	49 63 8c 24 c4 0b 00 	movslq 0xbc4(%r12),%rcx
     db4:	00 
     db5:	48 63 c0             	movslq %eax,%rax
     db8:	41 89 8c 84 c0 0b 00 	mov    %ecx,0xbc0(%r12,%rax,4)
     dbf:	00 
     dc0:	4c 89 e7             	mov    %r12,%rdi
     dc3:	48 8b 75 f0          	mov    -0x10(%rbp),%rsi
     dc7:	e8 c4 fa ff ff       	callq  890 <gen_bitlen>
     dcc:	49 8d 94 24 a0 0b 00 	lea    0xba0(%r12),%rdx
     dd3:	00 
     dd4:	48 89 df             	mov    %rbx,%rdi
     dd7:	48 8b 75 f8          	mov    -0x8(%rbp),%rsi
     ddb:	e8 e0 fc ff ff       	callq  ac0 <gen_codes>
     de0:	4c 8b 7d c8          	mov    -0x38(%rbp),%r15
     de4:	4c 8b 75 d0          	mov    -0x30(%rbp),%r14
     de8:	4c 8b 6d d8          	mov    -0x28(%rbp),%r13
     dec:	4c 8b 65 e0          	mov    -0x20(%rbp),%r12
     df0:	48 8b 5d e8          	mov    -0x18(%rbp),%rbx
     df4:	c9                   	leaveq 
     df5:	c3                   	retq   
     df6:	66 2e 0f 1f 84 00 00 	nopw   %cs:0x0(%rax,%rax,1)
     dfd:	00 00 00 

0000000000000e00 <scan_tree>:
     e00:	55                   	push   %rbp
     e01:	48 89 e5             	mov    %rsp,%rbp
     e04:	48 83 ec 30          	sub    $0x30,%rsp
     e08:	4c 89 75 e0          	mov    %r14,-0x20(%rbp)
     e0c:	4c 89 6d e8          	mov    %r13,-0x18(%rbp)
     e10:	4c 89 65 f0          	mov    %r12,-0x10(%rbp)
     e14:	48 89 5d f8          	mov    %rbx,-0x8(%rbp)
     e18:	4c 89 7d d8          	mov    %r15,-0x28(%rbp)
     e1c:	41 bc 03 00 00 00    	mov    $0x3,%r12d
     e22:	bb 04 00 00 00       	mov    $0x4,%ebx
     e27:	41 bd 8a 00 00 00    	mov    $0x8a,%r13d
     e2d:	b9 07 00 00 00       	mov    $0x7,%ecx
     e32:	44 0f b7 46 02       	movzwl 0x2(%rsi),%r8d
     e37:	66 45 85 c0          	test   %r8w,%r8w
     e3b:	75 06                	jne    e43 <scan_tree+0x43>
     e3d:	4c 89 e3             	mov    %r12,%rbx
     e40:	4c 89 e9             	mov    %r13,%rcx
     e43:	8d 42 01             	lea    0x1(%rdx),%eax
     e46:	48 63 c0             	movslq %eax,%rax
     e49:	66 c7 44 86 02 ff ff 	movw   $0xffff,0x2(%rsi,%rax,4)
     e50:	45 31 ff             	xor    %r15d,%r15d
     e53:	49 c7 c1 ff ff ff ff 	mov    $0xffffffffffffffff,%r9
     e5a:	4c 89 f8             	mov    %r15,%rax
     e5d:	49 89 c2             	mov    %rax,%r10
     e60:	eb 2a                	jmp    e8c <scan_tree+0x8c>
     e62:	0f b7 9c 8f bc 0a 00 	movzwl 0xabc(%rdi,%rcx,4),%ebx
     e69:	00 
     e6a:	42 8d 5c 13 01       	lea    0x1(%rbx,%r10,1),%ebx
     e6f:	66 89 9c 8f bc 0a 00 	mov    %bx,0xabc(%rdi,%rcx,4)
     e76:	00 
     e77:	66 45 85 db          	test   %r11w,%r11w
     e7b:	75 29                	jne    ea6 <scan_tree+0xa6>
     e7d:	4d 89 c1             	mov    %r8,%r9
     e80:	4c 89 e3             	mov    %r12,%rbx
     e83:	4c 89 e9             	mov    %r13,%rcx
     e86:	4d 89 f8             	mov    %r15,%r8
     e89:	4d 89 c2             	mov    %r8,%r10
     e8c:	39 d0                	cmp    %edx,%eax
     e8e:	7e 30                	jle    ec0 <scan_tree+0xc0>
     e90:	4c 8b 7d d8          	mov    -0x28(%rbp),%r15
     e94:	48 8b 5d f8          	mov    -0x8(%rbp),%rbx
     e98:	4c 8b 65 f0          	mov    -0x10(%rbp),%r12
     e9c:	4c 8b 6d e8          	mov    -0x18(%rbp),%r13
     ea0:	4c 8b 75 e0          	mov    -0x20(%rbp),%r14
     ea4:	c9                   	leaveq 
     ea5:	c3                   	retq   
     ea6:	45 39 c3             	cmp    %r8d,%r11d
     ea9:	74 37                	je     ee2 <scan_tree+0xe2>
     eab:	4d 89 c1             	mov    %r8,%r9
     eae:	4d 89 d8             	mov    %r11,%r8
     eb1:	b9 07 00 00 00       	mov    $0x7,%ecx
     eb6:	bb 04 00 00 00       	mov    $0x4,%ebx
     ebb:	4d 89 fa             	mov    %r15,%r10
     ebe:	eb cc                	jmp    e8c <scan_tree+0x8c>
     ec0:	83 c0 01             	add    $0x1,%eax
     ec3:	4c 63 d8             	movslq %eax,%r11
     ec6:	46 0f b7 5c 9e 02    	movzwl 0x2(%rsi,%r11,4),%r11d
     ecc:	45 8d 72 01          	lea    0x1(%r10),%r14d
     ed0:	44 39 f1             	cmp    %r14d,%ecx
     ed3:	7e 20                	jle    ef5 <scan_tree+0xf5>
     ed5:	45 39 c3             	cmp    %r8d,%r11d
     ed8:	75 1b                	jne    ef5 <scan_tree+0xf5>
     eda:	4d 89 d8             	mov    %r11,%r8
     edd:	4d 89 f2             	mov    %r14,%r10
     ee0:	eb aa                	jmp    e8c <scan_tree+0x8c>
     ee2:	4d 89 d9             	mov    %r11,%r9
     ee5:	b9 06 00 00 00       	mov    $0x6,%ecx
     eea:	4d 89 c8             	mov    %r9,%r8
     eed:	4c 89 e3             	mov    %r12,%rbx
     ef0:	4d 89 fa             	mov    %r15,%r10
     ef3:	eb 97                	jmp    e8c <scan_tree+0x8c>
     ef5:	49 63 c8             	movslq %r8d,%rcx
     ef8:	41 39 de             	cmp    %ebx,%r14d
     efb:	0f 8c 61 ff ff ff    	jl     e62 <scan_tree+0x62>
     f01:	45 85 c0             	test   %r8d,%r8d
     f04:	7f 1c                	jg     f22 <scan_tree+0x122>
     f06:	41 83 fe 0a          	cmp    $0xa,%r14d
     f0a:	7e 44                	jle    f50 <scan_tree+0x150>
     f0c:	0f b7 8f 04 0b 00 00 	movzwl 0xb04(%rdi),%ecx
     f13:	83 c1 01             	add    $0x1,%ecx
     f16:	66 89 8f 04 0b 00 00 	mov    %cx,0xb04(%rdi)
     f1d:	e9 55 ff ff ff       	jmpq   e77 <scan_tree+0x77>
     f22:	45 39 c8             	cmp    %r9d,%r8d
     f25:	74 13                	je     f3a <scan_tree+0x13a>
     f27:	0f b7 9c 8f bc 0a 00 	movzwl 0xabc(%rdi,%rcx,4),%ebx
     f2e:	00 
     f2f:	83 c3 01             	add    $0x1,%ebx
     f32:	66 89 9c 8f bc 0a 00 	mov    %bx,0xabc(%rdi,%rcx,4)
     f39:	00 
     f3a:	0f b7 8f fc 0a 00 00 	movzwl 0xafc(%rdi),%ecx
     f41:	83 c1 01             	add    $0x1,%ecx
     f44:	66 89 8f fc 0a 00 00 	mov    %cx,0xafc(%rdi)
     f4b:	e9 27 ff ff ff       	jmpq   e77 <scan_tree+0x77>
     f50:	0f b7 8f 00 0b 00 00 	movzwl 0xb00(%rdi),%ecx
     f57:	83 c1 01             	add    $0x1,%ecx
     f5a:	66 89 8f 00 0b 00 00 	mov    %cx,0xb00(%rdi)
     f61:	e9 11 ff ff ff       	jmpq   e77 <scan_tree+0x77>
     f66:	66 2e 0f 1f 84 00 00 	nopw   %cs:0x0(%rax,%rax,1)
     f6d:	00 00 00 

0000000000000f70 <send_tree>:
     f70:	55                   	push   %rbp
     f71:	48 89 e5             	mov    %rsp,%rbp
     f74:	48 83 ec 30          	sub    $0x30,%rsp
     f78:	4c 89 7d d8          	mov    %r15,-0x28(%rbp)
     f7c:	4c 89 75 e0          	mov    %r14,-0x20(%rbp)
     f80:	4c 89 6d e8          	mov    %r13,-0x18(%rbp)
     f84:	48 89 5d f8          	mov    %rbx,-0x8(%rbp)
     f88:	4c 89 65 f0          	mov    %r12,-0x10(%rbp)
     f8c:	41 b9 10 00 00 00    	mov    $0x10,%r9d
     f92:	45 31 c0             	xor    %r8d,%r8d
     f95:	b8 03 00 00 00       	mov    $0x3,%eax
     f9a:	b9 04 00 00 00       	mov    $0x4,%ecx
     f9f:	49 c7 c2 ff ff ff ff 	mov    $0xffffffffffffffff,%r10
     fa6:	bb 8a 00 00 00       	mov    $0x8a,%ebx
     fab:	41 bc 07 00 00 00    	mov    $0x7,%r12d
     fb1:	44 0f b7 6e 02       	movzwl 0x2(%rsi),%r13d
     fb6:	66 45 85 ed          	test   %r13w,%r13w
     fba:	75 14                	jne    fd0 <send_tree+0x60>
     fbc:	49 89 dc             	mov    %rbx,%r12
     fbf:	48 89 c1             	mov    %rax,%rcx
     fc2:	4c 89 c3             	mov    %r8,%rbx
     fc5:	49 89 dd             	mov    %rbx,%r13
     fc8:	4d 89 ee             	mov    %r13,%r14
     fcb:	e9 a7 00 00 00       	jmpq   1077 <send_tree+0x107>
     fd0:	4c 89 c3             	mov    %r8,%rbx
     fd3:	49 89 de             	mov    %rbx,%r14
     fd6:	e9 9c 00 00 00       	jmpq   1077 <send_tree+0x107>
     fdb:	42 0f b7 84 a7 bc 0a 	movzwl 0xabc(%rdi,%r12,4),%eax
     fe2:	00 00 
     fe4:	49 89 c6             	mov    %rax,%r14
     fe7:	41 d3 e6             	shl    %cl,%r14d
     fea:	0f b7 8f 30 17 00 00 	movzwl 0x1730(%rdi),%ecx
     ff1:	66 41 09 ce          	or     %cx,%r14w
     ff5:	66 44 89 b7 30 17 00 	mov    %r14w,0x1730(%rdi)
     ffc:	00 
     ffd:	48 8b 4f 28          	mov    0x28(%rdi),%rcx
    1001:	4c 8d 79 01          	lea    0x1(%rcx),%r15
    1005:	4c 89 7f 28          	mov    %r15,0x28(%rdi)
    1009:	4c 8b 7f 10          	mov    0x10(%rdi),%r15
    100d:	46 88 34 39          	mov    %r14b,(%rcx,%r15,1)
    1011:	4c 8b 7f 28          	mov    0x28(%rdi),%r15
    1015:	49 8d 4f 01          	lea    0x1(%r15),%rcx
    1019:	48 89 4f 28          	mov    %rcx,0x28(%rdi)
    101d:	0f b7 8f 30 17 00 00 	movzwl 0x1730(%rdi),%ecx
    1024:	c1 e9 08             	shr    $0x8,%ecx
    1027:	4c 8b 77 10          	mov    0x10(%rdi),%r14
    102b:	43 88 0c 37          	mov    %cl,(%r15,%r14,1)
    102f:	4c 63 b7 34 17 00 00 	movslq 0x1734(%rdi),%r14
    1036:	4c 89 c9             	mov    %r9,%rcx
    1039:	44 29 f1             	sub    %r14d,%ecx
    103c:	d3 e8                	shr    %cl,%eax
    103e:	43 8d 4c 35 f0       	lea    -0x10(%r13,%r14,1),%ecx
    1043:	89 8f 34 17 00 00    	mov    %ecx,0x1734(%rdi)
    1049:	66 89 87 30 17 00 00 	mov    %ax,0x1730(%rdi)
    1050:	41 83 c3 ff          	add    $0xffffffff,%r11d
    1054:	45 85 db             	test   %r11d,%r11d
    1057:	75 4f                	jne    10a8 <send_tree+0x138>
    1059:	4c 8b 6d d0          	mov    -0x30(%rbp),%r13
    105d:	b8 03 00 00 00       	mov    $0x3,%eax
    1062:	66 45 85 ed          	test   %r13w,%r13w
    1066:	75 7d                	jne    10e5 <send_tree+0x175>
    1068:	41 bc 8a 00 00 00    	mov    $0x8a,%r12d
    106e:	48 89 c1             	mov    %rax,%rcx
    1071:	4d 89 c5             	mov    %r8,%r13
    1074:	4d 89 ee             	mov    %r13,%r14
    1077:	39 d3                	cmp    %edx,%ebx
    1079:	0f 8e 82 00 00 00    	jle    1101 <send_tree+0x191>
    107f:	4c 8b 65 f0          	mov    -0x10(%rbp),%r12
    1083:	48 8b 5d f8          	mov    -0x8(%rbp),%rbx
    1087:	4c 8b 6d e8          	mov    -0x18(%rbp),%r13
    108b:	4c 8b 75 e0          	mov    -0x20(%rbp),%r14
    108f:	4c 8b 7d d8          	mov    -0x28(%rbp),%r15
    1093:	c9                   	leaveq 
    1094:	c3                   	retq   
    1095:	4d 63 e5             	movslq %r13d,%r12
    1098:	41 39 cb             	cmp    %ecx,%r11d
    109b:	0f 8d 8d 00 00 00    	jge    112e <send_tree+0x1be>
    10a1:	4c 89 7d d0          	mov    %r15,-0x30(%rbp)
    10a5:	4d 89 ea             	mov    %r13,%r10
    10a8:	46 0f b7 ac a7 be 0a 	movzwl 0xabe(%rdi,%r12,4),%r13d
    10af:	00 00 
    10b1:	4c 89 c8             	mov    %r9,%rax
    10b4:	44 29 e8             	sub    %r13d,%eax
    10b7:	48 63 8f 34 17 00 00 	movslq 0x1734(%rdi),%rcx
    10be:	39 c8                	cmp    %ecx,%eax
    10c0:	0f 8c 15 ff ff ff    	jl     fdb <send_tree+0x6b>
    10c6:	42 0f b7 84 a7 bc 0a 	movzwl 0xabc(%rdi,%r12,4),%eax
    10cd:	00 00 
    10cf:	d3 e0                	shl    %cl,%eax
    10d1:	44 0f b7 b7 30 17 00 	movzwl 0x1730(%rdi),%r14d
    10d8:	00 
    10d9:	66 44 09 f0          	or     %r14w,%ax
    10dd:	44 01 e9             	add    %r13d,%ecx
    10e0:	e9 5e ff ff ff       	jmpq   1043 <send_tree+0xd3>
    10e5:	45 39 d5             	cmp    %r10d,%r13d
    10e8:	0f 84 92 00 00 00    	je     1180 <send_tree+0x210>
    10ee:	41 bc 07 00 00 00    	mov    $0x7,%r12d
    10f4:	b9 04 00 00 00       	mov    $0x4,%ecx
    10f9:	4d 89 c6             	mov    %r8,%r14
    10fc:	e9 76 ff ff ff       	jmpq   1077 <send_tree+0x107>
    1101:	83 c3 01             	add    $0x1,%ebx
    1104:	4c 63 db             	movslq %ebx,%r11
    1107:	46 0f b7 7c 9e 02    	movzwl 0x2(%rsi,%r11,4),%r15d
    110d:	45 8d 5e 01          	lea    0x1(%r14),%r11d
    1111:	45 39 dc             	cmp    %r11d,%r12d
    1114:	0f 8e 7b ff ff ff    	jle    1095 <send_tree+0x125>
    111a:	45 39 ef             	cmp    %r13d,%r15d
    111d:	0f 85 72 ff ff ff    	jne    1095 <send_tree+0x125>
    1123:	4d 89 fd             	mov    %r15,%r13
    1126:	4d 89 de             	mov    %r11,%r14
    1129:	e9 49 ff ff ff       	jmpq   1077 <send_tree+0x107>
    112e:	45 85 ed             	test   %r13d,%r13d
    1131:	7f 61                	jg     1194 <send_tree+0x224>
    1133:	41 83 fb 0a          	cmp    $0xa,%r11d
    1137:	0f 8e a3 00 00 00    	jle    11e0 <send_tree+0x270>
    113d:	44 0f b7 a7 06 0b 00 	movzwl 0xb06(%rdi),%r12d
    1144:	00 
    1145:	4d 89 ca             	mov    %r9,%r10
    1148:	45 29 e2             	sub    %r12d,%r10d
    114b:	48 63 8f 34 17 00 00 	movslq 0x1734(%rdi),%rcx
    1152:	44 39 d1             	cmp    %r10d,%ecx
    1155:	0f 8f c8 00 00 00    	jg     1223 <send_tree+0x2b3>
    115b:	4d 89 ea             	mov    %r13,%r10
    115e:	4d 89 fd             	mov    %r15,%r13
    1161:	44 0f b7 9f 04 0b 00 	movzwl 0xb04(%rdi),%r11d
    1168:	00 
    1169:	41 d3 e3             	shl    %cl,%r11d
    116c:	44 0f b7 bf 30 17 00 	movzwl 0x1730(%rdi),%r15d
    1173:	00 
    1174:	66 45 09 fb          	or     %r15w,%r11w
    1178:	44 01 e1             	add    %r12d,%ecx
    117b:	e9 12 01 00 00       	jmpq   1292 <send_tree+0x322>
    1180:	41 bc 06 00 00 00    	mov    $0x6,%r12d
    1186:	48 89 c1             	mov    %rax,%rcx
    1189:	4d 89 c6             	mov    %r8,%r14
    118c:	4d 89 ea             	mov    %r13,%r10
    118f:	e9 e3 fe ff ff       	jmpq   1077 <send_tree+0x107>
    1194:	45 39 d5             	cmp    %r10d,%r13d
    1197:	0f 85 30 01 00 00    	jne    12cd <send_tree+0x35d>
    119d:	4d 89 ea             	mov    %r13,%r10
    11a0:	4d 89 fd             	mov    %r15,%r13
    11a3:	44 0f b7 b7 fe 0a 00 	movzwl 0xafe(%rdi),%r14d
    11aa:	00 
    11ab:	4d 89 cc             	mov    %r9,%r12
    11ae:	45 29 f4             	sub    %r14d,%r12d
    11b1:	48 63 8f 34 17 00 00 	movslq 0x1734(%rdi),%rcx
    11b8:	41 39 cc             	cmp    %ecx,%r12d
    11bb:	0f 8c 68 01 00 00    	jl     1329 <send_tree+0x3b9>
    11c1:	44 0f b7 a7 fc 0a 00 	movzwl 0xafc(%rdi),%r12d
    11c8:	00 
    11c9:	41 d3 e4             	shl    %cl,%r12d
    11cc:	44 0f b7 bf 30 17 00 	movzwl 0x1730(%rdi),%r15d
    11d3:	00 
    11d4:	66 45 09 fc          	or     %r15w,%r12w
    11d8:	44 01 f1             	add    %r14d,%ecx
    11db:	e9 b2 01 00 00       	jmpq   1392 <send_tree+0x422>
    11e0:	44 0f b7 a7 02 0b 00 	movzwl 0xb02(%rdi),%r12d
    11e7:	00 
    11e8:	4d 89 ca             	mov    %r9,%r10
    11eb:	45 29 e2             	sub    %r12d,%r10d
    11ee:	48 63 8f 34 17 00 00 	movslq 0x1734(%rdi),%rcx
    11f5:	41 39 ca             	cmp    %ecx,%r10d
    11f8:	0f 8c cf 01 00 00    	jl     13cd <send_tree+0x45d>
    11fe:	4d 89 ea             	mov    %r13,%r10
    1201:	4d 89 fd             	mov    %r15,%r13
    1204:	44 0f b7 9f 00 0b 00 	movzwl 0xb00(%rdi),%r11d
    120b:	00 
    120c:	41 d3 e3             	shl    %cl,%r11d
    120f:	44 0f b7 bf 30 17 00 	movzwl 0x1730(%rdi),%r15d
    1216:	00 
    1217:	66 45 09 fb          	or     %r15w,%r11w
    121b:	44 01 e1             	add    %r12d,%ecx
    121e:	e9 19 02 00 00       	jmpq   143c <send_tree+0x4cc>
    1223:	4d 89 ea             	mov    %r13,%r10
    1226:	4d 89 fd             	mov    %r15,%r13
    1229:	44 0f b7 9f 04 0b 00 	movzwl 0xb04(%rdi),%r11d
    1230:	00 
    1231:	4c 89 d8             	mov    %r11,%rax
    1234:	d3 e0                	shl    %cl,%eax
    1236:	0f b7 8f 30 17 00 00 	movzwl 0x1730(%rdi),%ecx
    123d:	66 09 c8             	or     %cx,%ax
    1240:	66 89 87 30 17 00 00 	mov    %ax,0x1730(%rdi)
    1247:	48 8b 4f 28          	mov    0x28(%rdi),%rcx
    124b:	4c 8d 79 01          	lea    0x1(%rcx),%r15
    124f:	4c 89 7f 28          	mov    %r15,0x28(%rdi)
    1253:	4c 8b 7f 10          	mov    0x10(%rdi),%r15
    1257:	42 88 04 39          	mov    %al,(%rcx,%r15,1)
    125b:	4c 8b 7f 28          	mov    0x28(%rdi),%r15
    125f:	49 8d 47 01          	lea    0x1(%r15),%rax
    1263:	48 89 47 28          	mov    %rax,0x28(%rdi)
    1267:	0f b7 87 30 17 00 00 	movzwl 0x1730(%rdi),%eax
    126e:	c1 e8 08             	shr    $0x8,%eax
    1271:	48 8b 4f 10          	mov    0x10(%rdi),%rcx
    1275:	41 88 04 0f          	mov    %al,(%r15,%rcx,1)
    1279:	48 63 87 34 17 00 00 	movslq 0x1734(%rdi),%rax
    1280:	4c 89 c9             	mov    %r9,%rcx
    1283:	29 c1                	sub    %eax,%ecx
    1285:	41 d3 eb             	shr    %cl,%r11d
    1288:	41 8d 4c 04 f0       	lea    -0x10(%r12,%rax,1),%ecx
    128d:	b8 03 00 00 00       	mov    $0x3,%eax
    1292:	89 8f 34 17 00 00    	mov    %ecx,0x1734(%rdi)
    1298:	66 44 89 9f 30 17 00 	mov    %r11w,0x1730(%rdi)
    129f:	00 
    12a0:	83 f9 09             	cmp    $0x9,%ecx
    12a3:	0f 8f ce 01 00 00    	jg     1477 <send_tree+0x507>
    12a9:	45 8d a6 f6 ff 00 00 	lea    0xfff6(%r14),%r12d
    12b0:	41 d3 e4             	shl    %cl,%r12d
    12b3:	66 45 09 dc          	or     %r11w,%r12w
    12b7:	66 44 89 a7 30 17 00 	mov    %r12w,0x1730(%rdi)
    12be:	00 
    12bf:	83 c1 07             	add    $0x7,%ecx
    12c2:	89 8f 34 17 00 00    	mov    %ecx,0x1734(%rdi)
    12c8:	e9 95 fd ff ff       	jmpq   1062 <send_tree+0xf2>
    12cd:	46 0f b7 94 a7 be 0a 	movzwl 0xabe(%rdi,%r12,4),%r10d
    12d4:	00 00 
    12d6:	4d 89 cb             	mov    %r9,%r11
    12d9:	45 29 d3             	sub    %r10d,%r11d
    12dc:	48 63 8f 34 17 00 00 	movslq 0x1734(%rdi),%rcx
    12e3:	41 39 cb             	cmp    %ecx,%r11d
    12e6:	0f 8c 03 02 00 00    	jl     14ef <send_tree+0x57f>
    12ec:	46 0f b7 9c a7 bc 0a 	movzwl 0xabc(%rdi,%r12,4),%r11d
    12f3:	00 00 
    12f5:	4d 89 ec             	mov    %r13,%r12
    12f8:	4d 89 fd             	mov    %r15,%r13
    12fb:	4d 89 d7             	mov    %r10,%r15
    12fe:	4d 89 e2             	mov    %r12,%r10
    1301:	41 d3 e3             	shl    %cl,%r11d
    1304:	44 0f b7 a7 30 17 00 	movzwl 0x1730(%rdi),%r12d
    130b:	00 
    130c:	66 45 09 e3          	or     %r12w,%r11w
    1310:	66 44 89 9f 30 17 00 	mov    %r11w,0x1730(%rdi)
    1317:	00 
    1318:	44 01 f9             	add    %r15d,%ecx
    131b:	89 8f 34 17 00 00    	mov    %ecx,0x1734(%rdi)
    1321:	4d 89 f3             	mov    %r14,%r11
    1324:	e9 7a fe ff ff       	jmpq   11a3 <send_tree+0x233>
    1329:	44 0f b7 a7 fc 0a 00 	movzwl 0xafc(%rdi),%r12d
    1330:	00 
    1331:	4c 89 e0             	mov    %r12,%rax
    1334:	d3 e0                	shl    %cl,%eax
    1336:	0f b7 8f 30 17 00 00 	movzwl 0x1730(%rdi),%ecx
    133d:	66 09 c8             	or     %cx,%ax
    1340:	66 89 87 30 17 00 00 	mov    %ax,0x1730(%rdi)
    1347:	48 8b 4f 28          	mov    0x28(%rdi),%rcx
    134b:	4c 8d 79 01          	lea    0x1(%rcx),%r15
    134f:	4c 89 7f 28          	mov    %r15,0x28(%rdi)
    1353:	4c 8b 7f 10          	mov    0x10(%rdi),%r15
    1357:	42 88 04 39          	mov    %al,(%rcx,%r15,1)
    135b:	48 8b 4f 28          	mov    0x28(%rdi),%rcx
    135f:	48 8d 41 01          	lea    0x1(%rcx),%rax
    1363:	48 89 47 28          	mov    %rax,0x28(%rdi)
    1367:	0f b7 87 30 17 00 00 	movzwl 0x1730(%rdi),%eax
    136e:	c1 e8 08             	shr    $0x8,%eax
    1371:	4c 8b 7f 10          	mov    0x10(%rdi),%r15
    1375:	42 88 04 39          	mov    %al,(%rcx,%r15,1)
    1379:	48 63 87 34 17 00 00 	movslq 0x1734(%rdi),%rax
    1380:	4c 89 c9             	mov    %r9,%rcx
    1383:	29 c1                	sub    %eax,%ecx
    1385:	41 d3 ec             	shr    %cl,%r12d
    1388:	41 8d 4c 06 f0       	lea    -0x10(%r14,%rax,1),%ecx
    138d:	b8 03 00 00 00       	mov    $0x3,%eax
    1392:	89 8f 34 17 00 00    	mov    %ecx,0x1734(%rdi)
    1398:	66 44 89 a7 30 17 00 	mov    %r12w,0x1730(%rdi)
    139f:	00 
    13a0:	83 f9 0e             	cmp    $0xe,%ecx
    13a3:	0f 8f d1 01 00 00    	jg     157a <send_tree+0x60a>
    13a9:	41 81 c3 fd ff 00 00 	add    $0xfffd,%r11d
    13b0:	41 d3 e3             	shl    %cl,%r11d
    13b3:	66 45 09 e3          	or     %r12w,%r11w
    13b7:	66 44 89 9f 30 17 00 	mov    %r11w,0x1730(%rdi)
    13be:	00 
    13bf:	83 c1 02             	add    $0x2,%ecx
    13c2:	89 8f 34 17 00 00    	mov    %ecx,0x1734(%rdi)
    13c8:	e9 95 fc ff ff       	jmpq   1062 <send_tree+0xf2>
    13cd:	4d 89 ea             	mov    %r13,%r10
    13d0:	4d 89 fd             	mov    %r15,%r13
    13d3:	44 0f b7 9f 00 0b 00 	movzwl 0xb00(%rdi),%r11d
    13da:	00 
    13db:	4c 89 d8             	mov    %r11,%rax
    13de:	d3 e0                	shl    %cl,%eax
    13e0:	0f b7 8f 30 17 00 00 	movzwl 0x1730(%rdi),%ecx
    13e7:	66 09 c8             	or     %cx,%ax
    13ea:	66 89 87 30 17 00 00 	mov    %ax,0x1730(%rdi)
    13f1:	48 8b 4f 28          	mov    0x28(%rdi),%rcx
    13f5:	4c 8d 79 01          	lea    0x1(%rcx),%r15
    13f9:	4c 89 7f 28          	mov    %r15,0x28(%rdi)
    13fd:	4c 8b 7f 10          	mov    0x10(%rdi),%r15
    1401:	42 88 04 39          	mov    %al,(%rcx,%r15,1)
    1405:	4c 8b 7f 28          	mov    0x28(%rdi),%r15
    1409:	49 8d 47 01          	lea    0x1(%r15),%rax
    140d:	48 89 47 28          	mov    %rax,0x28(%rdi)
    1411:	0f b7 87 30 17 00 00 	movzwl 0x1730(%rdi),%eax
    1418:	c1 e8 08             	shr    $0x8,%eax
    141b:	48 8b 4f 10          	mov    0x10(%rdi),%rcx
    141f:	41 88 04 0f          	mov    %al,(%r15,%rcx,1)
    1423:	48 63 87 34 17 00 00 	movslq 0x1734(%rdi),%rax
    142a:	4c 89 c9             	mov    %r9,%rcx
    142d:	29 c1                	sub    %eax,%ecx
    142f:	41 d3 eb             	shr    %cl,%r11d
    1432:	41 8d 4c 04 f0       	lea    -0x10(%r12,%rax,1),%ecx
    1437:	b8 03 00 00 00       	mov    $0x3,%eax
    143c:	89 8f 34 17 00 00    	mov    %ecx,0x1734(%rdi)
    1442:	66 44 89 9f 30 17 00 	mov    %r11w,0x1730(%rdi)
    1449:	00 
    144a:	83 f9 0d             	cmp    $0xd,%ecx
    144d:	0f 8f 9e 01 00 00    	jg     15f1 <send_tree+0x681>
    1453:	45 8d a6 fe ff 00 00 	lea    0xfffe(%r14),%r12d
    145a:	41 d3 e4             	shl    %cl,%r12d
    145d:	66 45 09 dc          	or     %r11w,%r12w
    1461:	66 44 89 a7 30 17 00 	mov    %r12w,0x1730(%rdi)
    1468:	00 
    1469:	83 c1 03             	add    $0x3,%ecx
    146c:	89 8f 34 17 00 00    	mov    %ecx,0x1734(%rdi)
    1472:	e9 eb fb ff ff       	jmpq   1062 <send_tree+0xf2>
    1477:	41 81 c6 f6 ff 00 00 	add    $0xfff6,%r14d
    147e:	4d 89 f4             	mov    %r14,%r12
    1481:	41 d3 e4             	shl    %cl,%r12d
    1484:	66 45 09 e3          	or     %r12w,%r11w
    1488:	66 44 89 9f 30 17 00 	mov    %r11w,0x1730(%rdi)
    148f:	00 
    1490:	48 8b 4f 28          	mov    0x28(%rdi),%rcx
    1494:	4c 8d 61 01          	lea    0x1(%rcx),%r12
    1498:	4c 89 67 28          	mov    %r12,0x28(%rdi)
    149c:	4c 8b 67 10          	mov    0x10(%rdi),%r12
    14a0:	46 88 1c 21          	mov    %r11b,(%rcx,%r12,1)
    14a4:	4c 8b 67 28          	mov    0x28(%rdi),%r12
    14a8:	49 8d 4c 24 01       	lea    0x1(%r12),%rcx
    14ad:	48 89 4f 28          	mov    %rcx,0x28(%rdi)
    14b1:	0f b7 8f 30 17 00 00 	movzwl 0x1730(%rdi),%ecx
    14b8:	c1 e9 08             	shr    $0x8,%ecx
    14bb:	4c 8b 5f 10          	mov    0x10(%rdi),%r11
    14bf:	43 88 0c 1c          	mov    %cl,(%r12,%r11,1)
    14c3:	4c 63 a7 34 17 00 00 	movslq 0x1734(%rdi),%r12
    14ca:	4c 89 c9             	mov    %r9,%rcx
    14cd:	44 29 e1             	sub    %r12d,%ecx
    14d0:	45 0f b7 de          	movzwl %r14w,%r11d
    14d4:	41 d3 eb             	shr    %cl,%r11d
    14d7:	66 44 89 9f 30 17 00 	mov    %r11w,0x1730(%rdi)
    14de:	00 
    14df:	41 8d 4c 24 f7       	lea    -0x9(%r12),%ecx
    14e4:	89 8f 34 17 00 00    	mov    %ecx,0x1734(%rdi)
    14ea:	e9 73 fb ff ff       	jmpq   1062 <send_tree+0xf2>
    14ef:	42 0f b7 84 a7 bc 0a 	movzwl 0xabc(%rdi,%r12,4),%eax
    14f6:	00 00 
    14f8:	4d 89 d3             	mov    %r10,%r11
    14fb:	4d 89 ea             	mov    %r13,%r10
    14fe:	4d 89 fd             	mov    %r15,%r13
    1501:	49 89 c4             	mov    %rax,%r12
    1504:	41 d3 e4             	shl    %cl,%r12d
    1507:	0f b7 8f 30 17 00 00 	movzwl 0x1730(%rdi),%ecx
    150e:	66 41 09 cc          	or     %cx,%r12w
    1512:	66 44 89 a7 30 17 00 	mov    %r12w,0x1730(%rdi)
    1519:	00 
    151a:	48 8b 4f 28          	mov    0x28(%rdi),%rcx
    151e:	4c 8d 79 01          	lea    0x1(%rcx),%r15
    1522:	4c 89 7f 28          	mov    %r15,0x28(%rdi)
    1526:	4c 8b 7f 10          	mov    0x10(%rdi),%r15
    152a:	46 88 24 39          	mov    %r12b,(%rcx,%r15,1)
    152e:	4c 8b 7f 28          	mov    0x28(%rdi),%r15
    1532:	49 8d 4f 01          	lea    0x1(%r15),%rcx
    1536:	48 89 4f 28          	mov    %rcx,0x28(%rdi)
    153a:	0f b7 8f 30 17 00 00 	movzwl 0x1730(%rdi),%ecx
    1541:	c1 e9 08             	shr    $0x8,%ecx
    1544:	4c 8b 67 10          	mov    0x10(%rdi),%r12
    1548:	43 88 0c 27          	mov    %cl,(%r15,%r12,1)
    154c:	4c 63 a7 34 17 00 00 	movslq 0x1734(%rdi),%r12
    1553:	4c 89 c9             	mov    %r9,%rcx
    1556:	44 29 e1             	sub    %r12d,%ecx
    1559:	d3 e8                	shr    %cl,%eax
    155b:	66 89 87 30 17 00 00 	mov    %ax,0x1730(%rdi)
    1562:	43 8d 44 23 f0       	lea    -0x10(%r11,%r12,1),%eax
    1567:	89 87 34 17 00 00    	mov    %eax,0x1734(%rdi)
    156d:	4d 89 f3             	mov    %r14,%r11
    1570:	b8 03 00 00 00       	mov    $0x3,%eax
    1575:	e9 29 fc ff ff       	jmpq   11a3 <send_tree+0x233>
    157a:	41 81 c3 fd ff 00 00 	add    $0xfffd,%r11d
    1581:	4d 89 de             	mov    %r11,%r14
    1584:	41 d3 e6             	shl    %cl,%r14d
    1587:	66 45 09 f4          	or     %r14w,%r12w
    158b:	66 44 89 a7 30 17 00 	mov    %r12w,0x1730(%rdi)
    1592:	00 
    1593:	4c 8b 77 28          	mov    0x28(%rdi),%r14
    1597:	49 8d 4e 01          	lea    0x1(%r14),%rcx
    159b:	48 89 4f 28          	mov    %rcx,0x28(%rdi)
    159f:	48 8b 4f 10          	mov    0x10(%rdi),%rcx
    15a3:	45 88 24 0e          	mov    %r12b,(%r14,%rcx,1)
    15a7:	4c 8b 77 28          	mov    0x28(%rdi),%r14
    15ab:	49 8d 4e 01          	lea    0x1(%r14),%rcx
    15af:	48 89 4f 28          	mov    %rcx,0x28(%rdi)
    15b3:	0f b7 8f 30 17 00 00 	movzwl 0x1730(%rdi),%ecx
    15ba:	c1 e9 08             	shr    $0x8,%ecx
    15bd:	4c 8b 67 10          	mov    0x10(%rdi),%r12
    15c1:	43 88 0c 26          	mov    %cl,(%r14,%r12,1)
    15c5:	4c 63 a7 34 17 00 00 	movslq 0x1734(%rdi),%r12
    15cc:	4c 89 c9             	mov    %r9,%rcx
    15cf:	44 29 e1             	sub    %r12d,%ecx
    15d2:	45 0f b7 db          	movzwl %r11w,%r11d
    15d6:	41 d3 eb             	shr    %cl,%r11d
    15d9:	66 44 89 9f 30 17 00 	mov    %r11w,0x1730(%rdi)
    15e0:	00 
    15e1:	41 8d 4c 24 f2       	lea    -0xe(%r12),%ecx
    15e6:	89 8f 34 17 00 00    	mov    %ecx,0x1734(%rdi)
    15ec:	e9 71 fa ff ff       	jmpq   1062 <send_tree+0xf2>
    15f1:	45 8d a6 fe ff 00 00 	lea    0xfffe(%r14),%r12d
    15f8:	4d 89 e6             	mov    %r12,%r14
    15fb:	41 d3 e6             	shl    %cl,%r14d
    15fe:	66 45 09 f3          	or     %r14w,%r11w
    1602:	66 44 89 9f 30 17 00 	mov    %r11w,0x1730(%rdi)
    1609:	00 
    160a:	4c 8b 77 28          	mov    0x28(%rdi),%r14
    160e:	49 8d 4e 01          	lea    0x1(%r14),%rcx
    1612:	48 89 4f 28          	mov    %rcx,0x28(%rdi)
    1616:	48 8b 4f 10          	mov    0x10(%rdi),%rcx
    161a:	45 88 1c 0e          	mov    %r11b,(%r14,%rcx,1)
    161e:	4c 8b 77 28          	mov    0x28(%rdi),%r14
    1622:	49 8d 4e 01          	lea    0x1(%r14),%rcx
    1626:	48 89 4f 28          	mov    %rcx,0x28(%rdi)
    162a:	0f b7 8f 30 17 00 00 	movzwl 0x1730(%rdi),%ecx
    1631:	c1 e9 08             	shr    $0x8,%ecx
    1634:	4c 8b 5f 10          	mov    0x10(%rdi),%r11
    1638:	43 88 0c 1e          	mov    %cl,(%r14,%r11,1)
    163c:	4c 63 b7 34 17 00 00 	movslq 0x1734(%rdi),%r14
    1643:	4c 89 c9             	mov    %r9,%rcx
    1646:	44 29 f1             	sub    %r14d,%ecx
    1649:	45 0f b7 dc          	movzwl %r12w,%r11d
    164d:	41 d3 eb             	shr    %cl,%r11d
    1650:	66 44 89 9f 30 17 00 	mov    %r11w,0x1730(%rdi)
    1657:	00 
    1658:	41 8d 4e f3          	lea    -0xd(%r14),%ecx
    165c:	89 8f 34 17 00 00    	mov    %ecx,0x1734(%rdi)
    1662:	e9 fb f9 ff ff       	jmpq   1062 <send_tree+0xf2>
    1667:	66 0f 1f 84 00 00 00 	nopw   0x0(%rax,%rax,1)
    166e:	00 00 

0000000000001670 <build_bl_tree>:
    1670:	55                   	push   %rbp
    1671:	48 89 e5             	mov    %rsp,%rbp
    1674:	48 83 ec 10          	sub    $0x10,%rsp
    1678:	4c 89 7d f8          	mov    %r15,-0x8(%rbp)
    167c:	48 8d b7 d4 00 00 00 	lea    0xd4(%rdi),%rsi
    1683:	48 63 97 60 0b 00 00 	movslq 0xb60(%rdi),%rdx
    168a:	49 89 ff             	mov    %rdi,%r15
    168d:	e8 6e f7 ff ff       	callq  e00 <scan_tree>
    1692:	49 8d b7 c8 09 00 00 	lea    0x9c8(%r15),%rsi
    1699:	49 63 97 78 0b 00 00 	movslq 0xb78(%r15),%rdx
    16a0:	4c 89 ff             	mov    %r15,%rdi
    16a3:	e8 58 f7 ff ff       	callq  e00 <scan_tree>
    16a8:	49 8d b7 88 0b 00 00 	lea    0xb88(%r15),%rsi
    16af:	4c 89 ff             	mov    %r15,%rdi
    16b2:	e8 a9 f4 ff ff       	callq  b60 <build_tree>
    16b7:	48 8d 15 00 00 00 00 	lea    0x0(%rip),%rdx        # 16be <build_bl_tree+0x4e>
    16be:	b8 12 00 00 00       	mov    $0x12,%eax
    16c3:	eb 18                	jmp    16dd <build_bl_tree+0x6d>
    16c5:	48 63 c8             	movslq %eax,%rcx
    16c8:	0f b6 0c 11          	movzbl (%rcx,%rdx,1),%ecx
    16cc:	41 0f b7 8c 8f be 0a 	movzwl 0xabe(%r15,%rcx,4),%ecx
    16d3:	00 00 
    16d5:	66 85 c9             	test   %cx,%cx
    16d8:	75 08                	jne    16e2 <build_bl_tree+0x72>
    16da:	83 c0 ff             	add    $0xffffffff,%eax
    16dd:	83 f8 02             	cmp    $0x2,%eax
    16e0:	7f e3                	jg     16c5 <build_bl_tree+0x55>
    16e2:	49 8b 97 18 17 00 00 	mov    0x1718(%r15),%rdx
    16e9:	48 63 c8             	movslq %eax,%rcx
    16ec:	48 8d 0c 49          	lea    (%rcx,%rcx,2),%rcx
    16f0:	48 8d 4c 0a 11       	lea    0x11(%rdx,%rcx,1),%rcx
    16f5:	49 89 8f 18 17 00 00 	mov    %rcx,0x1718(%r15)
    16fc:	4c 8b 7d f8          	mov    -0x8(%rbp),%r15
    1700:	c9                   	leaveq 
    1701:	c3                   	retq   
    1702:	66 66 2e 0f 1f 84 00 	data16 nopw %cs:0x0(%rax,%rax,1)
    1709:	00 00 00 00 
    170d:	0f 1f 00             	nopl   (%rax)

0000000000001710 <send_all_trees>:
    1710:	55                   	push   %rbp
    1711:	48 89 e5             	mov    %rsp,%rbp
    1714:	48 83 ec 10          	sub    $0x10,%rsp
    1718:	4c 89 7d f0          	mov    %r15,-0x10(%rbp)
    171c:	4c 89 75 f8          	mov    %r14,-0x8(%rbp)
    1720:	41 b8 10 00 00 00    	mov    $0x10,%r8d
    1726:	48 63 87 34 17 00 00 	movslq 0x1734(%rdi),%rax
    172d:	83 f8 0b             	cmp    $0xb,%eax
    1730:	7f 2c                	jg     175e <send_all_trees+0x4e>
    1732:	49 89 ca             	mov    %rcx,%r10
    1735:	48 89 c1             	mov    %rax,%rcx
    1738:	4c 89 d0             	mov    %r10,%rax
    173b:	44 8d 8e ff fe 00 00 	lea    0xfeff(%rsi),%r9d
    1742:	41 d3 e1             	shl    %cl,%r9d
    1745:	44 0f b7 97 30 17 00 	movzwl 0x1730(%rdi),%r10d
    174c:	00 
    174d:	66 45 09 d1          	or     %r10w,%r9w
    1751:	66 44 89 8f 30 17 00 	mov    %r9w,0x1730(%rdi)
    1758:	00 
    1759:	83 c1 05             	add    $0x5,%ecx
    175c:	eb 7b                	jmp    17d9 <send_all_trees+0xc9>
    175e:	49 89 ca             	mov    %rcx,%r10
    1761:	48 89 c1             	mov    %rax,%rcx
    1764:	4c 89 d0             	mov    %r10,%rax
    1767:	44 8d 8e ff fe 00 00 	lea    0xfeff(%rsi),%r9d
    176e:	4d 89 ca             	mov    %r9,%r10
    1771:	41 d3 e2             	shl    %cl,%r10d
    1774:	0f b7 8f 30 17 00 00 	movzwl 0x1730(%rdi),%ecx
    177b:	66 41 09 ca          	or     %cx,%r10w
    177f:	66 44 89 97 30 17 00 	mov    %r10w,0x1730(%rdi)
    1786:	00 
    1787:	4c 8b 5f 28          	mov    0x28(%rdi),%r11
    178b:	49 8d 4b 01          	lea    0x1(%r11),%rcx
    178f:	48 89 4f 28          	mov    %rcx,0x28(%rdi)
    1793:	48 8b 4f 10          	mov    0x10(%rdi),%rcx
    1797:	45 88 14 0b          	mov    %r10b,(%r11,%rcx,1)
    179b:	4c 8b 5f 28          	mov    0x28(%rdi),%r11
    179f:	49 8d 4b 01          	lea    0x1(%r11),%rcx
    17a3:	48 89 4f 28          	mov    %rcx,0x28(%rdi)
    17a7:	0f b7 8f 30 17 00 00 	movzwl 0x1730(%rdi),%ecx
    17ae:	c1 e9 08             	shr    $0x8,%ecx
    17b1:	4c 8b 57 10          	mov    0x10(%rdi),%r10
    17b5:	43 88 0c 13          	mov    %cl,(%r11,%r10,1)
    17b9:	4c 63 97 34 17 00 00 	movslq 0x1734(%rdi),%r10
    17c0:	4c 89 c1             	mov    %r8,%rcx
    17c3:	44 29 d1             	sub    %r10d,%ecx
    17c6:	45 0f b7 c9          	movzwl %r9w,%r9d
    17ca:	41 d3 e9             	shr    %cl,%r9d
    17cd:	66 44 89 8f 30 17 00 	mov    %r9w,0x1730(%rdi)
    17d4:	00 
    17d5:	41 8d 4a f5          	lea    -0xb(%r10),%ecx
    17d9:	89 8f 34 17 00 00    	mov    %ecx,0x1734(%rdi)
    17df:	44 8d 72 ff          	lea    -0x1(%rdx),%r14d
    17e3:	83 f9 0b             	cmp    $0xb,%ecx
    17e6:	7f 20                	jg     1808 <send_all_trees+0xf8>
    17e8:	81 c2 ff ff 00 00    	add    $0xffff,%edx
    17ee:	d3 e2                	shl    %cl,%edx
    17f0:	44 0f b7 8f 30 17 00 	movzwl 0x1730(%rdi),%r9d
    17f7:	00 
    17f8:	66 44 09 ca          	or     %r9w,%dx
    17fc:	66 89 97 30 17 00 00 	mov    %dx,0x1730(%rdi)
    1803:	83 c1 05             	add    $0x5,%ecx
    1806:	eb 66                	jmp    186e <send_all_trees+0x15e>
    1808:	4c 89 f2             	mov    %r14,%rdx
    180b:	d3 e2                	shl    %cl,%edx
    180d:	0f b7 8f 30 17 00 00 	movzwl 0x1730(%rdi),%ecx
    1814:	66 09 ca             	or     %cx,%dx
    1817:	66 89 97 30 17 00 00 	mov    %dx,0x1730(%rdi)
    181e:	48 8b 4f 28          	mov    0x28(%rdi),%rcx
    1822:	4c 8d 49 01          	lea    0x1(%rcx),%r9
    1826:	4c 89 4f 28          	mov    %r9,0x28(%rdi)
    182a:	4c 8b 4f 10          	mov    0x10(%rdi),%r9
    182e:	42 88 14 09          	mov    %dl,(%rcx,%r9,1)
    1832:	48 8b 57 28          	mov    0x28(%rdi),%rdx
    1836:	48 8d 4a 01          	lea    0x1(%rdx),%rcx
    183a:	48 89 4f 28          	mov    %rcx,0x28(%rdi)
    183e:	0f b7 8f 30 17 00 00 	movzwl 0x1730(%rdi),%ecx
    1845:	c1 e9 08             	shr    $0x8,%ecx
    1848:	4c 8b 4f 10          	mov    0x10(%rdi),%r9
    184c:	42 88 0c 0a          	mov    %cl,(%rdx,%r9,1)
    1850:	4c 63 8f 34 17 00 00 	movslq 0x1734(%rdi),%r9
    1857:	4c 89 c1             	mov    %r8,%rcx
    185a:	44 29 c9             	sub    %r9d,%ecx
    185d:	41 0f b7 d6          	movzwl %r14w,%edx
    1861:	d3 ea                	shr    %cl,%edx
    1863:	66 89 97 30 17 00 00 	mov    %dx,0x1730(%rdi)
    186a:	41 8d 49 f5          	lea    -0xb(%r9),%ecx
    186e:	89 8f 34 17 00 00    	mov    %ecx,0x1734(%rdi)
    1874:	4c 8d 15 00 00 00 00 	lea    0x0(%rip),%r10        # 187b <send_all_trees+0x16b>
    187b:	45 31 c9             	xor    %r9d,%r9d
    187e:	83 f9 0c             	cmp    $0xc,%ecx
    1881:	7f 23                	jg     18a6 <send_all_trees+0x196>
    1883:	8d 90 fc ff 00 00    	lea    0xfffc(%rax),%edx
    1889:	d3 e2                	shl    %cl,%edx
    188b:	44 0f b7 9f 30 17 00 	movzwl 0x1730(%rdi),%r11d
    1892:	00 
    1893:	66 44 09 da          	or     %r11w,%dx
    1897:	66 89 97 30 17 00 00 	mov    %dx,0x1730(%rdi)
    189e:	83 c1 04             	add    $0x4,%ecx
    18a1:	e9 e5 00 00 00       	jmpq   198b <send_all_trees+0x27b>
    18a6:	44 8d 98 fc ff 00 00 	lea    0xfffc(%rax),%r11d
    18ad:	4c 89 da             	mov    %r11,%rdx
    18b0:	d3 e2                	shl    %cl,%edx
    18b2:	0f b7 8f 30 17 00 00 	movzwl 0x1730(%rdi),%ecx
    18b9:	66 09 ca             	or     %cx,%dx
    18bc:	66 89 97 30 17 00 00 	mov    %dx,0x1730(%rdi)
    18c3:	48 8b 4f 28          	mov    0x28(%rdi),%rcx
    18c7:	4c 8d 79 01          	lea    0x1(%rcx),%r15
    18cb:	4c 89 7f 28          	mov    %r15,0x28(%rdi)
    18cf:	4c 8b 7f 10          	mov    0x10(%rdi),%r15
    18d3:	42 88 14 39          	mov    %dl,(%rcx,%r15,1)
    18d7:	4c 8b 7f 28          	mov    0x28(%rdi),%r15
    18db:	49 8d 4f 01          	lea    0x1(%r15),%rcx
    18df:	48 89 4f 28          	mov    %rcx,0x28(%rdi)
    18e3:	0f b7 8f 30 17 00 00 	movzwl 0x1730(%rdi),%ecx
    18ea:	c1 e9 08             	shr    $0x8,%ecx
    18ed:	48 8b 57 10          	mov    0x10(%rdi),%rdx
    18f1:	41 88 0c 17          	mov    %cl,(%r15,%rdx,1)
    18f5:	4c 63 bf 34 17 00 00 	movslq 0x1734(%rdi),%r15
    18fc:	4c 89 c1             	mov    %r8,%rcx
    18ff:	44 29 f9             	sub    %r15d,%ecx
    1902:	41 0f b7 d3          	movzwl %r11w,%edx
    1906:	d3 ea                	shr    %cl,%edx
    1908:	66 89 97 30 17 00 00 	mov    %dx,0x1730(%rdi)
    190f:	41 8d 4f f4          	lea    -0xc(%r15),%ecx
    1913:	eb 76                	jmp    198b <send_all_trees+0x27b>
    1915:	42 0f b6 14 12       	movzbl (%rdx,%r10,1),%edx
    191a:	0f b7 94 97 be 0a 00 	movzwl 0xabe(%rdi,%rdx,4),%edx
    1921:	00 
    1922:	49 89 d3             	mov    %rdx,%r11
    1925:	41 d3 e3             	shl    %cl,%r11d
    1928:	0f b7 8f 30 17 00 00 	movzwl 0x1730(%rdi),%ecx
    192f:	66 41 09 cb          	or     %cx,%r11w
    1933:	66 44 89 9f 30 17 00 	mov    %r11w,0x1730(%rdi)
    193a:	00 
    193b:	48 8b 4f 28          	mov    0x28(%rdi),%rcx
    193f:	4c 8d 79 01          	lea    0x1(%rcx),%r15
    1943:	4c 89 7f 28          	mov    %r15,0x28(%rdi)
    1947:	4c 8b 7f 10          	mov    0x10(%rdi),%r15
    194b:	46 88 1c 39          	mov    %r11b,(%rcx,%r15,1)
    194f:	4c 8b 7f 28          	mov    0x28(%rdi),%r15
    1953:	49 8d 4f 01          	lea    0x1(%r15),%rcx
    1957:	48 89 4f 28          	mov    %rcx,0x28(%rdi)
    195b:	0f b7 8f 30 17 00 00 	movzwl 0x1730(%rdi),%ecx
    1962:	c1 e9 08             	shr    $0x8,%ecx
    1965:	4c 8b 5f 10          	mov    0x10(%rdi),%r11
    1969:	43 88 0c 1f          	mov    %cl,(%r15,%r11,1)
    196d:	4c 63 9f 34 17 00 00 	movslq 0x1734(%rdi),%r11
    1974:	4c 89 c1             	mov    %r8,%rcx
    1977:	44 29 d9             	sub    %r11d,%ecx
    197a:	d3 ea                	shr    %cl,%edx
    197c:	41 8d 4b f3          	lea    -0xd(%r11),%ecx
    1980:	66 89 97 30 17 00 00 	mov    %dx,0x1730(%rdi)
    1987:	41 83 c1 01          	add    $0x1,%r9d
    198b:	89 8f 34 17 00 00    	mov    %ecx,0x1734(%rdi)
    1991:	41 39 c1             	cmp    %eax,%r9d
    1994:	7c 31                	jl     19c7 <send_all_trees+0x2b7>
    1996:	48 8d 87 d4 00 00 00 	lea    0xd4(%rdi),%rax
    199d:	8d 56 ff             	lea    -0x1(%rsi),%edx
    19a0:	48 89 c6             	mov    %rax,%rsi
    19a3:	49 89 ff             	mov    %rdi,%r15
    19a6:	e8 c5 f5 ff ff       	callq  f70 <send_tree>
    19ab:	4c 89 f2             	mov    %r14,%rdx
    19ae:	4c 89 ff             	mov    %r15,%rdi
    19b1:	48 8d b7 c8 09 00 00 	lea    0x9c8(%rdi),%rsi
    19b8:	e8 b3 f5 ff ff       	callq  f70 <send_tree>
    19bd:	4c 8b 75 f8          	mov    -0x8(%rbp),%r14
    19c1:	4c 8b 7d f0          	mov    -0x10(%rbp),%r15
    19c5:	c9                   	leaveq 
    19c6:	c3                   	retq   
    19c7:	49 63 d1             	movslq %r9d,%rdx
    19ca:	83 f9 0d             	cmp    $0xd,%ecx
    19cd:	0f 8f 42 ff ff ff    	jg     1915 <send_all_trees+0x205>
    19d3:	42 0f b6 14 12       	movzbl (%rdx,%r10,1),%edx
    19d8:	0f b7 94 97 be 0a 00 	movzwl 0xabe(%rdi,%rdx,4),%edx
    19df:	00 
    19e0:	d3 e2                	shl    %cl,%edx
    19e2:	44 0f b7 9f 30 17 00 	movzwl 0x1730(%rdi),%r11d
    19e9:	00 
    19ea:	66 44 09 da          	or     %r11w,%dx
    19ee:	83 c1 03             	add    $0x3,%ecx
    19f1:	eb 8d                	jmp    1980 <send_all_trees+0x270>
    19f3:	66 66 2e 0f 1f 84 00 	data16 nopw %cs:0x0(%rax,%rax,1)
    19fa:	00 00 00 00 
    19fe:	66 90                	xchg   %ax,%ax

0000000000001a00 <compress_block>:
    1a00:	55                   	push   %rbp
    1a01:	48 89 e5             	mov    %rsp,%rbp
    1a04:	48 83 ec 30          	sub    $0x30,%rsp
    1a08:	b8 10 00 00 00       	mov    $0x10,%eax
    1a0d:	8b 8f 0c 17 00 00    	mov    0x170c(%rdi),%ecx
    1a13:	85 c9                	test   %ecx,%ecx
    1a15:	0f 84 32 01 00 00    	je     1b4d <compress_block+0x14d>
    1a1b:	4c 8b 15 00 00 00 00 	mov    0x0(%rip),%r10        # 1a22 <compress_block+0x22>
    1a22:	4c 89 55 d0          	mov    %r10,-0x30(%rbp)
    1a26:	4c 8b 05 00 00 00 00 	mov    0x0(%rip),%r8        # 1a2d <compress_block+0x2d>
    1a2d:	4c 89 7d d8          	mov    %r15,-0x28(%rbp)
    1a31:	4c 8d 1d 00 00 00 00 	lea    0x0(%rip),%r11        # 1a38 <compress_block+0x38>
    1a38:	4c 89 75 e0          	mov    %r14,-0x20(%rbp)
    1a3c:	45 31 c9             	xor    %r9d,%r9d
    1a3f:	48 89 5d f8          	mov    %rbx,-0x8(%rbp)
    1a43:	4c 89 65 f0          	mov    %r12,-0x10(%rbp)
    1a47:	4c 89 6d e8          	mov    %r13,-0x18(%rbp)
    1a4b:	44 89 cb             	mov    %r9d,%ebx
    1a4e:	48 8b 8f 00 17 00 00 	mov    0x1700(%rdi),%rcx
    1a55:	44 0f b6 2c 0b       	movzbl (%rbx,%rcx,1),%r13d
    1a5a:	48 8b 8f 10 17 00 00 	mov    0x1710(%rdi),%rcx
    1a61:	44 0f b7 24 59       	movzwl (%rcx,%rbx,2),%r12d
    1a66:	66 45 85 e4          	test   %r12w,%r12w
    1a6a:	0f 84 20 01 00 00    	je     1b90 <compress_block+0x190>
    1a70:	47 0f b6 74 15 00    	movzbl 0x0(%r13,%r10,1),%r14d
    1a76:	41 8d 8e 01 01 00 00 	lea    0x101(%r14),%ecx
    1a7d:	89 cb                	mov    %ecx,%ebx
    1a7f:	44 0f b7 7c 9e 02    	movzwl 0x2(%rsi,%rbx,4),%r15d
    1a85:	44 29 f8             	sub    %r15d,%eax
    1a88:	48 63 8f 34 17 00 00 	movslq 0x1734(%rdi),%rcx
    1a8f:	39 c1                	cmp    %eax,%ecx
    1a91:	0f 8f 3c 01 00 00    	jg     1bd3 <compress_block+0x1d3>
    1a97:	0f b7 1c 9e          	movzwl (%rsi,%rbx,4),%ebx
    1a9b:	d3 e3                	shl    %cl,%ebx
    1a9d:	0f b7 87 30 17 00 00 	movzwl 0x1730(%rdi),%eax
    1aa4:	66 09 c3             	or     %ax,%bx
    1aa7:	44 01 f9             	add    %r15d,%ecx
    1aaa:	b8 10 00 00 00       	mov    $0x10,%eax
    1aaf:	e9 88 01 00 00       	jmpq   1c3c <compress_block+0x23c>
    1ab4:	42 0f b7 1c ae       	movzwl (%rsi,%r13,4),%ebx
    1ab9:	49 89 dd             	mov    %rbx,%r13
    1abc:	41 d3 e5             	shl    %cl,%r13d
    1abf:	0f b7 8f 30 17 00 00 	movzwl 0x1730(%rdi),%ecx
    1ac6:	66 41 09 cd          	or     %cx,%r13w
    1aca:	66 44 89 af 30 17 00 	mov    %r13w,0x1730(%rdi)
    1ad1:	00 
    1ad2:	4c 8b 77 28          	mov    0x28(%rdi),%r14
    1ad6:	49 8d 4e 01          	lea    0x1(%r14),%rcx
    1ada:	48 89 4f 28          	mov    %rcx,0x28(%rdi)
    1ade:	48 8b 4f 10          	mov    0x10(%rdi),%rcx
    1ae2:	45 88 2c 0e          	mov    %r13b,(%r14,%rcx,1)
    1ae6:	4c 8b 6f 28          	mov    0x28(%rdi),%r13
    1aea:	49 8d 4d 01          	lea    0x1(%r13),%rcx
    1aee:	48 89 4f 28          	mov    %rcx,0x28(%rdi)
    1af2:	0f b7 8f 30 17 00 00 	movzwl 0x1730(%rdi),%ecx
    1af9:	c1 e9 08             	shr    $0x8,%ecx
    1afc:	4c 8b 77 10          	mov    0x10(%rdi),%r14
    1b00:	43 88 4c 35 00       	mov    %cl,0x0(%r13,%r14,1)
    1b05:	4c 63 af 34 17 00 00 	movslq 0x1734(%rdi),%r13
    1b0c:	48 89 c1             	mov    %rax,%rcx
    1b0f:	44 29 e9             	sub    %r13d,%ecx
    1b12:	d3 eb                	shr    %cl,%ebx
    1b14:	66 89 9f 30 17 00 00 	mov    %bx,0x1730(%rdi)
    1b1b:	43 8d 4c 2c f0       	lea    -0x10(%r12,%r13,1),%ecx
    1b20:	89 8f 34 17 00 00    	mov    %ecx,0x1734(%rdi)
    1b26:	8b 8f 0c 17 00 00    	mov    0x170c(%rdi),%ecx
    1b2c:	41 83 c1 01          	add    $0x1,%r9d
    1b30:	44 39 c9             	cmp    %r9d,%ecx
    1b33:	0f 87 12 ff ff ff    	ja     1a4b <compress_block+0x4b>
    1b39:	4c 8b 6d e8          	mov    -0x18(%rbp),%r13
    1b3d:	4c 8b 65 f0          	mov    -0x10(%rbp),%r12
    1b41:	48 8b 5d f8          	mov    -0x8(%rbp),%rbx
    1b45:	4c 8b 75 e0          	mov    -0x20(%rbp),%r14
    1b49:	4c 8b 7d d8          	mov    -0x28(%rbp),%r15
    1b4d:	44 0f b7 86 02 04 00 	movzwl 0x402(%rsi),%r8d
    1b54:	00 
    1b55:	48 89 c2             	mov    %rax,%rdx
    1b58:	44 29 c2             	sub    %r8d,%edx
    1b5b:	48 63 8f 34 17 00 00 	movslq 0x1734(%rdi),%rcx
    1b62:	39 ca                	cmp    %ecx,%edx
    1b64:	0f 8c 4e 01 00 00    	jl     1cb8 <compress_block+0x2b8>
    1b6a:	0f b7 86 00 04 00 00 	movzwl 0x400(%rsi),%eax
    1b71:	d3 e0                	shl    %cl,%eax
    1b73:	0f b7 97 30 17 00 00 	movzwl 0x1730(%rdi),%edx
    1b7a:	66 09 d0             	or     %dx,%ax
    1b7d:	66 89 87 30 17 00 00 	mov    %ax,0x1730(%rdi)
    1b84:	41 8d 04 08          	lea    (%r8,%rcx,1),%eax
    1b88:	89 87 34 17 00 00    	mov    %eax,0x1734(%rdi)
    1b8e:	c9                   	leaveq 
    1b8f:	c3                   	retq   
    1b90:	46 0f b7 64 ae 02    	movzwl 0x2(%rsi,%r13,4),%r12d
    1b96:	48 89 c3             	mov    %rax,%rbx
    1b99:	44 29 e3             	sub    %r12d,%ebx
    1b9c:	48 63 8f 34 17 00 00 	movslq 0x1734(%rdi),%rcx
    1ba3:	39 cb                	cmp    %ecx,%ebx
    1ba5:	0f 8c 09 ff ff ff    	jl     1ab4 <compress_block+0xb4>
    1bab:	42 0f b7 1c ae       	movzwl (%rsi,%r13,4),%ebx
    1bb0:	d3 e3                	shl    %cl,%ebx
    1bb2:	44 0f b7 af 30 17 00 	movzwl 0x1730(%rdi),%r13d
    1bb9:	00 
    1bba:	66 44 09 eb          	or     %r13w,%bx
    1bbe:	66 89 9f 30 17 00 00 	mov    %bx,0x1730(%rdi)
    1bc5:	44 01 e1             	add    %r12d,%ecx
    1bc8:	89 8f 34 17 00 00    	mov    %ecx,0x1734(%rdi)
    1bce:	e9 53 ff ff ff       	jmpq   1b26 <compress_block+0x126>
    1bd3:	0f b7 1c 9e          	movzwl (%rsi,%rbx,4),%ebx
    1bd7:	48 89 d8             	mov    %rbx,%rax
    1bda:	d3 e0                	shl    %cl,%eax
    1bdc:	0f b7 8f 30 17 00 00 	movzwl 0x1730(%rdi),%ecx
    1be3:	66 09 c8             	or     %cx,%ax
    1be6:	66 89 87 30 17 00 00 	mov    %ax,0x1730(%rdi)
    1bed:	48 8b 4f 28          	mov    0x28(%rdi),%rcx
    1bf1:	4c 8d 51 01          	lea    0x1(%rcx),%r10
    1bf5:	4c 89 57 28          	mov    %r10,0x28(%rdi)
    1bf9:	4c 8b 57 10          	mov    0x10(%rdi),%r10
    1bfd:	42 88 04 11          	mov    %al,(%rcx,%r10,1)
    1c01:	48 8b 4f 28          	mov    0x28(%rdi),%rcx
    1c05:	48 8d 41 01          	lea    0x1(%rcx),%rax
    1c09:	48 89 47 28          	mov    %rax,0x28(%rdi)
    1c0d:	0f b7 87 30 17 00 00 	movzwl 0x1730(%rdi),%eax
    1c14:	c1 e8 08             	shr    $0x8,%eax
    1c17:	4c 8b 57 10          	mov    0x10(%rdi),%r10
    1c1b:	42 88 04 11          	mov    %al,(%rcx,%r10,1)
    1c1f:	4c 63 97 34 17 00 00 	movslq 0x1734(%rdi),%r10
    1c26:	b8 10 00 00 00       	mov    $0x10,%eax
    1c2b:	48 89 c1             	mov    %rax,%rcx
    1c2e:	44 29 d1             	sub    %r10d,%ecx
    1c31:	d3 eb                	shr    %cl,%ebx
    1c33:	43 8d 4c 17 f0       	lea    -0x10(%r15,%r10,1),%ecx
    1c38:	4c 8b 55 d0          	mov    -0x30(%rbp),%r10
    1c3c:	89 8f 34 17 00 00    	mov    %ecx,0x1734(%rdi)
    1c42:	66 89 9f 30 17 00 00 	mov    %bx,0x1730(%rdi)
    1c49:	4f 63 3c b3          	movslq (%r11,%r14,4),%r15
    1c4d:	45 85 ff             	test   %r15d,%r15d
    1c50:	74 3d                	je     1c8f <compress_block+0x28f>
    1c52:	4c 8d 1d 00 00 00 00 	lea    0x0(%rip),%r11        # 1c59 <compress_block+0x259>
    1c59:	47 0f b7 1c b3       	movzwl (%r11,%r14,4),%r11d
    1c5e:	66 45 29 dd          	sub    %r11w,%r13w
    1c62:	49 89 c3             	mov    %rax,%r11
    1c65:	45 29 fb             	sub    %r15d,%r11d
    1c68:	44 39 d9             	cmp    %r11d,%ecx
    1c6b:	0f 8f b8 00 00 00    	jg     1d29 <compress_block+0x329>
    1c71:	41 d3 e5             	shl    %cl,%r13d
    1c74:	66 44 09 eb          	or     %r13w,%bx
    1c78:	66 89 9f 30 17 00 00 	mov    %bx,0x1730(%rdi)
    1c7f:	44 01 f9             	add    %r15d,%ecx
    1c82:	89 8f 34 17 00 00    	mov    %ecx,0x1734(%rdi)
    1c88:	4c 8d 1d 00 00 00 00 	lea    0x0(%rip),%r11        # 1c8f <compress_block+0x28f>
    1c8f:	41 83 c4 ff          	add    $0xffffffff,%r12d
    1c93:	41 81 fc ff 00 00 00 	cmp    $0xff,%r12d
    1c9a:	0f 86 fd 00 00 00    	jbe    1d9d <compress_block+0x39d>
    1ca0:	4c 89 e1             	mov    %r12,%rcx
    1ca3:	c1 e9 07             	shr    $0x7,%ecx
    1ca6:	81 c1 00 01 00 00    	add    $0x100,%ecx
    1cac:	89 c9                	mov    %ecx,%ecx
    1cae:	42 0f b6 0c 01       	movzbl (%rcx,%r8,1),%ecx
    1cb3:	e9 ed 00 00 00       	jmpq   1da5 <compress_block+0x3a5>
    1cb8:	0f b7 96 00 04 00 00 	movzwl 0x400(%rsi),%edx
    1cbf:	48 89 d6             	mov    %rdx,%rsi
    1cc2:	d3 e6                	shl    %cl,%esi
    1cc4:	0f b7 8f 30 17 00 00 	movzwl 0x1730(%rdi),%ecx
    1ccb:	66 09 ce             	or     %cx,%si
    1cce:	66 89 b7 30 17 00 00 	mov    %si,0x1730(%rdi)
    1cd5:	4c 8b 4f 28          	mov    0x28(%rdi),%r9
    1cd9:	49 8d 49 01          	lea    0x1(%r9),%rcx
    1cdd:	48 89 4f 28          	mov    %rcx,0x28(%rdi)
    1ce1:	48 8b 4f 10          	mov    0x10(%rdi),%rcx
    1ce5:	41 88 34 09          	mov    %sil,(%r9,%rcx,1)
    1ce9:	4c 8b 4f 28          	mov    0x28(%rdi),%r9
    1ced:	49 8d 49 01          	lea    0x1(%r9),%rcx
    1cf1:	48 89 4f 28          	mov    %rcx,0x28(%rdi)
    1cf5:	0f b7 8f 30 17 00 00 	movzwl 0x1730(%rdi),%ecx
    1cfc:	c1 e9 08             	shr    $0x8,%ecx
    1cff:	48 8b 77 10          	mov    0x10(%rdi),%rsi
    1d03:	41 88 0c 31          	mov    %cl,(%r9,%rsi,1)
    1d07:	48 63 b7 34 17 00 00 	movslq 0x1734(%rdi),%rsi
    1d0e:	29 f0                	sub    %esi,%eax
    1d10:	48 89 c1             	mov    %rax,%rcx
    1d13:	d3 ea                	shr    %cl,%edx
    1d15:	66 89 97 30 17 00 00 	mov    %dx,0x1730(%rdi)
    1d1c:	41 8d 44 30 f0       	lea    -0x10(%r8,%rsi,1),%eax
    1d21:	89 87 34 17 00 00    	mov    %eax,0x1734(%rdi)
    1d27:	c9                   	leaveq 
    1d28:	c3                   	retq   
    1d29:	4d 89 eb             	mov    %r13,%r11
    1d2c:	41 d3 e3             	shl    %cl,%r11d
    1d2f:	66 44 09 db          	or     %r11w,%bx
    1d33:	66 89 9f 30 17 00 00 	mov    %bx,0x1730(%rdi)
    1d3a:	4c 8b 5f 28          	mov    0x28(%rdi),%r11
    1d3e:	49 8d 4b 01          	lea    0x1(%r11),%rcx
    1d42:	48 89 4f 28          	mov    %rcx,0x28(%rdi)
    1d46:	48 8b 4f 10          	mov    0x10(%rdi),%rcx
    1d4a:	41 88 1c 0b          	mov    %bl,(%r11,%rcx,1)
    1d4e:	4c 8b 5f 28          	mov    0x28(%rdi),%r11
    1d52:	49 8d 4b 01          	lea    0x1(%r11),%rcx
    1d56:	48 89 4f 28          	mov    %rcx,0x28(%rdi)
    1d5a:	0f b7 8f 30 17 00 00 	movzwl 0x1730(%rdi),%ecx
    1d61:	c1 e9 08             	shr    $0x8,%ecx
    1d64:	48 8b 5f 10          	mov    0x10(%rdi),%rbx
    1d68:	41 88 0c 1b          	mov    %cl,(%r11,%rbx,1)
    1d6c:	4c 63 9f 34 17 00 00 	movslq 0x1734(%rdi),%r11
    1d73:	48 89 c1             	mov    %rax,%rcx
    1d76:	44 29 d9             	sub    %r11d,%ecx
    1d79:	41 0f b7 dd          	movzwl %r13w,%ebx
    1d7d:	d3 eb                	shr    %cl,%ebx
    1d7f:	66 89 9f 30 17 00 00 	mov    %bx,0x1730(%rdi)
    1d86:	43 8d 4c 1f f0       	lea    -0x10(%r15,%r11,1),%ecx
    1d8b:	89 8f 34 17 00 00    	mov    %ecx,0x1734(%rdi)
    1d91:	4c 8d 1d 00 00 00 00 	lea    0x0(%rip),%r11        # 1d98 <compress_block+0x398>
    1d98:	e9 f2 fe ff ff       	jmpq   1c8f <compress_block+0x28f>
    1d9d:	44 89 e1             	mov    %r12d,%ecx
    1da0:	42 0f b6 0c 01       	movzbl (%rcx,%r8,1),%ecx
    1da5:	41 89 cd             	mov    %ecx,%r13d
    1da8:	46 0f b7 74 aa 02    	movzwl 0x2(%rdx,%r13,4),%r14d
    1dae:	48 89 c3             	mov    %rax,%rbx
    1db1:	44 29 f3             	sub    %r14d,%ebx
    1db4:	48 63 8f 34 17 00 00 	movslq 0x1734(%rdi),%rcx
    1dbb:	39 d9                	cmp    %ebx,%ecx
    1dbd:	7f 18                	jg     1dd7 <compress_block+0x3d7>
    1dbf:	42 0f b7 1c aa       	movzwl (%rdx,%r13,4),%ebx
    1dc4:	d3 e3                	shl    %cl,%ebx
    1dc6:	44 0f b7 bf 30 17 00 	movzwl 0x1730(%rdi),%r15d
    1dcd:	00 
    1dce:	66 44 09 fb          	or     %r15w,%bx
    1dd2:	44 01 f1             	add    %r14d,%ecx
    1dd5:	eb 6b                	jmp    1e42 <compress_block+0x442>
    1dd7:	42 0f b7 1c aa       	movzwl (%rdx,%r13,4),%ebx
    1ddc:	49 89 db             	mov    %rbx,%r11
    1ddf:	41 d3 e3             	shl    %cl,%r11d
    1de2:	0f b7 8f 30 17 00 00 	movzwl 0x1730(%rdi),%ecx
    1de9:	66 41 09 cb          	or     %cx,%r11w
    1ded:	66 44 89 9f 30 17 00 	mov    %r11w,0x1730(%rdi)
    1df4:	00 
    1df5:	4c 8b 7f 28          	mov    0x28(%rdi),%r15
    1df9:	49 8d 4f 01          	lea    0x1(%r15),%rcx
    1dfd:	48 89 4f 28          	mov    %rcx,0x28(%rdi)
    1e01:	48 8b 4f 10          	mov    0x10(%rdi),%rcx
    1e05:	45 88 1c 0f          	mov    %r11b,(%r15,%rcx,1)
    1e09:	4c 8b 5f 28          	mov    0x28(%rdi),%r11
    1e0d:	49 8d 4b 01          	lea    0x1(%r11),%rcx
    1e11:	48 89 4f 28          	mov    %rcx,0x28(%rdi)
    1e15:	0f b7 8f 30 17 00 00 	movzwl 0x1730(%rdi),%ecx
    1e1c:	c1 e9 08             	shr    $0x8,%ecx
    1e1f:	4c 8b 7f 10          	mov    0x10(%rdi),%r15
    1e23:	43 88 0c 3b          	mov    %cl,(%r11,%r15,1)
    1e27:	4c 63 9f 34 17 00 00 	movslq 0x1734(%rdi),%r11
    1e2e:	48 89 c1             	mov    %rax,%rcx
    1e31:	44 29 d9             	sub    %r11d,%ecx
    1e34:	d3 eb                	shr    %cl,%ebx
    1e36:	43 8d 4c 1e f0       	lea    -0x10(%r14,%r11,1),%ecx
    1e3b:	4c 8d 1d 00 00 00 00 	lea    0x0(%rip),%r11        # 1e42 <compress_block+0x442>
    1e42:	89 8f 34 17 00 00    	mov    %ecx,0x1734(%rdi)
    1e48:	66 89 9f 30 17 00 00 	mov    %bx,0x1730(%rdi)
    1e4f:	4c 8d 35 00 00 00 00 	lea    0x0(%rip),%r14        # 1e56 <compress_block+0x456>
    1e56:	4f 63 34 ae          	movslq (%r14,%r13,4),%r14
    1e5a:	45 85 f6             	test   %r14d,%r14d
    1e5d:	0f 84 c3 fc ff ff    	je     1b26 <compress_block+0x126>
    1e63:	4c 8d 3d 00 00 00 00 	lea    0x0(%rip),%r15        # 1e6a <compress_block+0x46a>
    1e6a:	47 8b 2c af          	mov    (%r15,%r13,4),%r13d
    1e6e:	45 29 ec             	sub    %r13d,%r12d
    1e71:	49 89 c5             	mov    %rax,%r13
    1e74:	45 29 f5             	sub    %r14d,%r13d
    1e77:	44 39 e9             	cmp    %r13d,%ecx
    1e7a:	7f 1c                	jg     1e98 <compress_block+0x498>
    1e7c:	41 d3 e4             	shl    %cl,%r12d
    1e7f:	66 44 09 e3          	or     %r12w,%bx
    1e83:	66 89 9f 30 17 00 00 	mov    %bx,0x1730(%rdi)
    1e8a:	44 01 f1             	add    %r14d,%ecx
    1e8d:	89 8f 34 17 00 00    	mov    %ecx,0x1734(%rdi)
    1e93:	e9 8e fc ff ff       	jmpq   1b26 <compress_block+0x126>
    1e98:	4d 89 e5             	mov    %r12,%r13
    1e9b:	41 d3 e5             	shl    %cl,%r13d
    1e9e:	66 44 09 eb          	or     %r13w,%bx
    1ea2:	66 89 9f 30 17 00 00 	mov    %bx,0x1730(%rdi)
    1ea9:	4c 8b 6f 28          	mov    0x28(%rdi),%r13
    1ead:	49 8d 4d 01          	lea    0x1(%r13),%rcx
    1eb1:	48 89 4f 28          	mov    %rcx,0x28(%rdi)
    1eb5:	48 8b 4f 10          	mov    0x10(%rdi),%rcx
    1eb9:	41 88 5c 0d 00       	mov    %bl,0x0(%r13,%rcx,1)
    1ebe:	48 8b 5f 28          	mov    0x28(%rdi),%rbx
    1ec2:	48 8d 4b 01          	lea    0x1(%rbx),%rcx
    1ec6:	48 89 4f 28          	mov    %rcx,0x28(%rdi)
    1eca:	0f b7 8f 30 17 00 00 	movzwl 0x1730(%rdi),%ecx
    1ed1:	c1 e9 08             	shr    $0x8,%ecx
    1ed4:	4c 8b 6f 10          	mov    0x10(%rdi),%r13
    1ed8:	42 88 0c 2b          	mov    %cl,(%rbx,%r13,1)
    1edc:	4c 63 af 34 17 00 00 	movslq 0x1734(%rdi),%r13
    1ee3:	48 89 c1             	mov    %rax,%rcx
    1ee6:	44 29 e9             	sub    %r13d,%ecx
    1ee9:	41 0f b7 dc          	movzwl %r12w,%ebx
    1eed:	d3 eb                	shr    %cl,%ebx
    1eef:	66 89 9f 30 17 00 00 	mov    %bx,0x1730(%rdi)
    1ef6:	43 8d 4c 2e f0       	lea    -0x10(%r14,%r13,1),%ecx
    1efb:	89 8f 34 17 00 00    	mov    %ecx,0x1734(%rdi)
    1f01:	e9 20 fc ff ff       	jmpq   1b26 <compress_block+0x126>
    1f06:	66 2e 0f 1f 84 00 00 	nopw   %cs:0x0(%rax,%rax,1)
    1f0d:	00 00 00 

0000000000001f10 <detect_data_type>:
    1f10:	55                   	push   %rbp
    1f11:	48 89 e5             	mov    %rsp,%rbp
    1f14:	31 f6                	xor    %esi,%esi
    1f16:	b9 7f c0 ff f3       	mov    $0xf3ffc07f,%ecx
    1f1b:	48 89 f2             	mov    %rsi,%rdx
    1f1e:	eb 22                	jmp    1f42 <detect_data_type+0x32>
    1f20:	48 89 c8             	mov    %rcx,%rax
    1f23:	48 83 e0 01          	and    $0x1,%rax
    1f27:	48 85 c0             	test   %rax,%rax
    1f2a:	74 10                	je     1f3c <detect_data_type+0x2c>
    1f2c:	48 63 c2             	movslq %edx,%rax
    1f2f:	0f b7 84 87 d4 00 00 	movzwl 0xd4(%rdi,%rax,4),%eax
    1f36:	00 
    1f37:	66 85 c0             	test   %ax,%ax
    1f3a:	75 1e                	jne    1f5a <detect_data_type+0x4a>
    1f3c:	48 d1 e9             	shr    %rcx
    1f3f:	83 c2 01             	add    $0x1,%edx
    1f42:	83 fa 1f             	cmp    $0x1f,%edx
    1f45:	7e d9                	jle    1f20 <detect_data_type+0x10>
    1f47:	b8 01 00 00 00       	mov    $0x1,%eax
    1f4c:	0f b7 8f f8 00 00 00 	movzwl 0xf8(%rdi),%ecx
    1f53:	66 85 c9             	test   %cx,%cx
    1f56:	74 07                	je     1f5f <detect_data_type+0x4f>
    1f58:	c9                   	leaveq 
    1f59:	c3                   	retq   
    1f5a:	48 89 f0             	mov    %rsi,%rax
    1f5d:	c9                   	leaveq 
    1f5e:	c3                   	retq   
    1f5f:	0f b7 8f fc 00 00 00 	movzwl 0xfc(%rdi),%ecx
    1f66:	66 85 c9             	test   %cx,%cx
    1f69:	74 02                	je     1f6d <detect_data_type+0x5d>
    1f6b:	c9                   	leaveq 
    1f6c:	c3                   	retq   
    1f6d:	0f b7 8f 08 01 00 00 	movzwl 0x108(%rdi),%ecx
    1f74:	66 85 c9             	test   %cx,%cx
    1f77:	75 07                	jne    1f80 <detect_data_type+0x70>
    1f79:	b9 20 00 00 00       	mov    $0x20,%ecx
    1f7e:	eb 15                	jmp    1f95 <detect_data_type+0x85>
    1f80:	c9                   	leaveq 
    1f81:	c3                   	retq   
    1f82:	48 63 d1             	movslq %ecx,%rdx
    1f85:	0f b7 94 97 d4 00 00 	movzwl 0xd4(%rdi,%rdx,4),%edx
    1f8c:	00 
    1f8d:	66 85 d2             	test   %dx,%dx
    1f90:	75 10                	jne    1fa2 <detect_data_type+0x92>
    1f92:	83 c1 01             	add    $0x1,%ecx
    1f95:	81 f9 ff 00 00 00    	cmp    $0xff,%ecx
    1f9b:	7e e5                	jle    1f82 <detect_data_type+0x72>
    1f9d:	48 89 f0             	mov    %rsi,%rax
    1fa0:	c9                   	leaveq 
    1fa1:	c3                   	retq   
    1fa2:	c9                   	leaveq 
    1fa3:	c3                   	retq   
    1fa4:	66 66 2e 0f 1f 84 00 	data16 nopw %cs:0x0(%rax,%rax,1)
    1fab:	00 00 00 00 
    1faf:	90                   	nop

0000000000001fb0 <bi_reverse>:
    1fb0:	55                   	push   %rbp
    1fb1:	48 89 e5             	mov    %rsp,%rbp
    1fb4:	31 c0                	xor    %eax,%eax
    1fb6:	eb 04                	jmp    1fbc <bi_reverse+0xc>
    1fb8:	d1 ef                	shr    %edi
    1fba:	01 c0                	add    %eax,%eax
    1fbc:	48 89 f9             	mov    %rdi,%rcx
    1fbf:	83 e1 01             	and    $0x1,%ecx
    1fc2:	01 c8                	add    %ecx,%eax
    1fc4:	83 c6 ff             	add    $0xffffffff,%esi
    1fc7:	85 f6                	test   %esi,%esi
    1fc9:	7f ed                	jg     1fb8 <bi_reverse+0x8>
    1fcb:	25 ff ff ff 7f       	and    $0x7fffffff,%eax
    1fd0:	c9                   	leaveq 
    1fd1:	c3                   	retq   
    1fd2:	66 66 2e 0f 1f 84 00 	data16 nopw %cs:0x0(%rax,%rax,1)
    1fd9:	00 00 00 00 
    1fdd:	0f 1f 00             	nopl   (%rax)

0000000000001fe0 <bi_windup>:
    1fe0:	55                   	push   %rbp
    1fe1:	48 89 e5             	mov    %rsp,%rbp
    1fe4:	48 63 87 34 17 00 00 	movslq 0x1734(%rdi),%rax
    1feb:	83 f8 08             	cmp    $0x8,%eax
    1fee:	7f 20                	jg     2010 <bi_windup+0x30>
    1ff0:	85 c0                	test   %eax,%eax
    1ff2:	7e 53                	jle    2047 <bi_windup+0x67>
    1ff4:	48 8b 4f 28          	mov    0x28(%rdi),%rcx
    1ff8:	48 8d 41 01          	lea    0x1(%rcx),%rax
    1ffc:	48 89 47 28          	mov    %rax,0x28(%rdi)
    2000:	0f b6 97 30 17 00 00 	movzbl 0x1730(%rdi),%edx
    2007:	48 8b 47 10          	mov    0x10(%rdi),%rax
    200b:	88 14 01             	mov    %dl,(%rcx,%rax,1)
    200e:	eb 37                	jmp    2047 <bi_windup+0x67>
    2010:	48 8b 4f 28          	mov    0x28(%rdi),%rcx
    2014:	48 8d 41 01          	lea    0x1(%rcx),%rax
    2018:	48 89 47 28          	mov    %rax,0x28(%rdi)
    201c:	0f b6 97 30 17 00 00 	movzbl 0x1730(%rdi),%edx
    2023:	48 8b 47 10          	mov    0x10(%rdi),%rax
    2027:	88 14 01             	mov    %dl,(%rcx,%rax,1)
    202a:	48 8b 57 28          	mov    0x28(%rdi),%rdx
    202e:	48 8d 42 01          	lea    0x1(%rdx),%rax
    2032:	48 89 47 28          	mov    %rax,0x28(%rdi)
    2036:	0f b7 87 30 17 00 00 	movzwl 0x1730(%rdi),%eax
    203d:	c1 e8 08             	shr    $0x8,%eax
    2040:	48 8b 4f 10          	mov    0x10(%rdi),%rcx
    2044:	88 04 0a             	mov    %al,(%rdx,%rcx,1)
    2047:	66 c7 87 30 17 00 00 	movw   $0x0,0x1730(%rdi)
    204e:	00 00 
    2050:	c7 87 34 17 00 00 00 	movl   $0x0,0x1734(%rdi)
    2057:	00 00 00 
    205a:	c9                   	leaveq 
    205b:	c3                   	retq   
    205c:	0f 1f 40 00          	nopl   0x0(%rax)

0000000000002060 <bi_flush>:
    2060:	55                   	push   %rbp
    2061:	48 89 e5             	mov    %rsp,%rbp
    2064:	48 63 87 34 17 00 00 	movslq 0x1734(%rdi),%rax
    206b:	83 f8 10             	cmp    $0x10,%eax
    206e:	74 07                	je     2077 <bi_flush+0x17>
    2070:	83 f8 07             	cmp    $0x7,%eax
    2073:	7f 4e                	jg     20c3 <bi_flush+0x63>
    2075:	c9                   	leaveq 
    2076:	c3                   	retq   
    2077:	48 8b 4f 28          	mov    0x28(%rdi),%rcx
    207b:	48 8d 41 01          	lea    0x1(%rcx),%rax
    207f:	48 89 47 28          	mov    %rax,0x28(%rdi)
    2083:	0f b6 97 30 17 00 00 	movzbl 0x1730(%rdi),%edx
    208a:	48 8b 47 10          	mov    0x10(%rdi),%rax
    208e:	88 14 01             	mov    %dl,(%rcx,%rax,1)
    2091:	48 8b 4f 28          	mov    0x28(%rdi),%rcx
    2095:	48 8d 41 01          	lea    0x1(%rcx),%rax
    2099:	48 89 47 28          	mov    %rax,0x28(%rdi)
    209d:	0f b7 87 30 17 00 00 	movzwl 0x1730(%rdi),%eax
    20a4:	c1 e8 08             	shr    $0x8,%eax
    20a7:	48 8b 57 10          	mov    0x10(%rdi),%rdx
    20ab:	88 04 11             	mov    %al,(%rcx,%rdx,1)
    20ae:	66 c7 87 30 17 00 00 	movw   $0x0,0x1730(%rdi)
    20b5:	00 00 
    20b7:	c7 87 34 17 00 00 00 	movl   $0x0,0x1734(%rdi)
    20be:	00 00 00 
    20c1:	c9                   	leaveq 
    20c2:	c3                   	retq   
    20c3:	48 8b 4f 28          	mov    0x28(%rdi),%rcx
    20c7:	48 8d 41 01          	lea    0x1(%rcx),%rax
    20cb:	48 89 47 28          	mov    %rax,0x28(%rdi)
    20cf:	0f b6 97 30 17 00 00 	movzbl 0x1730(%rdi),%edx
    20d6:	48 8b 47 10          	mov    0x10(%rdi),%rax
    20da:	88 14 01             	mov    %dl,(%rcx,%rax,1)
    20dd:	0f b7 87 30 17 00 00 	movzwl 0x1730(%rdi),%eax
    20e4:	66 c1 e8 08          	shr    $0x8,%ax
    20e8:	66 89 87 30 17 00 00 	mov    %ax,0x1730(%rdi)
    20ef:	48 63 87 34 17 00 00 	movslq 0x1734(%rdi),%rax
    20f6:	83 c0 f8             	add    $0xfffffff8,%eax
    20f9:	89 87 34 17 00 00    	mov    %eax,0x1734(%rdi)
    20ff:	c9                   	leaveq 
    2100:	c3                   	retq   

zutil.o:     file format elf64-x86-64


Disassembly of section .text:

0000000000000000 <zlibVersion>:
   0:	55                   	push   %rbp
   1:	48 89 e5             	mov    %rsp,%rbp
   4:	48 8d 05 00 00 00 00 	lea    0x0(%rip),%rax        # b <zlibVersion+0xb>
   b:	c9                   	leaveq 
   c:	c3                   	retq   
   d:	0f 1f 00             	nopl   (%rax)

0000000000000010 <zlibCompileFlags>:
  10:	55                   	push   %rbp
  11:	48 89 e5             	mov    %rsp,%rbp
  14:	b8 a9 00 00 00       	mov    $0xa9,%eax
  19:	c9                   	leaveq 
  1a:	c3                   	retq   
  1b:	0f 1f 44 00 00       	nopl   0x0(%rax,%rax,1)

0000000000000020 <zError>:
  20:	55                   	push   %rbp
  21:	48 89 e5             	mov    %rsp,%rbp
  24:	b8 02 00 00 00       	mov    $0x2,%eax
  29:	29 f8                	sub    %edi,%eax
  2b:	48 63 c8             	movslq %eax,%rcx
  2e:	48 8b 05 00 00 00 00 	mov    0x0(%rip),%rax        # 35 <zError+0x15>
  35:	48 8b 04 c8          	mov    (%rax,%rcx,8),%rax
  39:	c9                   	leaveq 
  3a:	c3                   	retq   
  3b:	0f 1f 44 00 00       	nopl   0x0(%rax,%rax,1)

0000000000000040 <zcalloc>:
  40:	55                   	push   %rbp
  41:	48 89 e5             	mov    %rsp,%rbp
  44:	0f af d6             	imul   %esi,%edx
  47:	89 d7                	mov    %edx,%edi
  49:	e8 00 00 00 00       	callq  4e <zcalloc+0xe>
  4e:	c9                   	leaveq 
  4f:	c3                   	retq   

0000000000000050 <zcfree>:
  50:	55                   	push   %rbp
  51:	48 89 e5             	mov    %rsp,%rbp
  54:	48 89 f7             	mov    %rsi,%rdi
  57:	e8 00 00 00 00       	callq  5c <zcfree+0xc>
  5c:	c9                   	leaveq 
  5d:	c3                   	retq   

compress.o:     file format elf64-x86-64


Disassembly of section .text:

0000000000000000 <compress>:
   0:	55                   	push   %rbp
   1:	48 89 e5             	mov    %rsp,%rbp
   4:	49 c7 c0 ff ff ff ff 	mov    $0xffffffffffffffff,%r8
   b:	e8 00 00 00 00       	callq  10 <compress+0x10>
  10:	c9                   	leaveq 
  11:	c3                   	retq   
  12:	66 66 2e 0f 1f 84 00 	data16 nopw %cs:0x0(%rax,%rax,1)
  19:	00 00 00 00 
  1d:	0f 1f 00             	nopl   (%rax)

0000000000000020 <compress2>:
  20:	55                   	push   %rbp
  21:	48 89 e5             	mov    %rsp,%rbp
  24:	48 81 ec b0 00 00 00 	sub    $0xb0,%rsp
  2b:	48 89 75 f8          	mov    %rsi,-0x8(%rbp)
  2f:	48 89 7d c8          	mov    %rdi,-0x38(%rbp)
  33:	48 89 55 c0          	mov    %rdx,-0x40(%rbp)
  37:	48 89 4d d8          	mov    %rcx,-0x28(%rbp)
  3b:	48 8b 06             	mov    (%rsi),%rax
  3e:	48 89 45 d0          	mov    %rax,-0x30(%rbp)
  42:	48 c7 06 00 00 00 00 	movq   $0x0,(%rsi)
  49:	4c 89 c6             	mov    %r8,%rsi
  4c:	48 c7 45 90 00 00 00 	movq   $0x0,-0x70(%rbp)
  53:	00 
  54:	48 c7 45 98 00 00 00 	movq   $0x0,-0x68(%rbp)
  5b:	00 
  5c:	48 c7 45 a0 00 00 00 	movq   $0x0,-0x60(%rbp)
  63:	00 
  64:	48 8d bd 50 ff ff ff 	lea    -0xb0(%rbp),%rdi
  6b:	48 8d 15 00 00 00 00 	lea    0x0(%rip),%rdx        # 72 <compress2+0x52>
  72:	b9 70 00 00 00       	mov    $0x70,%ecx
  77:	e8 00 00 00 00       	callq  7c <compress2+0x5c>
  7c:	85 c0                	test   %eax,%eax
  7e:	74 02                	je     82 <compress2+0x62>
  80:	c9                   	leaveq 
  81:	c3                   	retq   
  82:	48 8b 45 c8          	mov    -0x38(%rbp),%rax
  86:	48 89 85 68 ff ff ff 	mov    %rax,-0x98(%rbp)
  8d:	c7 85 70 ff ff ff 00 	movl   $0x0,-0x90(%rbp)
  94:	00 00 00 
  97:	48 8b 45 c0          	mov    -0x40(%rbp),%rax
  9b:	48 89 85 50 ff ff ff 	mov    %rax,-0xb0(%rbp)
  a2:	c7 85 58 ff ff ff 00 	movl   $0x0,-0xa8(%rbp)
  a9:	00 00 00 
  ac:	31 c0                	xor    %eax,%eax
  ae:	ba 04 00 00 00       	mov    $0x4,%edx
  b3:	b9 ff ff ff ff       	mov    $0xffffffff,%ecx
  b8:	48 89 5d f0          	mov    %rbx,-0x10(%rbp)
  bc:	4c 89 65 e8          	mov    %r12,-0x18(%rbp)
  c0:	4c 89 6d e0          	mov    %r13,-0x20(%rbp)
  c4:	4c 89 75 c8          	mov    %r14,-0x38(%rbp)
  c8:	4c 89 7d c0          	mov    %r15,-0x40(%rbp)
  cc:	49 89 c5             	mov    %rax,%r13
  cf:	49 89 d6             	mov    %rdx,%r14
  d2:	49 89 cf             	mov    %rcx,%r15
  d5:	48 8d bd 50 ff ff ff 	lea    -0xb0(%rbp),%rdi
  dc:	4c 8b 65 d0          	mov    -0x30(%rbp),%r12
  e0:	48 8b 5d d8          	mov    -0x28(%rbp),%rbx
  e4:	eb 07                	jmp    ed <compress2+0xcd>
  e6:	48 8d bd 50 ff ff ff 	lea    -0xb0(%rbp),%rdi
  ed:	8b 85 70 ff ff ff    	mov    -0x90(%rbp),%eax
  f3:	85 c0                	test   %eax,%eax
  f5:	75 13                	jne    10a <compress2+0xea>
  f7:	4d 39 fc             	cmp    %r15,%r12
  fa:	76 35                	jbe    131 <compress2+0x111>
  fc:	4c 89 f9             	mov    %r15,%rcx
  ff:	89 c8                	mov    %ecx,%eax
 101:	49 29 c4             	sub    %rax,%r12
 104:	89 8d 70 ff ff ff    	mov    %ecx,-0x90(%rbp)
 10a:	8b 85 58 ff ff ff    	mov    -0xa8(%rbp),%eax
 110:	85 c0                	test   %eax,%eax
 112:	75 13                	jne    127 <compress2+0x107>
 114:	4c 39 fb             	cmp    %r15,%rbx
 117:	76 1d                	jbe    136 <compress2+0x116>
 119:	4c 89 f9             	mov    %r15,%rcx
 11c:	89 c8                	mov    %ecx,%eax
 11e:	48 29 c3             	sub    %rax,%rbx
 121:	89 8d 58 ff ff ff    	mov    %ecx,-0xa8(%rbp)
 127:	48 85 db             	test   %rbx,%rbx
 12a:	75 0f                	jne    13b <compress2+0x11b>
 12c:	4c 89 f6             	mov    %r14,%rsi
 12f:	eb 0d                	jmp    13e <compress2+0x11e>
 131:	4c 89 e1             	mov    %r12,%rcx
 134:	eb c9                	jmp    ff <compress2+0xdf>
 136:	48 89 d9             	mov    %rbx,%rcx
 139:	eb e1                	jmp    11c <compress2+0xfc>
 13b:	4c 89 ee             	mov    %r13,%rsi
 13e:	e8 00 00 00 00       	callq  143 <compress2+0x123>
 143:	85 c0                	test   %eax,%eax
 145:	74 9f                	je     e6 <compress2+0xc6>
 147:	48 8b 8d 78 ff ff ff 	mov    -0x88(%rbp),%rcx
 14e:	48 8b 55 f8          	mov    -0x8(%rbp),%rdx
 152:	48 89 0a             	mov    %rcx,(%rdx)
 155:	49 89 c4             	mov    %rax,%r12
 158:	48 8d bd 50 ff ff ff 	lea    -0xb0(%rbp),%rdi
 15f:	e8 00 00 00 00       	callq  164 <compress2+0x144>
 164:	41 83 fc 01          	cmp    $0x1,%r12d
 168:	75 19                	jne    183 <compress2+0x163>
 16a:	4c 89 e8             	mov    %r13,%rax
 16d:	4c 8b 7d c0          	mov    -0x40(%rbp),%r15
 171:	4c 8b 75 c8          	mov    -0x38(%rbp),%r14
 175:	4c 8b 6d e0          	mov    -0x20(%rbp),%r13
 179:	4c 8b 65 e8          	mov    -0x18(%rbp),%r12
 17d:	48 8b 5d f0          	mov    -0x10(%rbp),%rbx
 181:	c9                   	leaveq 
 182:	c3                   	retq   
 183:	4c 89 e0             	mov    %r12,%rax
 186:	4c 8b 7d c0          	mov    -0x40(%rbp),%r15
 18a:	4c 8b 75 c8          	mov    -0x38(%rbp),%r14
 18e:	4c 8b 6d e0          	mov    -0x20(%rbp),%r13
 192:	4c 8b 65 e8          	mov    -0x18(%rbp),%r12
 196:	48 8b 5d f0          	mov    -0x10(%rbp),%rbx
 19a:	c9                   	leaveq 
 19b:	c3                   	retq   
 19c:	0f 1f 40 00          	nopl   0x0(%rax)

00000000000001a0 <compressBound>:
 1a0:	55                   	push   %rbp
 1a1:	48 89 e5             	mov    %rsp,%rbp
 1a4:	48 89 f8             	mov    %rdi,%rax
 1a7:	48 c1 e8 0c          	shr    $0xc,%rax
 1ab:	48 8d 0c 07          	lea    (%rdi,%rax,1),%rcx
 1af:	48 89 f8             	mov    %rdi,%rax
 1b2:	48 c1 e8 0e          	shr    $0xe,%rax
 1b6:	48 01 c8             	add    %rcx,%rax
 1b9:	48 c1 ef 19          	shr    $0x19,%rdi
 1bd:	48 8d 44 07 0d       	lea    0xd(%rdi,%rax,1),%rax
 1c2:	c9                   	leaveq 
 1c3:	c3                   	retq   

uncompr.o:     file format elf64-x86-64


Disassembly of section .text:

0000000000000000 <uncompress>:
   0:	55                   	push   %rbp
   1:	48 89 e5             	mov    %rsp,%rbp
   4:	48 83 ec 10          	sub    $0x10,%rsp
   8:	48 89 4d f8          	mov    %rcx,-0x8(%rbp)
   c:	48 8d 4d f8          	lea    -0x8(%rbp),%rcx
  10:	e8 00 00 00 00       	callq  15 <uncompress+0x15>
  15:	c9                   	leaveq 
  16:	c3                   	retq   
  17:	66 0f 1f 84 00 00 00 	nopw   0x0(%rax,%rax,1)
  1e:	00 00 

0000000000000020 <uncompress2>:
  20:	55                   	push   %rbp
  21:	48 89 e5             	mov    %rsp,%rbp
  24:	48 81 ec d0 00 00 00 	sub    $0xd0,%rsp
  2b:	48 89 4d c8          	mov    %rcx,-0x38(%rbp)
  2f:	48 89 75 d0          	mov    %rsi,-0x30(%rbp)
  33:	48 8b 01             	mov    (%rcx),%rax
  36:	48 89 45 c0          	mov    %rax,-0x40(%rbp)
  3a:	b8 01 00 00 00       	mov    $0x1,%eax
  3f:	48 8b 0e             	mov    (%rsi),%rcx
  42:	48 85 c9             	test   %rcx,%rcx
  45:	75 06                	jne    4d <uncompress2+0x2d>
  47:	48 8d 7d af          	lea    -0x51(%rbp),%rdi
  4b:	eb 0a                	jmp    57 <uncompress2+0x37>
  4d:	48 c7 06 00 00 00 00 	movq   $0x0,(%rsi)
  54:	48 89 c8             	mov    %rcx,%rax
  57:	48 89 7d b0          	mov    %rdi,-0x50(%rbp)
  5b:	48 89 45 b8          	mov    %rax,-0x48(%rbp)
  5f:	48 89 95 38 ff ff ff 	mov    %rdx,-0xc8(%rbp)
  66:	c7 85 40 ff ff ff 00 	movl   $0x0,-0xc0(%rbp)
  6d:	00 00 00 
  70:	48 c7 85 78 ff ff ff 	movq   $0x0,-0x88(%rbp)
  77:	00 00 00 00 
  7b:	48 c7 45 80 00 00 00 	movq   $0x0,-0x80(%rbp)
  82:	00 
  83:	48 c7 45 88 00 00 00 	movq   $0x0,-0x78(%rbp)
  8a:	00 
  8b:	48 8d bd 38 ff ff ff 	lea    -0xc8(%rbp),%rdi
  92:	48 8d 35 00 00 00 00 	lea    0x0(%rip),%rsi        # 99 <uncompress2+0x79>
  99:	ba 70 00 00 00       	mov    $0x70,%edx
  9e:	e8 00 00 00 00       	callq  a3 <uncompress2+0x83>
  a3:	85 c0                	test   %eax,%eax
  a5:	74 02                	je     a9 <uncompress2+0x89>
  a7:	c9                   	leaveq 
  a8:	c3                   	retq   
  a9:	48 8b 45 b0          	mov    -0x50(%rbp),%rax
  ad:	48 89 85 50 ff ff ff 	mov    %rax,-0xb0(%rbp)
  b4:	c7 85 58 ff ff ff 00 	movl   $0x0,-0xa8(%rbp)
  bb:	00 00 00 
  be:	31 c9                	xor    %ecx,%ecx
  c0:	b8 ff ff ff ff       	mov    $0xffffffff,%eax
  c5:	48 89 5d f8          	mov    %rbx,-0x8(%rbp)
  c9:	4c 89 65 f0          	mov    %r12,-0x10(%rbp)
  cd:	4c 89 6d e8          	mov    %r13,-0x18(%rbp)
  d1:	4c 89 75 e0          	mov    %r14,-0x20(%rbp)
  d5:	4c 89 7d d8          	mov    %r15,-0x28(%rbp)
  d9:	49 89 cd             	mov    %rcx,%r13
  dc:	49 89 c7             	mov    %rax,%r15
  df:	4c 8d b5 38 ff ff ff 	lea    -0xc8(%rbp),%r14
  e6:	48 8b 5d b8          	mov    -0x48(%rbp),%rbx
  ea:	4c 8b 65 c0          	mov    -0x40(%rbp),%r12
  ee:	8b 85 58 ff ff ff    	mov    -0xa8(%rbp),%eax
  f4:	85 c0                	test   %eax,%eax
  f6:	75 13                	jne    10b <uncompress2+0xeb>
  f8:	4c 39 fb             	cmp    %r15,%rbx
  fb:	76 76                	jbe    173 <uncompress2+0x153>
  fd:	4c 89 f9             	mov    %r15,%rcx
 100:	89 c8                	mov    %ecx,%eax
 102:	48 29 c3             	sub    %rax,%rbx
 105:	89 8d 58 ff ff ff    	mov    %ecx,-0xa8(%rbp)
 10b:	8b 85 40 ff ff ff    	mov    -0xc0(%rbp),%eax
 111:	85 c0                	test   %eax,%eax
 113:	75 13                	jne    128 <uncompress2+0x108>
 115:	4d 39 fc             	cmp    %r15,%r12
 118:	76 5e                	jbe    178 <uncompress2+0x158>
 11a:	4c 89 f9             	mov    %r15,%rcx
 11d:	89 c8                	mov    %ecx,%eax
 11f:	49 29 c4             	sub    %rax,%r12
 122:	89 8d 40 ff ff ff    	mov    %ecx,-0xc0(%rbp)
 128:	4c 89 f7             	mov    %r14,%rdi
 12b:	4c 89 ee             	mov    %r13,%rsi
 12e:	e8 00 00 00 00       	callq  133 <uncompress2+0x113>
 133:	85 c0                	test   %eax,%eax
 135:	74 b7                	je     ee <uncompress2+0xce>
 137:	8b 8d 40 ff ff ff    	mov    -0xc0(%rbp),%ecx
 13d:	49 8d 14 0c          	lea    (%r12,%rcx,1),%rdx
 141:	48 8b 75 c8          	mov    -0x38(%rbp),%rsi
 145:	48 8b 0e             	mov    (%rsi),%rcx
 148:	48 29 d1             	sub    %rdx,%rcx
 14b:	48 89 0e             	mov    %rcx,(%rsi)
 14e:	48 8d 55 af          	lea    -0x51(%rbp),%rdx
 152:	48 8b 4d b0          	mov    -0x50(%rbp),%rcx
 156:	48 39 d1             	cmp    %rdx,%rcx
 159:	75 22                	jne    17d <uncompress2+0x15d>
 15b:	48 8b 8d 60 ff ff ff 	mov    -0xa0(%rbp),%rcx
 162:	48 85 c9             	test   %rcx,%rcx
 165:	74 24                	je     18b <uncompress2+0x16b>
 167:	83 f8 fb             	cmp    $0xfffffffb,%eax
 16a:	75 1f                	jne    18b <uncompress2+0x16b>
 16c:	bb 01 00 00 00       	mov    $0x1,%ebx
 171:	eb 18                	jmp    18b <uncompress2+0x16b>
 173:	48 89 d9             	mov    %rbx,%rcx
 176:	eb 88                	jmp    100 <uncompress2+0xe0>
 178:	4c 89 e1             	mov    %r12,%rcx
 17b:	eb a0                	jmp    11d <uncompress2+0xfd>
 17d:	48 8b 8d 60 ff ff ff 	mov    -0xa0(%rbp),%rcx
 184:	48 8b 55 d0          	mov    -0x30(%rbp),%rdx
 188:	48 89 0a             	mov    %rcx,(%rdx)
 18b:	4c 89 f7             	mov    %r14,%rdi
 18e:	49 89 c4             	mov    %rax,%r12
 191:	e8 00 00 00 00       	callq  196 <uncompress2+0x176>
 196:	41 83 fc 01          	cmp    $0x1,%r12d
 19a:	75 19                	jne    1b5 <uncompress2+0x195>
 19c:	4c 89 e8             	mov    %r13,%rax
 19f:	4c 8b 7d d8          	mov    -0x28(%rbp),%r15
 1a3:	4c 8b 75 e0          	mov    -0x20(%rbp),%r14
 1a7:	4c 8b 6d e8          	mov    -0x18(%rbp),%r13
 1ab:	4c 8b 65 f0          	mov    -0x10(%rbp),%r12
 1af:	48 8b 5d f8          	mov    -0x8(%rbp),%rbx
 1b3:	c9                   	leaveq 
 1b4:	c3                   	retq   
 1b5:	48 c7 c0 fd ff ff ff 	mov    $0xfffffffffffffffd,%rax
 1bc:	41 83 fc 02          	cmp    $0x2,%r12d
 1c0:	75 16                	jne    1d8 <uncompress2+0x1b8>
 1c2:	4c 8b 7d d8          	mov    -0x28(%rbp),%r15
 1c6:	4c 8b 75 e0          	mov    -0x20(%rbp),%r14
 1ca:	4c 8b 6d e8          	mov    -0x18(%rbp),%r13
 1ce:	4c 8b 65 f0          	mov    -0x10(%rbp),%r12
 1d2:	48 8b 5d f8          	mov    -0x8(%rbp),%rbx
 1d6:	c9                   	leaveq 
 1d7:	c3                   	retq   
 1d8:	41 83 fc fb          	cmp    $0xfffffffb,%r12d
 1dc:	74 19                	je     1f7 <uncompress2+0x1d7>
 1de:	4c 89 e0             	mov    %r12,%rax
 1e1:	4c 8b 7d d8          	mov    -0x28(%rbp),%r15
 1e5:	4c 8b 75 e0          	mov    -0x20(%rbp),%r14
 1e9:	4c 8b 6d e8          	mov    -0x18(%rbp),%r13
 1ed:	4c 8b 65 f0          	mov    -0x10(%rbp),%r12
 1f1:	48 8b 5d f8          	mov    -0x8(%rbp),%rbx
 1f5:	c9                   	leaveq 
 1f6:	c3                   	retq   
 1f7:	8b 8d 58 ff ff ff    	mov    -0xa8(%rbp),%ecx
 1fd:	48 01 d9             	add    %rbx,%rcx
 200:	48 85 c9             	test   %rcx,%rcx
 203:	74 16                	je     21b <uncompress2+0x1fb>
 205:	4c 8b 7d d8          	mov    -0x28(%rbp),%r15
 209:	4c 8b 75 e0          	mov    -0x20(%rbp),%r14
 20d:	4c 8b 6d e8          	mov    -0x18(%rbp),%r13
 211:	4c 8b 65 f0          	mov    -0x10(%rbp),%r12
 215:	48 8b 5d f8          	mov    -0x8(%rbp),%rbx
 219:	c9                   	leaveq 
 21a:	c3                   	retq   
 21b:	48 c7 c0 fb ff ff ff 	mov    $0xfffffffffffffffb,%rax
 222:	4c 8b 7d d8          	mov    -0x28(%rbp),%r15
 226:	4c 8b 75 e0          	mov    -0x20(%rbp),%r14
 22a:	4c 8b 6d e8          	mov    -0x18(%rbp),%r13
 22e:	4c 8b 65 f0          	mov    -0x10(%rbp),%r12
 232:	48 8b 5d f8          	mov    -0x8(%rbp),%rbx
 236:	c9                   	leaveq 
 237:	c3                   	retq   

gzclose.o:     file format elf64-x86-64


Disassembly of section .text:

0000000000000000 <gzclose>:
   0:	55                   	push   %rbp
   1:	48 89 e5             	mov    %rsp,%rbp
   4:	48 85 ff             	test   %rdi,%rdi
   7:	75 09                	jne    12 <gzclose+0x12>
   9:	48 c7 c0 fe ff ff ff 	mov    $0xfffffffffffffffe,%rax
  10:	c9                   	leaveq 
  11:	c3                   	retq   
  12:	48 63 47 18          	movslq 0x18(%rdi),%rax
  16:	3d 4f 1c 00 00       	cmp    $0x1c4f,%eax
  1b:	74 07                	je     24 <gzclose+0x24>
  1d:	e8 00 00 00 00       	callq  22 <gzclose+0x22>
  22:	c9                   	leaveq 
  23:	c3                   	retq   
  24:	e8 00 00 00 00       	callq  29 <gzclose+0x29>
  29:	c9                   	leaveq 
  2a:	c3                   	retq   

gzlib.o:     file format elf64-x86-64


Disassembly of section .text:

0000000000000000 <gzdopen>:
   0:	55                   	push   %rbp
   1:	48 89 e5             	mov    %rsp,%rbp
   4:	48 83 ec 20          	sub    $0x20,%rsp
   8:	31 c0                	xor    %eax,%eax
   a:	83 ff ff             	cmp    $0xffffffff,%edi
   d:	75 02                	jne    11 <gzdopen+0x11>
   f:	c9                   	leaveq 
  10:	c3                   	retq   
  11:	b8 13 00 00 00       	mov    $0x13,%eax
  16:	48 89 7d e8          	mov    %rdi,-0x18(%rbp)
  1a:	48 89 75 f8          	mov    %rsi,-0x8(%rbp)
  1e:	48 89 c7             	mov    %rax,%rdi
  21:	e8 00 00 00 00       	callq  26 <gzdopen+0x26>
  26:	48 85 c0             	test   %rax,%rax
  29:	75 04                	jne    2f <gzdopen+0x2f>
  2b:	31 c0                	xor    %eax,%eax
  2d:	c9                   	leaveq 
  2e:	c3                   	retq   
  2f:	45 31 c0             	xor    %r8d,%r8d
  32:	48 8d 15 00 00 00 00 	lea    0x0(%rip),%rdx        # 39 <gzdopen+0x39>
  39:	48 89 c7             	mov    %rax,%rdi
  3c:	4c 8b 4d e8          	mov    -0x18(%rbp),%r9
  40:	4c 89 c9             	mov    %r9,%rcx
  43:	4c 89 75 f0          	mov    %r14,-0x10(%rbp)
  47:	4c 89 7d e8          	mov    %r15,-0x18(%rbp)
  4b:	49 89 c6             	mov    %rax,%r14
  4e:	4c 89 c0             	mov    %r8,%rax
  51:	4d 89 cf             	mov    %r9,%r15
  54:	be 13 00 00 00       	mov    $0x13,%esi
  59:	e8 00 00 00 00       	callq  5e <gzdopen+0x5e>
  5e:	4c 89 fe             	mov    %r15,%rsi
  61:	4c 89 f7             	mov    %r14,%rdi
  64:	48 8b 55 f8          	mov    -0x8(%rbp),%rdx
  68:	e8 43 06 00 00       	callq  6b0 <gz_open>
  6d:	4c 89 f7             	mov    %r14,%rdi
  70:	49 89 c6             	mov    %rax,%r14
  73:	e8 00 00 00 00       	callq  78 <gzdopen+0x78>
  78:	4c 89 f0             	mov    %r14,%rax
  7b:	4c 8b 7d e8          	mov    -0x18(%rbp),%r15
  7f:	4c 8b 75 f0          	mov    -0x10(%rbp),%r14
  83:	c9                   	leaveq 
  84:	c3                   	retq   
  85:	66 66 2e 0f 1f 84 00 	data16 nopw %cs:0x0(%rax,%rax,1)
  8c:	00 00 00 00 

0000000000000090 <gzbuffer>:
  90:	55                   	push   %rbp
  91:	48 89 e5             	mov    %rsp,%rbp
  94:	48 c7 c0 ff ff ff ff 	mov    $0xffffffffffffffff,%rax
  9b:	48 85 ff             	test   %rdi,%rdi
  9e:	75 02                	jne    a2 <gzbuffer+0x12>
  a0:	c9                   	leaveq 
  a1:	c3                   	retq   
  a2:	48 63 4f 18          	movslq 0x18(%rdi),%rcx
  a6:	81 f9 4f 1c 00 00    	cmp    $0x1c4f,%ecx
  ac:	75 09                	jne    b7 <gzbuffer+0x27>
  ae:	8b 4f 28             	mov    0x28(%rdi),%ecx
  b1:	85 c9                	test   %ecx,%ecx
  b3:	74 0c                	je     c1 <gzbuffer+0x31>
  b5:	c9                   	leaveq 
  b6:	c3                   	retq   
  b7:	81 f9 b1 79 00 00    	cmp    $0x79b1,%ecx
  bd:	74 ef                	je     ae <gzbuffer+0x1e>
  bf:	c9                   	leaveq 
  c0:	c3                   	retq   
  c1:	8d 0c 36             	lea    (%rsi,%rsi,1),%ecx
  c4:	39 ce                	cmp    %ecx,%esi
  c6:	76 02                	jbe    ca <gzbuffer+0x3a>
  c8:	c9                   	leaveq 
  c9:	c3                   	retq   
  ca:	83 fe 01             	cmp    $0x1,%esi
  cd:	77 05                	ja     d4 <gzbuffer+0x44>
  cf:	be 02 00 00 00       	mov    $0x2,%esi
  d4:	89 77 2c             	mov    %esi,0x2c(%rdi)
  d7:	31 c0                	xor    %eax,%eax
  d9:	c9                   	leaveq 
  da:	c3                   	retq   
  db:	0f 1f 44 00 00       	nopl   0x0(%rax,%rax,1)

00000000000000e0 <gzrewind>:
  e0:	55                   	push   %rbp
  e1:	48 89 e5             	mov    %rsp,%rbp
  e4:	48 83 ec 10          	sub    $0x10,%rsp
  e8:	48 c7 c0 ff ff ff ff 	mov    $0xffffffffffffffff,%rax
  ef:	48 85 ff             	test   %rdi,%rdi
  f2:	75 02                	jne    f6 <gzrewind+0x16>
  f4:	c9                   	leaveq 
  f5:	c3                   	retq   
  f6:	48 63 4f 18          	movslq 0x18(%rdi),%rcx
  fa:	81 f9 4f 1c 00 00    	cmp    $0x1c4f,%ecx
 100:	74 02                	je     104 <gzrewind+0x24>
 102:	c9                   	leaveq 
 103:	c3                   	retq   
 104:	48 63 4f 6c          	movslq 0x6c(%rdi),%rcx
 108:	85 c9                	test   %ecx,%ecx
 10a:	75 25                	jne    131 <gzrewind+0x51>
 10c:	48 63 47 1c          	movslq 0x1c(%rdi),%rax
 110:	48 8b 77 48          	mov    0x48(%rdi),%rsi
 114:	31 d2                	xor    %edx,%edx
 116:	48 89 7d f8          	mov    %rdi,-0x8(%rbp)
 11a:	48 89 c7             	mov    %rax,%rdi
 11d:	e8 00 00 00 00       	callq  122 <gzrewind+0x42>
 122:	48 83 f8 ff          	cmp    $0xffffffffffffffff,%rax
 126:	75 10                	jne    138 <gzrewind+0x58>
 128:	48 c7 c0 ff ff ff ff 	mov    $0xffffffffffffffff,%rax
 12f:	c9                   	leaveq 
 130:	c3                   	retq   
 131:	83 f9 fb             	cmp    $0xfffffffb,%ecx
 134:	74 d6                	je     10c <gzrewind+0x2c>
 136:	c9                   	leaveq 
 137:	c3                   	retq   
 138:	48 8b 7d f8          	mov    -0x8(%rbp),%rdi
 13c:	e8 0f 05 00 00       	callq  650 <gz_reset>
 141:	31 c0                	xor    %eax,%eax
 143:	c9                   	leaveq 
 144:	c3                   	retq   
 145:	66 66 2e 0f 1f 84 00 	data16 nopw %cs:0x0(%rax,%rax,1)
 14c:	00 00 00 00 

0000000000000150 <gzeof>:
 150:	55                   	push   %rbp
 151:	48 89 e5             	mov    %rsp,%rbp
 154:	31 c0                	xor    %eax,%eax
 156:	48 85 ff             	test   %rdi,%rdi
 159:	75 02                	jne    15d <gzeof+0xd>
 15b:	c9                   	leaveq 
 15c:	c3                   	retq   
 15d:	48 63 4f 18          	movslq 0x18(%rdi),%rcx
 161:	81 f9 4f 1c 00 00    	cmp    $0x1c4f,%ecx
 167:	75 0a                	jne    173 <gzeof+0x23>
 169:	81 f9 4f 1c 00 00    	cmp    $0x1c4f,%ecx
 16f:	74 0c                	je     17d <gzeof+0x2d>
 171:	c9                   	leaveq 
 172:	c3                   	retq   
 173:	81 f9 b1 79 00 00    	cmp    $0x79b1,%ecx
 179:	74 ee                	je     169 <gzeof+0x19>
 17b:	c9                   	leaveq 
 17c:	c3                   	retq   
 17d:	48 63 47 54          	movslq 0x54(%rdi),%rax
 181:	c9                   	leaveq 
 182:	c3                   	retq   
 183:	66 66 2e 0f 1f 84 00 	data16 nopw %cs:0x0(%rax,%rax,1)
 18a:	00 00 00 00 
 18e:	66 90                	xchg   %ax,%ax

0000000000000190 <gzerror>:
 190:	55                   	push   %rbp
 191:	48 89 e5             	mov    %rsp,%rbp
 194:	31 c0                	xor    %eax,%eax
 196:	48 85 ff             	test   %rdi,%rdi
 199:	75 02                	jne    19d <gzerror+0xd>
 19b:	c9                   	leaveq 
 19c:	c3                   	retq   
 19d:	48 63 4f 18          	movslq 0x18(%rdi),%rcx
 1a1:	81 f9 4f 1c 00 00    	cmp    $0x1c4f,%ecx
 1a7:	75 1d                	jne    1c6 <gzerror+0x36>
 1a9:	48 85 f6             	test   %rsi,%rsi
 1ac:	74 06                	je     1b4 <gzerror+0x24>
 1ae:	48 63 47 6c          	movslq 0x6c(%rdi),%rax
 1b2:	89 06                	mov    %eax,(%rsi)
 1b4:	48 63 47 6c          	movslq 0x6c(%rdi),%rax
 1b8:	83 f8 fc             	cmp    $0xfffffffc,%eax
 1bb:	75 13                	jne    1d0 <gzerror+0x40>
 1bd:	48 8d 05 00 00 00 00 	lea    0x0(%rip),%rax        # 1c4 <gzerror+0x34>
 1c4:	c9                   	leaveq 
 1c5:	c3                   	retq   
 1c6:	81 f9 b1 79 00 00    	cmp    $0x79b1,%ecx
 1cc:	74 db                	je     1a9 <gzerror+0x19>
 1ce:	c9                   	leaveq 
 1cf:	c3                   	retq   
 1d0:	48 8b 47 70          	mov    0x70(%rdi),%rax
 1d4:	48 85 c0             	test   %rax,%rax
 1d7:	75 09                	jne    1e2 <gzerror+0x52>
 1d9:	48 8d 05 00 00 00 00 	lea    0x0(%rip),%rax        # 1e0 <gzerror+0x50>
 1e0:	c9                   	leaveq 
 1e1:	c3                   	retq   
 1e2:	c9                   	leaveq 
 1e3:	c3                   	retq   
 1e4:	66 66 2e 0f 1f 84 00 	data16 nopw %cs:0x0(%rax,%rax,1)
 1eb:	00 00 00 00 
 1ef:	90                   	nop

00000000000001f0 <gzclearerr>:
 1f0:	55                   	push   %rbp
 1f1:	48 89 e5             	mov    %rsp,%rbp
 1f4:	48 85 ff             	test   %rdi,%rdi
 1f7:	75 02                	jne    1fb <gzclearerr+0xb>
 1f9:	c9                   	leaveq 
 1fa:	c3                   	retq   
 1fb:	48 63 47 18          	movslq 0x18(%rdi),%rax
 1ff:	3d 4f 1c 00 00       	cmp    $0x1c4f,%eax
 204:	75 21                	jne    227 <gzclearerr+0x37>
 206:	3d 4f 1c 00 00       	cmp    $0x1c4f,%eax
 20b:	75 0e                	jne    21b <gzclearerr+0x2b>
 20d:	c7 47 50 00 00 00 00 	movl   $0x0,0x50(%rdi)
 214:	c7 47 54 00 00 00 00 	movl   $0x0,0x54(%rdi)
 21b:	31 f6                	xor    %esi,%esi
 21d:	48 89 f2             	mov    %rsi,%rdx
 220:	e8 00 00 00 00       	callq  225 <gzclearerr+0x35>
 225:	c9                   	leaveq 
 226:	c3                   	retq   
 227:	3d b1 79 00 00       	cmp    $0x79b1,%eax
 22c:	74 d8                	je     206 <gzclearerr+0x16>
 22e:	c9                   	leaveq 
 22f:	c3                   	retq   

0000000000000230 <gzopen64>:
 230:	55                   	push   %rbp
 231:	48 89 e5             	mov    %rsp,%rbp
 234:	48 89 f2             	mov    %rsi,%rdx
 237:	48 c7 c6 ff ff ff ff 	mov    $0xffffffffffffffff,%rsi
 23e:	e8 6d 04 00 00       	callq  6b0 <gz_open>
 243:	c9                   	leaveq 
 244:	c3                   	retq   
 245:	66 66 2e 0f 1f 84 00 	data16 nopw %cs:0x0(%rax,%rax,1)
 24c:	00 00 00 00 

0000000000000250 <gzseek64>:
 250:	55                   	push   %rbp
 251:	48 89 e5             	mov    %rsp,%rbp
 254:	48 83 ec 10          	sub    $0x10,%rsp
 258:	48 c7 c0 ff ff ff ff 	mov    $0xffffffffffffffff,%rax
 25f:	48 85 ff             	test   %rdi,%rdi
 262:	75 02                	jne    266 <gzseek64+0x16>
 264:	c9                   	leaveq 
 265:	c3                   	retq   
 266:	48 63 4f 18          	movslq 0x18(%rdi),%rcx
 26a:	81 f9 4f 1c 00 00    	cmp    $0x1c4f,%ecx
 270:	75 1e                	jne    290 <gzseek64+0x40>
 272:	48 63 4f 6c          	movslq 0x6c(%rdi),%rcx
 276:	85 c9                	test   %ecx,%ecx
 278:	75 20                	jne    29a <gzseek64+0x4a>
 27a:	85 d2                	test   %edx,%edx
 27c:	75 23                	jne    2a1 <gzseek64+0x51>
 27e:	85 d2                	test   %edx,%edx
 280:	74 26                	je     2a8 <gzseek64+0x58>
 282:	48 63 4f 68          	movslq 0x68(%rdi),%rcx
 286:	85 c9                	test   %ecx,%ecx
 288:	74 25                	je     2af <gzseek64+0x5f>
 28a:	48 03 77 60          	add    0x60(%rdi),%rsi
 28e:	eb 1f                	jmp    2af <gzseek64+0x5f>
 290:	81 f9 b1 79 00 00    	cmp    $0x79b1,%ecx
 296:	74 da                	je     272 <gzseek64+0x22>
 298:	c9                   	leaveq 
 299:	c3                   	retq   
 29a:	83 f9 fb             	cmp    $0xfffffffb,%ecx
 29d:	74 db                	je     27a <gzseek64+0x2a>
 29f:	c9                   	leaveq 
 2a0:	c3                   	retq   
 2a1:	83 fa 01             	cmp    $0x1,%edx
 2a4:	74 d8                	je     27e <gzseek64+0x2e>
 2a6:	c9                   	leaveq 
 2a7:	c3                   	retq   
 2a8:	48 8b 4f 10          	mov    0x10(%rdi),%rcx
 2ac:	48 29 ce             	sub    %rcx,%rsi
 2af:	c7 47 68 00 00 00 00 	movl   $0x0,0x68(%rdi)
 2b6:	48 63 4f 18          	movslq 0x18(%rdi),%rcx
 2ba:	81 f9 4f 1c 00 00    	cmp    $0x1c4f,%ecx
 2c0:	74 20                	je     2e2 <gzseek64+0x92>
 2c2:	48 85 f6             	test   %rsi,%rsi
 2c5:	78 63                	js     32a <gzseek64+0xda>
 2c7:	48 63 47 18          	movslq 0x18(%rdi),%rax
 2cb:	3d 4f 1c 00 00       	cmp    $0x1c4f,%eax
 2d0:	0f 85 88 00 00 00    	jne    35e <gzseek64+0x10e>
 2d6:	8b 07                	mov    (%rdi),%eax
 2d8:	48 39 c6             	cmp    %rax,%rsi
 2db:	7c 5f                	jl     33c <gzseek64+0xec>
 2dd:	48 89 c1             	mov    %rax,%rcx
 2e0:	eb 5d                	jmp    33f <gzseek64+0xef>
 2e2:	48 63 4f 44          	movslq 0x44(%rdi),%rcx
 2e6:	83 f9 01             	cmp    $0x1,%ecx
 2e9:	75 d7                	jne    2c2 <gzseek64+0x72>
 2eb:	48 89 f1             	mov    %rsi,%rcx
 2ee:	48 03 4f 10          	add    0x10(%rdi),%rcx
 2f2:	48 85 c9             	test   %rcx,%rcx
 2f5:	78 cb                	js     2c2 <gzseek64+0x72>
 2f7:	8b 07                	mov    (%rdi),%eax
 2f9:	48 f7 d8             	neg    %rax
 2fc:	48 01 f0             	add    %rsi,%rax
 2ff:	48 63 4f 1c          	movslq 0x1c(%rdi),%rcx
 303:	ba 01 00 00 00       	mov    $0x1,%edx
 308:	48 89 7d f0          	mov    %rdi,-0x10(%rbp)
 30c:	48 89 75 f8          	mov    %rsi,-0x8(%rbp)
 310:	48 89 c6             	mov    %rax,%rsi
 313:	48 89 cf             	mov    %rcx,%rdi
 316:	e8 00 00 00 00       	callq  31b <gzseek64+0xcb>
 31b:	48 83 f8 ff          	cmp    $0xffffffffffffffff,%rax
 31f:	75 56                	jne    377 <gzseek64+0x127>
 321:	48 c7 c0 ff ff ff ff 	mov    $0xffffffffffffffff,%rax
 328:	c9                   	leaveq 
 329:	c3                   	retq   
 32a:	48 63 4f 18          	movslq 0x18(%rdi),%rcx
 32e:	81 f9 4f 1c 00 00    	cmp    $0x1c4f,%ecx
 334:	0f 84 8d 00 00 00    	je     3c7 <gzseek64+0x177>
 33a:	c9                   	leaveq 
 33b:	c3                   	retq   
 33c:	48 89 f1             	mov    %rsi,%rcx
 33f:	29 c8                	sub    %ecx,%eax
 341:	89 07                	mov    %eax,(%rdi)
 343:	89 c9                	mov    %ecx,%ecx
 345:	48 89 c8             	mov    %rcx,%rax
 348:	48 03 47 08          	add    0x8(%rdi),%rax
 34c:	48 89 47 08          	mov    %rax,0x8(%rdi)
 350:	48 89 c8             	mov    %rcx,%rax
 353:	48 03 47 10          	add    0x10(%rdi),%rax
 357:	48 89 47 10          	mov    %rax,0x10(%rdi)
 35b:	48 29 ce             	sub    %rcx,%rsi
 35e:	48 85 f6             	test   %rsi,%rsi
 361:	74 0b                	je     36e <gzseek64+0x11e>
 363:	c7 47 68 01 00 00 00 	movl   $0x1,0x68(%rdi)
 36a:	48 89 77 60          	mov    %rsi,0x60(%rdi)
 36e:	48 03 77 10          	add    0x10(%rdi),%rsi
 372:	48 89 f0             	mov    %rsi,%rax
 375:	c9                   	leaveq 
 376:	c3                   	retq   
 377:	48 8b 45 f0          	mov    -0x10(%rbp),%rax
 37b:	c7 00 00 00 00 00    	movl   $0x0,(%rax)
 381:	c7 40 50 00 00 00 00 	movl   $0x0,0x50(%rax)
 388:	c7 40 54 00 00 00 00 	movl   $0x0,0x54(%rax)
 38f:	c7 40 68 00 00 00 00 	movl   $0x0,0x68(%rax)
 396:	31 f6                	xor    %esi,%esi
 398:	48 89 f2             	mov    %rsi,%rdx
 39b:	48 89 c7             	mov    %rax,%rdi
 39e:	4c 89 7d f0          	mov    %r15,-0x10(%rbp)
 3a2:	49 89 c7             	mov    %rax,%r15
 3a5:	e8 00 00 00 00       	callq  3aa <gzseek64+0x15a>
 3aa:	41 c7 87 80 00 00 00 	movl   $0x0,0x80(%r15)
 3b1:	00 00 00 00 
 3b5:	48 8b 45 f8          	mov    -0x8(%rbp),%rax
 3b9:	49 03 47 10          	add    0x10(%r15),%rax
 3bd:	49 89 47 10          	mov    %rax,0x10(%r15)
 3c1:	4c 8b 7d f0          	mov    -0x10(%rbp),%r15
 3c5:	c9                   	leaveq 
 3c6:	c3                   	retq   
 3c7:	48 03 77 10          	add    0x10(%rdi),%rsi
 3cb:	48 85 f6             	test   %rsi,%rsi
 3ce:	79 02                	jns    3d2 <gzseek64+0x182>
 3d0:	c9                   	leaveq 
 3d1:	c3                   	retq   
 3d2:	48 89 f8             	mov    %rdi,%rax
 3d5:	48 89 7d f0          	mov    %rdi,-0x10(%rbp)
 3d9:	48 89 75 f8          	mov    %rsi,-0x8(%rbp)
 3dd:	48 89 c7             	mov    %rax,%rdi
 3e0:	e8 00 00 00 00       	callq  3e5 <gzseek64+0x195>
 3e5:	83 f8 ff             	cmp    $0xffffffff,%eax
 3e8:	74 0d                	je     3f7 <gzseek64+0x1a7>
 3ea:	48 8b 75 f8          	mov    -0x8(%rbp),%rsi
 3ee:	48 8b 7d f0          	mov    -0x10(%rbp),%rdi
 3f2:	e9 d0 fe ff ff       	jmpq   2c7 <gzseek64+0x77>
 3f7:	48 c7 c0 ff ff ff ff 	mov    $0xffffffffffffffff,%rax
 3fe:	c9                   	leaveq 
 3ff:	c3                   	retq   

0000000000000400 <gztell64>:
 400:	55                   	push   %rbp
 401:	48 89 e5             	mov    %rsp,%rbp
 404:	48 c7 c0 ff ff ff ff 	mov    $0xffffffffffffffff,%rax
 40b:	48 85 ff             	test   %rdi,%rdi
 40e:	75 02                	jne    412 <gztell64+0x12>
 410:	c9                   	leaveq 
 411:	c3                   	retq   
 412:	48 63 4f 18          	movslq 0x18(%rdi),%rcx
 416:	81 f9 4f 1c 00 00    	cmp    $0x1c4f,%ecx
 41c:	75 10                	jne    42e <gztell64+0x2e>
 41e:	48 8b 4f 10          	mov    0x10(%rdi),%rcx
 422:	48 63 47 68          	movslq 0x68(%rdi),%rax
 426:	85 c0                	test   %eax,%eax
 428:	75 0e                	jne    438 <gztell64+0x38>
 42a:	31 c0                	xor    %eax,%eax
 42c:	eb 0e                	jmp    43c <gztell64+0x3c>
 42e:	81 f9 b1 79 00 00    	cmp    $0x79b1,%ecx
 434:	74 e8                	je     41e <gztell64+0x1e>
 436:	c9                   	leaveq 
 437:	c3                   	retq   
 438:	48 8b 47 60          	mov    0x60(%rdi),%rax
 43c:	48 01 c8             	add    %rcx,%rax
 43f:	c9                   	leaveq 
 440:	c3                   	retq   
 441:	66 66 2e 0f 1f 84 00 	data16 nopw %cs:0x0(%rax,%rax,1)
 448:	00 00 00 00 
 44c:	0f 1f 40 00          	nopl   0x0(%rax)

0000000000000450 <gzoffset64>:
 450:	55                   	push   %rbp
 451:	48 89 e5             	mov    %rsp,%rbp
 454:	48 83 ec 10          	sub    $0x10,%rsp
 458:	48 c7 c0 ff ff ff ff 	mov    $0xffffffffffffffff,%rax
 45f:	48 85 ff             	test   %rdi,%rdi
 462:	75 02                	jne    466 <gzoffset64+0x16>
 464:	c9                   	leaveq 
 465:	c3                   	retq   
 466:	48 63 4f 18          	movslq 0x18(%rdi),%rcx
 46a:	81 f9 4f 1c 00 00    	cmp    $0x1c4f,%ecx
 470:	75 26                	jne    498 <gzoffset64+0x48>
 472:	48 63 47 1c          	movslq 0x1c(%rdi),%rax
 476:	31 f6                	xor    %esi,%esi
 478:	ba 01 00 00 00       	mov    $0x1,%edx
 47d:	48 89 7d f8          	mov    %rdi,-0x8(%rbp)
 481:	48 89 c7             	mov    %rax,%rdi
 484:	e8 00 00 00 00       	callq  489 <gzoffset64+0x39>
 489:	48 83 f8 ff          	cmp    $0xffffffffffffffff,%rax
 48d:	75 13                	jne    4a2 <gzoffset64+0x52>
 48f:	48 c7 c0 ff ff ff ff 	mov    $0xffffffffffffffff,%rax
 496:	c9                   	leaveq 
 497:	c3                   	retq   
 498:	81 f9 b1 79 00 00    	cmp    $0x79b1,%ecx
 49e:	74 d2                	je     472 <gzoffset64+0x22>
 4a0:	c9                   	leaveq 
 4a1:	c3                   	retq   
 4a2:	48 8b 55 f8          	mov    -0x8(%rbp),%rdx
 4a6:	48 63 4a 18          	movslq 0x18(%rdx),%rcx
 4aa:	81 f9 4f 1c 00 00    	cmp    $0x1c4f,%ecx
 4b0:	74 02                	je     4b4 <gzoffset64+0x64>
 4b2:	c9                   	leaveq 
 4b3:	c3                   	retq   
 4b4:	8b 8a 80 00 00 00    	mov    0x80(%rdx),%ecx
 4ba:	48 29 c8             	sub    %rcx,%rax
 4bd:	c9                   	leaveq 
 4be:	c3                   	retq   
 4bf:	90                   	nop

00000000000004c0 <gzopen>:
 4c0:	55                   	push   %rbp
 4c1:	48 89 e5             	mov    %rsp,%rbp
 4c4:	48 89 f2             	mov    %rsi,%rdx
 4c7:	48 c7 c6 ff ff ff ff 	mov    $0xffffffffffffffff,%rsi
 4ce:	e8 dd 01 00 00       	callq  6b0 <gz_open>
 4d3:	c9                   	leaveq 
 4d4:	c3                   	retq   
 4d5:	66 66 2e 0f 1f 84 00 	data16 nopw %cs:0x0(%rax,%rax,1)
 4dc:	00 00 00 00 

00000000000004e0 <gzseek>:
 4e0:	55                   	push   %rbp
 4e1:	48 89 e5             	mov    %rsp,%rbp
 4e4:	e8 00 00 00 00       	callq  4e9 <gzseek+0x9>
 4e9:	c9                   	leaveq 
 4ea:	c3                   	retq   
 4eb:	0f 1f 44 00 00       	nopl   0x0(%rax,%rax,1)

00000000000004f0 <gztell>:
 4f0:	55                   	push   %rbp
 4f1:	48 89 e5             	mov    %rsp,%rbp
 4f4:	e8 00 00 00 00       	callq  4f9 <gztell+0x9>
 4f9:	c9                   	leaveq 
 4fa:	c3                   	retq   
 4fb:	0f 1f 44 00 00       	nopl   0x0(%rax,%rax,1)

0000000000000500 <gzoffset>:
 500:	55                   	push   %rbp
 501:	48 89 e5             	mov    %rsp,%rbp
 504:	e8 00 00 00 00       	callq  509 <gzoffset+0x9>
 509:	c9                   	leaveq 
 50a:	c3                   	retq   
 50b:	0f 1f 44 00 00       	nopl   0x0(%rax,%rax,1)

0000000000000510 <gz_error>:
 510:	55                   	push   %rbp
 511:	48 89 e5             	mov    %rsp,%rbp
 514:	48 83 ec 20          	sub    $0x20,%rsp
 518:	48 8b 4f 70          	mov    0x70(%rdi),%rcx
 51c:	48 85 c9             	test   %rcx,%rcx
 51f:	75 08                	jne    529 <gz_error+0x19>
 521:	4c 89 f0             	mov    %r14,%rax
 524:	49 89 fe             	mov    %rdi,%r14
 527:	eb 48                	jmp    571 <gz_error+0x61>
 529:	48 63 47 6c          	movslq 0x6c(%rdi),%rax
 52d:	83 f8 fc             	cmp    $0xfffffffc,%eax
 530:	75 08                	jne    53a <gz_error+0x2a>
 532:	4c 89 f0             	mov    %r14,%rax
 535:	49 89 fe             	mov    %rdi,%r14
 538:	eb 2f                	jmp    569 <gz_error+0x59>
 53a:	4c 89 6d f0          	mov    %r13,-0x10(%rbp)
 53e:	4c 89 75 e8          	mov    %r14,-0x18(%rbp)
 542:	4c 89 7d e0          	mov    %r15,-0x20(%rbp)
 546:	49 89 f5             	mov    %rsi,%r13
 549:	49 89 fe             	mov    %rdi,%r14
 54c:	48 89 cf             	mov    %rcx,%rdi
 54f:	49 89 d7             	mov    %rdx,%r15
 552:	e8 00 00 00 00       	callq  557 <gz_error+0x47>
 557:	4c 89 fa             	mov    %r15,%rdx
 55a:	4c 89 ee             	mov    %r13,%rsi
 55d:	4c 8b 7d e0          	mov    -0x20(%rbp),%r15
 561:	48 8b 45 e8          	mov    -0x18(%rbp),%rax
 565:	4c 8b 6d f0          	mov    -0x10(%rbp),%r13
 569:	49 c7 46 70 00 00 00 	movq   $0x0,0x70(%r14)
 570:	00 
 571:	85 f6                	test   %esi,%esi
 573:	75 0e                	jne    583 <gz_error+0x73>
 575:	41 89 76 6c          	mov    %esi,0x6c(%r14)
 579:	48 85 d2             	test   %rdx,%rdx
 57c:	75 13                	jne    591 <gz_error+0x81>
 57e:	49 89 c6             	mov    %rax,%r14
 581:	c9                   	leaveq 
 582:	c3                   	retq   
 583:	83 fe fb             	cmp    $0xfffffffb,%esi
 586:	74 ed                	je     575 <gz_error+0x65>
 588:	41 c7 06 00 00 00 00 	movl   $0x0,(%r14)
 58f:	eb e4                	jmp    575 <gz_error+0x65>
 591:	83 fe fc             	cmp    $0xfffffffc,%esi
 594:	75 05                	jne    59b <gz_error+0x8b>
 596:	49 89 c6             	mov    %rax,%r14
 599:	c9                   	leaveq 
 59a:	c3                   	retq   
 59b:	49 8b 7e 20          	mov    0x20(%r14),%rdi
 59f:	48 89 45 e8          	mov    %rax,-0x18(%rbp)
 5a3:	4c 89 7d e0          	mov    %r15,-0x20(%rbp)
 5a7:	49 89 d7             	mov    %rdx,%r15
 5aa:	e8 00 00 00 00       	callq  5af <gz_error+0x9f>
 5af:	4c 89 ff             	mov    %r15,%rdi
 5b2:	4c 89 7d f8          	mov    %r15,-0x8(%rbp)
 5b6:	49 89 c7             	mov    %rax,%r15
 5b9:	e8 00 00 00 00       	callq  5be <gz_error+0xae>
 5be:	4a 8d 7c 38 03       	lea    0x3(%rax,%r15,1),%rdi
 5c3:	e8 00 00 00 00       	callq  5c8 <gz_error+0xb8>
 5c8:	49 89 46 70          	mov    %rax,0x70(%r14)
 5cc:	48 85 c0             	test   %rax,%rax
 5cf:	74 5e                	je     62f <gz_error+0x11f>
 5d1:	4d 8b 7e 20          	mov    0x20(%r14),%r15
 5d5:	49 89 c6             	mov    %rax,%r14
 5d8:	4c 89 ff             	mov    %r15,%rdi
 5db:	e8 00 00 00 00       	callq  5e0 <gz_error+0xd0>
 5e0:	48 8b 4d f8          	mov    -0x8(%rbp),%rcx
 5e4:	48 89 cf             	mov    %rcx,%rdi
 5e7:	4c 89 6d f0          	mov    %r13,-0x10(%rbp)
 5eb:	4c 89 65 f8          	mov    %r12,-0x8(%rbp)
 5ef:	49 89 cc             	mov    %rcx,%r12
 5f2:	49 89 c5             	mov    %rax,%r13
 5f5:	e8 00 00 00 00       	callq  5fa <gz_error+0xea>
 5fa:	4a 8d 74 28 03       	lea    0x3(%rax,%r13,1),%rsi
 5ff:	4c 89 f9             	mov    %r15,%rcx
 602:	4c 89 f7             	mov    %r14,%rdi
 605:	4d 89 e1             	mov    %r12,%r9
 608:	31 c0                	xor    %eax,%eax
 60a:	48 8d 15 00 00 00 00 	lea    0x0(%rip),%rdx        # 611 <gz_error+0x101>
 611:	4c 8d 05 00 00 00 00 	lea    0x0(%rip),%r8        # 618 <gz_error+0x108>
 618:	e8 00 00 00 00       	callq  61d <gz_error+0x10d>
 61d:	4c 8b 65 f8          	mov    -0x8(%rbp),%r12
 621:	4c 8b 7d e0          	mov    -0x20(%rbp),%r15
 625:	4c 8b 75 e8          	mov    -0x18(%rbp),%r14
 629:	4c 8b 6d f0          	mov    -0x10(%rbp),%r13
 62d:	c9                   	leaveq 
 62e:	c3                   	retq   
 62f:	41 c7 46 6c fc ff ff 	movl   $0xfffffffc,0x6c(%r14)
 636:	ff 
 637:	4c 8b 7d e0          	mov    -0x20(%rbp),%r15
 63b:	4c 8b 75 e8          	mov    -0x18(%rbp),%r14
 63f:	c9                   	leaveq 
 640:	c3                   	retq   
 641:	66 66 2e 0f 1f 84 00 	data16 nopw %cs:0x0(%rax,%rax,1)
 648:	00 00 00 00 
 64c:	0f 1f 40 00          	nopl   0x0(%rax)

0000000000000650 <gz_reset>:
 650:	55                   	push   %rbp
 651:	48 89 e5             	mov    %rsp,%rbp
 654:	48 83 ec 10          	sub    $0x10,%rsp
 658:	4c 89 7d f8          	mov    %r15,-0x8(%rbp)
 65c:	c7 07 00 00 00 00    	movl   $0x0,(%rdi)
 662:	48 63 47 18          	movslq 0x18(%rdi),%rax
 666:	3d 4f 1c 00 00       	cmp    $0x1c4f,%eax
 66b:	75 15                	jne    682 <gz_reset+0x32>
 66d:	c7 47 50 00 00 00 00 	movl   $0x0,0x50(%rdi)
 674:	c7 47 54 00 00 00 00 	movl   $0x0,0x54(%rdi)
 67b:	c7 47 44 00 00 00 00 	movl   $0x0,0x44(%rdi)
 682:	c7 47 68 00 00 00 00 	movl   $0x0,0x68(%rdi)
 689:	31 f6                	xor    %esi,%esi
 68b:	48 89 f2             	mov    %rsi,%rdx
 68e:	49 89 ff             	mov    %rdi,%r15
 691:	e8 00 00 00 00       	callq  696 <gz_reset+0x46>
 696:	49 c7 47 10 00 00 00 	movq   $0x0,0x10(%r15)
 69d:	00 
 69e:	41 c7 87 80 00 00 00 	movl   $0x0,0x80(%r15)
 6a5:	00 00 00 00 
 6a9:	4c 8b 7d f8          	mov    -0x8(%rbp),%r15
 6ad:	c9                   	leaveq 
 6ae:	c3                   	retq   
 6af:	90                   	nop

00000000000006b0 <gz_open>:
 6b0:	55                   	push   %rbp
 6b1:	48 89 e5             	mov    %rsp,%rbp
 6b4:	48 83 ec 30          	sub    $0x30,%rsp
 6b8:	31 c0                	xor    %eax,%eax
 6ba:	48 85 ff             	test   %rdi,%rdi
 6bd:	75 02                	jne    6c1 <gz_open+0x11>
 6bf:	c9                   	leaveq 
 6c0:	c3                   	retq   
 6c1:	b8 e8 00 00 00       	mov    $0xe8,%eax
 6c6:	48 89 55 d0          	mov    %rdx,-0x30(%rbp)
 6ca:	48 89 7d d8          	mov    %rdi,-0x28(%rbp)
 6ce:	48 89 75 f0          	mov    %rsi,-0x10(%rbp)
 6d2:	48 89 c7             	mov    %rax,%rdi
 6d5:	e8 00 00 00 00       	callq  6da <gz_open+0x2a>
 6da:	48 85 c0             	test   %rax,%rax
 6dd:	75 04                	jne    6e3 <gz_open+0x33>
 6df:	31 c0                	xor    %eax,%eax
 6e1:	c9                   	leaveq 
 6e2:	c3                   	retq   
 6e3:	c7 40 28 00 00 00 00 	movl   $0x0,0x28(%rax)
 6ea:	c7 40 2c 00 20 00 00 	movl   $0x2000,0x2c(%rax)
 6f1:	48 c7 40 70 00 00 00 	movq   $0x0,0x70(%rax)
 6f8:	00 
 6f9:	c7 40 18 00 00 00 00 	movl   $0x0,0x18(%rax)
 700:	c7 40 58 ff ff ff ff 	movl   $0xffffffff,0x58(%rax)
 707:	c7 40 5c 00 00 00 00 	movl   $0x0,0x5c(%rax)
 70e:	c7 40 40 00 00 00 00 	movl   $0x0,0x40(%rax)
 715:	41 b8 01 00 00 00    	mov    $0x1,%r8d
 71b:	31 c9                	xor    %ecx,%ecx
 71d:	48 8b 75 d0          	mov    -0x30(%rbp),%rsi
 721:	48 89 ca             	mov    %rcx,%rdx
 724:	eb 1a                	jmp    740 <gz_open+0x90>
 726:	40 80 ff 2f          	cmp    $0x2f,%dil
 72a:	0f 8f a1 00 00 00    	jg     7d1 <gz_open+0x121>
 730:	83 c7 d5             	add    $0xffffffd5,%edi
 733:	83 ff 4d             	cmp    $0x4d,%edi
 736:	0f 86 aa 00 00 00    	jbe    7e6 <gz_open+0x136>
 73c:	48 83 c6 01          	add    $0x1,%rsi
 740:	48 0f be 3e          	movsbq (%rsi),%rdi
 744:	40 84 ff             	test   %dil,%dil
 747:	75 dd                	jne    726 <gz_open+0x76>
 749:	48 63 70 18          	movslq 0x18(%rax),%rsi
 74d:	85 f6                	test   %esi,%esi
 74f:	0f 84 a9 00 00 00    	je     7fe <gz_open+0x14e>
 755:	81 fe 4f 1c 00 00    	cmp    $0x1c4f,%esi
 75b:	75 13                	jne    770 <gz_open+0xc0>
 75d:	48 63 70 40          	movslq 0x40(%rax),%rsi
 761:	85 f6                	test   %esi,%esi
 763:	0f 85 a1 00 00 00    	jne    80a <gz_open+0x15a>
 769:	c7 40 40 01 00 00 00 	movl   $0x1,0x40(%rax)
 770:	48 8b 7d d8          	mov    -0x28(%rbp),%rdi
 774:	4c 89 7d f8          	mov    %r15,-0x8(%rbp)
 778:	48 89 55 d0          	mov    %rdx,-0x30(%rbp)
 77c:	48 89 4d e8          	mov    %rcx,-0x18(%rbp)
 780:	49 89 c7             	mov    %rax,%r15
 783:	e8 00 00 00 00       	callq  788 <gz_open+0xd8>
 788:	48 8d 78 01          	lea    0x1(%rax),%rdi
 78c:	48 89 7d e0          	mov    %rdi,-0x20(%rbp)
 790:	e8 00 00 00 00       	callq  795 <gz_open+0xe5>
 795:	49 89 47 20          	mov    %rax,0x20(%r15)
 799:	48 85 c0             	test   %rax,%rax
 79c:	74 78                	je     816 <gz_open+0x166>
 79e:	45 31 c0             	xor    %r8d,%r8d
 7a1:	48 8d 15 00 00 00 00 	lea    0x0(%rip),%rdx        # 7a8 <gz_open+0xf8>
 7a8:	48 8b 7d d8          	mov    -0x28(%rbp),%rdi
 7ac:	48 89 f9             	mov    %rdi,%rcx
 7af:	4c 89 75 d8          	mov    %r14,-0x28(%rbp)
 7b3:	49 89 fe             	mov    %rdi,%r14
 7b6:	48 89 c7             	mov    %rax,%rdi
 7b9:	4c 89 c0             	mov    %r8,%rax
 7bc:	48 8b 75 e0          	mov    -0x20(%rbp),%rsi
 7c0:	e8 00 00 00 00       	callq  7c5 <gz_open+0x115>
 7c5:	48 8b 45 d0          	mov    -0x30(%rbp),%rax
 7c9:	85 c0                	test   %eax,%eax
 7cb:	7f 59                	jg     826 <gz_open+0x176>
 7cd:	31 d2                	xor    %edx,%edx
 7cf:	eb 5a                	jmp    82b <gz_open+0x17b>
 7d1:	40 80 ff 39          	cmp    $0x39,%dil
 7d5:	0f 8f 55 ff ff ff    	jg     730 <gz_open+0x80>
 7db:	83 c7 d0             	add    $0xffffffd0,%edi
 7de:	89 78 58             	mov    %edi,0x58(%rax)
 7e1:	e9 56 ff ff ff       	jmpq   73c <gz_open+0x8c>
 7e6:	4c 8d 0d 00 00 00 00 	lea    0x0(%rip),%r9        # 7ed <gz_open+0x13d>
 7ed:	49 63 3c b9          	movslq (%r9,%rdi,4),%rdi
 7f1:	4c 01 cf             	add    %r9,%rdi
 7f4:	ff e7                	jmpq   *%rdi
 7f6:	4c 89 c1             	mov    %r8,%rcx
 7f9:	e9 3e ff ff ff       	jmpq   73c <gz_open+0x8c>
 7fe:	48 89 c7             	mov    %rax,%rdi
 801:	e8 00 00 00 00       	callq  806 <gz_open+0x156>
 806:	31 c0                	xor    %eax,%eax
 808:	c9                   	leaveq 
 809:	c3                   	retq   
 80a:	48 89 c7             	mov    %rax,%rdi
 80d:	e8 00 00 00 00       	callq  812 <gz_open+0x162>
 812:	31 c0                	xor    %eax,%eax
 814:	c9                   	leaveq 
 815:	c3                   	retq   
 816:	4c 89 ff             	mov    %r15,%rdi
 819:	e8 00 00 00 00       	callq  81e <gz_open+0x16e>
 81e:	4c 8b 7d f8          	mov    -0x8(%rbp),%r15
 822:	31 c0                	xor    %eax,%eax
 824:	c9                   	leaveq 
 825:	c3                   	retq   
 826:	ba 00 00 08 00       	mov    $0x80000,%edx
 82b:	49 63 77 18          	movslq 0x18(%r15),%rsi
 82f:	81 fe 4f 1c 00 00    	cmp    $0x1c4f,%esi
 835:	0f 85 b2 00 00 00    	jne    8ed <gz_open+0x23d>
 83b:	31 c9                	xor    %ecx,%ecx
 83d:	48 8b 45 f0          	mov    -0x10(%rbp),%rax
 841:	85 c0                	test   %eax,%eax
 843:	79 12                	jns    857 <gz_open+0x1a7>
 845:	8d 34 11             	lea    (%rcx,%rdx,1),%esi
 848:	4c 89 f7             	mov    %r14,%rdi
 84b:	31 c0                	xor    %eax,%eax
 84d:	ba b6 01 00 00       	mov    $0x1b6,%edx
 852:	e8 00 00 00 00       	callq  857 <gz_open+0x1a7>
 857:	41 89 47 1c          	mov    %eax,0x1c(%r15)
 85b:	83 f8 ff             	cmp    $0xffffffff,%eax
 85e:	0f 84 9f 00 00 00    	je     903 <gz_open+0x253>
 864:	49 63 4f 18          	movslq 0x18(%r15),%rcx
 868:	83 f9 01             	cmp    $0x1,%ecx
 86b:	0f 84 af 00 00 00    	je     920 <gz_open+0x270>
 871:	45 31 f6             	xor    %r14d,%r14d
 874:	e9 c2 00 00 00       	jmpq   93b <gz_open+0x28b>
 879:	48 89 c7             	mov    %rax,%rdi
 87c:	e8 00 00 00 00       	callq  881 <gz_open+0x1d1>
 881:	31 c0                	xor    %eax,%eax
 883:	c9                   	leaveq 
 884:	c3                   	retq   
 885:	c7 40 18 4f 1c 00 00 	movl   $0x1c4f,0x18(%rax)
 88c:	e9 ab fe ff ff       	jmpq   73c <gz_open+0x8c>
 891:	c7 40 18 b1 79 00 00 	movl   $0x79b1,0x18(%rax)
 898:	e9 9f fe ff ff       	jmpq   73c <gz_open+0x8c>
 89d:	c7 40 18 01 00 00 00 	movl   $0x1,0x18(%rax)
 8a4:	e9 93 fe ff ff       	jmpq   73c <gz_open+0x8c>
 8a9:	4c 89 c2             	mov    %r8,%rdx
 8ac:	e9 8b fe ff ff       	jmpq   73c <gz_open+0x8c>
 8b1:	c7 40 5c 01 00 00 00 	movl   $0x1,0x5c(%rax)
 8b8:	e9 7f fe ff ff       	jmpq   73c <gz_open+0x8c>
 8bd:	c7 40 5c 02 00 00 00 	movl   $0x2,0x5c(%rax)
 8c4:	e9 73 fe ff ff       	jmpq   73c <gz_open+0x8c>
 8c9:	c7 40 5c 03 00 00 00 	movl   $0x3,0x5c(%rax)
 8d0:	e9 67 fe ff ff       	jmpq   73c <gz_open+0x8c>
 8d5:	c7 40 5c 04 00 00 00 	movl   $0x4,0x5c(%rax)
 8dc:	e9 5b fe ff ff       	jmpq   73c <gz_open+0x8c>
 8e1:	c7 40 40 01 00 00 00 	movl   $0x1,0x40(%rax)
 8e8:	e9 4f fe ff ff       	jmpq   73c <gz_open+0x8c>
 8ed:	48 8b 45 e8          	mov    -0x18(%rbp),%rax
 8f1:	85 c0                	test   %eax,%eax
 8f3:	0f 8f 85 00 00 00    	jg     97e <gz_open+0x2ce>
 8f9:	b9 41 00 00 00       	mov    $0x41,%ecx
 8fe:	e9 80 00 00 00       	jmpq   983 <gz_open+0x2d3>
 903:	49 8b 7f 20          	mov    0x20(%r15),%rdi
 907:	e8 00 00 00 00       	callq  90c <gz_open+0x25c>
 90c:	4c 89 ff             	mov    %r15,%rdi
 90f:	e8 00 00 00 00       	callq  914 <gz_open+0x264>
 914:	4c 8b 75 d8          	mov    -0x28(%rbp),%r14
 918:	4c 8b 7d f8          	mov    -0x8(%rbp),%r15
 91c:	31 c0                	xor    %eax,%eax
 91e:	c9                   	leaveq 
 91f:	c3                   	retq   
 920:	48 89 c7             	mov    %rax,%rdi
 923:	ba 02 00 00 00       	mov    $0x2,%edx
 928:	45 31 f6             	xor    %r14d,%r14d
 92b:	4c 89 f6             	mov    %r14,%rsi
 92e:	e8 00 00 00 00       	callq  933 <gz_open+0x283>
 933:	41 c7 47 18 b1 79 00 	movl   $0x79b1,0x18(%r15)
 93a:	00 
 93b:	49 63 47 18          	movslq 0x18(%r15),%rax
 93f:	3d 4f 1c 00 00       	cmp    $0x1c4f,%eax
 944:	75 23                	jne    969 <gz_open+0x2b9>
 946:	4c 89 f6             	mov    %r14,%rsi
 949:	49 63 7f 1c          	movslq 0x1c(%r15),%rdi
 94d:	ba 01 00 00 00       	mov    $0x1,%edx
 952:	e8 00 00 00 00       	callq  957 <gz_open+0x2a7>
 957:	49 89 47 48          	mov    %rax,0x48(%r15)
 95b:	48 83 f8 ff          	cmp    $0xffffffffffffffff,%rax
 95f:	75 08                	jne    969 <gz_open+0x2b9>
 961:	49 c7 47 48 00 00 00 	movq   $0x0,0x48(%r15)
 968:	00 
 969:	4c 89 ff             	mov    %r15,%rdi
 96c:	e8 df fc ff ff       	callq  650 <gz_reset>
 971:	4c 89 f8             	mov    %r15,%rax
 974:	4c 8b 75 d8          	mov    -0x28(%rbp),%r14
 978:	4c 8b 7d f8          	mov    -0x8(%rbp),%r15
 97c:	c9                   	leaveq 
 97d:	c3                   	retq   
 97e:	b9 c1 00 00 00       	mov    $0xc1,%ecx
 983:	81 fe b1 79 00 00    	cmp    $0x79b1,%esi
 989:	74 07                	je     992 <gz_open+0x2e2>
 98b:	b8 00 04 00 00       	mov    $0x400,%eax
 990:	eb 05                	jmp    997 <gz_open+0x2e7>
 992:	b8 00 02 00 00       	mov    $0x200,%eax
 997:	01 c1                	add    %eax,%ecx
 999:	e9 9f fe ff ff       	jmpq   83d <gz_open+0x18d>

gzread.o:     file format elf64-x86-64


Disassembly of section .text:

0000000000000000 <gzread>:
   0:	55                   	push   %rbp
   1:	48 89 e5             	mov    %rsp,%rbp
   4:	48 83 ec 10          	sub    $0x10,%rsp
   8:	48 c7 c0 ff ff ff ff 	mov    $0xffffffffffffffff,%rax
   f:	48 85 ff             	test   %rdi,%rdi
  12:	75 02                	jne    16 <gzread+0x16>
  14:	c9                   	leaveq 
  15:	c3                   	retq   
  16:	48 63 4f 18          	movslq 0x18(%rdi),%rcx
  1a:	81 f9 4f 1c 00 00    	cmp    $0x1c4f,%ecx
  20:	74 02                	je     24 <gzread+0x24>
  22:	c9                   	leaveq 
  23:	c3                   	retq   
  24:	48 63 4f 6c          	movslq 0x6c(%rdi),%rcx
  28:	85 c9                	test   %ecx,%ecx
  2a:	75 1b                	jne    47 <gzread+0x47>
  2c:	85 d2                	test   %edx,%edx
  2e:	78 1e                	js     4e <gzread+0x4e>
  30:	89 d2                	mov    %edx,%edx
  32:	48 89 f8             	mov    %rdi,%rax
  35:	48 89 7d f8          	mov    %rdi,-0x8(%rbp)
  39:	48 89 c7             	mov    %rax,%rdi
  3c:	e8 5f 0d 00 00       	callq  da0 <gz_read>
  41:	85 c0                	test   %eax,%eax
  43:	74 25                	je     6a <gzread+0x6a>
  45:	c9                   	leaveq 
  46:	c3                   	retq   
  47:	83 f9 fb             	cmp    $0xfffffffb,%ecx
  4a:	74 e0                	je     2c <gzread+0x2c>
  4c:	c9                   	leaveq 
  4d:	c3                   	retq   
  4e:	48 c7 c6 fe ff ff ff 	mov    $0xfffffffffffffffe,%rsi
  55:	48 8d 15 00 00 00 00 	lea    0x0(%rip),%rdx        # 5c <gzread+0x5c>
  5c:	e8 00 00 00 00       	callq  61 <gzread+0x61>
  61:	48 c7 c0 ff ff ff ff 	mov    $0xffffffffffffffff,%rax
  68:	c9                   	leaveq 
  69:	c3                   	retq   
  6a:	48 8b 4d f8          	mov    -0x8(%rbp),%rcx
  6e:	48 63 49 6c          	movslq 0x6c(%rcx),%rcx
  72:	85 c9                	test   %ecx,%ecx
  74:	75 02                	jne    78 <gzread+0x78>
  76:	c9                   	leaveq 
  77:	c3                   	retq   
  78:	83 f9 fb             	cmp    $0xfffffffb,%ecx
  7b:	74 09                	je     86 <gzread+0x86>
  7d:	48 c7 c0 ff ff ff ff 	mov    $0xffffffffffffffff,%rax
  84:	c9                   	leaveq 
  85:	c3                   	retq   
  86:	c9                   	leaveq 
  87:	c3                   	retq   
  88:	0f 1f 84 00 00 00 00 	nopl   0x0(%rax,%rax,1)
  8f:	00 

0000000000000090 <gzfread>:
  90:	55                   	push   %rbp
  91:	48 89 e5             	mov    %rsp,%rbp
  94:	48 83 ec 10          	sub    $0x10,%rsp
  98:	31 c0                	xor    %eax,%eax
  9a:	48 85 c9             	test   %rcx,%rcx
  9d:	75 02                	jne    a1 <gzfread+0x11>
  9f:	c9                   	leaveq 
  a0:	c3                   	retq   
  a1:	4c 63 41 18          	movslq 0x18(%rcx),%r8
  a5:	41 81 f8 4f 1c 00 00 	cmp    $0x1c4f,%r8d
  ac:	74 02                	je     b0 <gzfread+0x20>
  ae:	c9                   	leaveq 
  af:	c3                   	retq   
  b0:	4c 63 41 6c          	movslq 0x6c(%rcx),%r8
  b4:	45 85 c0             	test   %r8d,%r8d
  b7:	75 13                	jne    cc <gzfread+0x3c>
  b9:	49 89 f0             	mov    %rsi,%r8
  bc:	4c 0f af c2          	imul   %rdx,%r8
  c0:	48 85 f6             	test   %rsi,%rsi
  c3:	75 0f                	jne    d4 <gzfread+0x44>
  c5:	4d 85 c0             	test   %r8,%r8
  c8:	75 22                	jne    ec <gzfread+0x5c>
  ca:	c9                   	leaveq 
  cb:	c3                   	retq   
  cc:	41 83 f8 fb          	cmp    $0xfffffffb,%r8d
  d0:	74 e7                	je     b9 <gzfread+0x29>
  d2:	c9                   	leaveq 
  d3:	c3                   	retq   
  d4:	49 89 c1             	mov    %rax,%r9
  d7:	49 89 d2             	mov    %rdx,%r10
  da:	31 d2                	xor    %edx,%edx
  dc:	4c 89 c0             	mov    %r8,%rax
  df:	48 f7 f6             	div    %rsi
  e2:	4c 39 d0             	cmp    %r10,%rax
  e5:	75 25                	jne    10c <gzfread+0x7c>
  e7:	4c 89 c8             	mov    %r9,%rax
  ea:	eb d9                	jmp    c5 <gzfread+0x35>
  ec:	4c 89 7d f8          	mov    %r15,-0x8(%rbp)
  f0:	4c 89 c2             	mov    %r8,%rdx
  f3:	49 89 f7             	mov    %rsi,%r15
  f6:	48 89 fe             	mov    %rdi,%rsi
  f9:	48 89 cf             	mov    %rcx,%rdi
  fc:	e8 9f 0c 00 00       	callq  da0 <gz_read>
 101:	31 d2                	xor    %edx,%edx
 103:	49 f7 f7             	div    %r15
 106:	4c 8b 7d f8          	mov    -0x8(%rbp),%r15
 10a:	c9                   	leaveq 
 10b:	c3                   	retq   
 10c:	48 89 cf             	mov    %rcx,%rdi
 10f:	48 c7 c6 fe ff ff ff 	mov    $0xfffffffffffffffe,%rsi
 116:	48 8d 15 00 00 00 00 	lea    0x0(%rip),%rdx        # 11d <gzfread+0x8d>
 11d:	e8 00 00 00 00       	callq  122 <gzfread+0x92>
 122:	31 c0                	xor    %eax,%eax
 124:	c9                   	leaveq 
 125:	c3                   	retq   
 126:	66 2e 0f 1f 84 00 00 	nopw   %cs:0x0(%rax,%rax,1)
 12d:	00 00 00 

0000000000000130 <gzgets>:
 130:	55                   	push   %rbp
 131:	48 89 e5             	mov    %rsp,%rbp
 134:	48 83 ec 40          	sub    $0x40,%rsp
 138:	31 c0                	xor    %eax,%eax
 13a:	48 85 ff             	test   %rdi,%rdi
 13d:	75 02                	jne    141 <gzgets+0x11>
 13f:	c9                   	leaveq 
 140:	c3                   	retq   
 141:	48 85 f6             	test   %rsi,%rsi
 144:	75 02                	jne    148 <gzgets+0x18>
 146:	c9                   	leaveq 
 147:	c3                   	retq   
 148:	85 d2                	test   %edx,%edx
 14a:	7f 02                	jg     14e <gzgets+0x1e>
 14c:	c9                   	leaveq 
 14d:	c3                   	retq   
 14e:	48 63 4f 18          	movslq 0x18(%rdi),%rcx
 152:	81 f9 4f 1c 00 00    	cmp    $0x1c4f,%ecx
 158:	74 02                	je     15c <gzgets+0x2c>
 15a:	c9                   	leaveq 
 15b:	c3                   	retq   
 15c:	48 63 4f 6c          	movslq 0x6c(%rdi),%rcx
 160:	85 c9                	test   %ecx,%ecx
 162:	74 07                	je     16b <gzgets+0x3b>
 164:	83 f9 fb             	cmp    $0xfffffffb,%ecx
 167:	74 02                	je     16b <gzgets+0x3b>
 169:	c9                   	leaveq 
 16a:	c3                   	retq   
 16b:	48 63 4f 68          	movslq 0x68(%rdi),%rcx
 16f:	85 c9                	test   %ecx,%ecx
 171:	74 38                	je     1ab <gzgets+0x7b>
 173:	c7 47 68 00 00 00 00 	movl   $0x0,0x68(%rdi)
 17a:	48 8b 4f 60          	mov    0x60(%rdi),%rcx
 17e:	48 89 f8             	mov    %rdi,%rax
 181:	48 89 55 c8          	mov    %rdx,-0x38(%rbp)
 185:	48 89 75 d0          	mov    %rsi,-0x30(%rbp)
 189:	48 89 7d d8          	mov    %rdi,-0x28(%rbp)
 18d:	48 89 ce             	mov    %rcx,%rsi
 190:	48 89 c7             	mov    %rax,%rdi
 193:	e8 48 0b 00 00       	callq  ce0 <gz_skip>
 198:	83 f8 ff             	cmp    $0xffffffff,%eax
 19b:	74 1f                	je     1bc <gzgets+0x8c>
 19d:	31 c0                	xor    %eax,%eax
 19f:	48 8b 7d d8          	mov    -0x28(%rbp),%rdi
 1a3:	48 8b 75 d0          	mov    -0x30(%rbp),%rsi
 1a7:	48 8b 55 c8          	mov    -0x38(%rbp),%rdx
 1ab:	8d 4a ff             	lea    -0x1(%rdx),%ecx
 1ae:	85 c9                	test   %ecx,%ecx
 1b0:	75 0e                	jne    1c0 <gzgets+0x90>
 1b2:	48 89 f1             	mov    %rsi,%rcx
 1b5:	48 39 ce             	cmp    %rcx,%rsi
 1b8:	75 31                	jne    1eb <gzgets+0xbb>
 1ba:	c9                   	leaveq 
 1bb:	c3                   	retq   
 1bc:	31 c0                	xor    %eax,%eax
 1be:	c9                   	leaveq 
 1bf:	c3                   	retq   
 1c0:	b8 0a 00 00 00       	mov    $0xa,%eax
 1c5:	48 89 75 d0          	mov    %rsi,-0x30(%rbp)
 1c9:	48 89 5d f8          	mov    %rbx,-0x8(%rbp)
 1cd:	4c 89 65 f0          	mov    %r12,-0x10(%rbp)
 1d1:	4c 89 6d e8          	mov    %r13,-0x18(%rbp)
 1d5:	4c 89 75 e0          	mov    %r14,-0x20(%rbp)
 1d9:	4c 89 7d d8          	mov    %r15,-0x28(%rbp)
 1dd:	48 89 cb             	mov    %rcx,%rbx
 1e0:	49 89 fc             	mov    %rdi,%r12
 1e3:	49 89 c5             	mov    %rax,%r13
 1e6:	e9 8e 00 00 00       	jmpq   279 <gzgets+0x149>
 1eb:	c6 01 00             	movb   $0x0,(%rcx)
 1ee:	48 89 f0             	mov    %rsi,%rax
 1f1:	c9                   	leaveq 
 1f2:	c3                   	retq   
 1f3:	41 39 de             	cmp    %ebx,%r14d
 1f6:	76 03                	jbe    1fb <gzgets+0xcb>
 1f8:	49 89 de             	mov    %rbx,%r14
 1fb:	4c 89 e8             	mov    %r13,%rax
 1fe:	49 89 f5             	mov    %rsi,%r13
 201:	48 89 c6             	mov    %rax,%rsi
 204:	4d 8b 7c 24 08       	mov    0x8(%r12),%r15
 209:	44 89 f2             	mov    %r14d,%edx
 20c:	4c 89 ff             	mov    %r15,%rdi
 20f:	e8 00 00 00 00       	callq  214 <gzgets+0xe4>
 214:	48 89 45 c8          	mov    %rax,-0x38(%rbp)
 218:	48 85 c0             	test   %rax,%rax
 21b:	74 07                	je     224 <gzgets+0xf4>
 21d:	4c 29 f8             	sub    %r15,%rax
 220:	44 8d 70 01          	lea    0x1(%rax),%r14d
 224:	4c 89 fe             	mov    %r15,%rsi
 227:	4d 89 ef             	mov    %r13,%r15
 22a:	45 89 f5             	mov    %r14d,%r13d
 22d:	4c 89 ff             	mov    %r15,%rdi
 230:	4c 89 ea             	mov    %r13,%rdx
 233:	e8 00 00 00 00       	callq  238 <gzgets+0x108>
 238:	41 8b 04 24          	mov    (%r12),%eax
 23c:	44 29 f0             	sub    %r14d,%eax
 23f:	41 89 04 24          	mov    %eax,(%r12)
 243:	4c 89 e8             	mov    %r13,%rax
 246:	49 03 44 24 08       	add    0x8(%r12),%rax
 24b:	49 89 44 24 08       	mov    %rax,0x8(%r12)
 250:	4c 89 e8             	mov    %r13,%rax
 253:	49 03 44 24 10       	add    0x10(%r12),%rax
 258:	49 89 44 24 10       	mov    %rax,0x10(%r12)
 25d:	4b 8d 74 3d 00       	lea    0x0(%r13,%r15,1),%rsi
 262:	41 39 de             	cmp    %ebx,%r14d
 265:	74 52                	je     2b9 <gzgets+0x189>
 267:	48 8b 45 c8          	mov    -0x38(%rbp),%rax
 26b:	48 85 c0             	test   %rax,%rax
 26e:	75 6b                	jne    2db <gzgets+0x1ab>
 270:	44 29 f3             	sub    %r14d,%ebx
 273:	41 bd 0a 00 00 00    	mov    $0xa,%r13d
 279:	41 8b 04 24          	mov    (%r12),%eax
 27d:	85 c0                	test   %eax,%eax
 27f:	74 7c                	je     2fd <gzgets+0x1cd>
 281:	45 8b 34 24          	mov    (%r12),%r14d
 285:	45 85 f6             	test   %r14d,%r14d
 288:	0f 85 65 ff ff ff    	jne    1f3 <gzgets+0xc3>
 28e:	41 c7 44 24 54 01 00 	movl   $0x1,0x54(%r12)
 295:	00 00 
 297:	48 89 f1             	mov    %rsi,%rcx
 29a:	4c 8b 7d d8          	mov    -0x28(%rbp),%r15
 29e:	4c 8b 75 e0          	mov    -0x20(%rbp),%r14
 2a2:	4c 8b 6d e8          	mov    -0x18(%rbp),%r13
 2a6:	4c 8b 65 f0          	mov    -0x10(%rbp),%r12
 2aa:	48 8b 5d f8          	mov    -0x8(%rbp),%rbx
 2ae:	31 c0                	xor    %eax,%eax
 2b0:	48 8b 75 d0          	mov    -0x30(%rbp),%rsi
 2b4:	e9 fc fe ff ff       	jmpq   1b5 <gzgets+0x85>
 2b9:	48 89 f1             	mov    %rsi,%rcx
 2bc:	4c 8b 7d d8          	mov    -0x28(%rbp),%r15
 2c0:	4c 8b 75 e0          	mov    -0x20(%rbp),%r14
 2c4:	4c 8b 6d e8          	mov    -0x18(%rbp),%r13
 2c8:	4c 8b 65 f0          	mov    -0x10(%rbp),%r12
 2cc:	48 8b 5d f8          	mov    -0x8(%rbp),%rbx
 2d0:	31 c0                	xor    %eax,%eax
 2d2:	48 8b 75 d0          	mov    -0x30(%rbp),%rsi
 2d6:	e9 da fe ff ff       	jmpq   1b5 <gzgets+0x85>
 2db:	48 89 f1             	mov    %rsi,%rcx
 2de:	4c 8b 7d d8          	mov    -0x28(%rbp),%r15
 2e2:	4c 8b 75 e0          	mov    -0x20(%rbp),%r14
 2e6:	4c 8b 6d e8          	mov    -0x18(%rbp),%r13
 2ea:	4c 8b 65 f0          	mov    -0x10(%rbp),%r12
 2ee:	48 8b 5d f8          	mov    -0x8(%rbp),%rbx
 2f2:	31 c0                	xor    %eax,%eax
 2f4:	48 8b 75 d0          	mov    -0x30(%rbp),%rsi
 2f8:	e9 b8 fe ff ff       	jmpq   1b5 <gzgets+0x85>
 2fd:	49 89 f6             	mov    %rsi,%r14
 300:	4c 89 e7             	mov    %r12,%rdi
 303:	e8 d8 08 00 00       	callq  be0 <gz_fetch>
 308:	83 f8 ff             	cmp    $0xffffffff,%eax
 30b:	74 08                	je     315 <gzgets+0x1e5>
 30d:	4c 89 f6             	mov    %r14,%rsi
 310:	e9 6c ff ff ff       	jmpq   281 <gzgets+0x151>
 315:	4c 8b 7d d8          	mov    -0x28(%rbp),%r15
 319:	4c 8b 75 e0          	mov    -0x20(%rbp),%r14
 31d:	4c 8b 6d e8          	mov    -0x18(%rbp),%r13
 321:	4c 8b 65 f0          	mov    -0x10(%rbp),%r12
 325:	48 8b 5d f8          	mov    -0x8(%rbp),%rbx
 329:	31 c0                	xor    %eax,%eax
 32b:	c9                   	leaveq 
 32c:	c3                   	retq   
 32d:	0f 1f 00             	nopl   (%rax)

0000000000000330 <gzgetc>:
 330:	55                   	push   %rbp
 331:	48 89 e5             	mov    %rsp,%rbp
 334:	48 83 ec 10          	sub    $0x10,%rsp
 338:	48 c7 c0 ff ff ff ff 	mov    $0xffffffffffffffff,%rax
 33f:	48 85 ff             	test   %rdi,%rdi
 342:	75 02                	jne    346 <gzgetc+0x16>
 344:	c9                   	leaveq 
 345:	c3                   	retq   
 346:	48 63 4f 18          	movslq 0x18(%rdi),%rcx
 34a:	81 f9 4f 1c 00 00    	cmp    $0x1c4f,%ecx
 350:	74 02                	je     354 <gzgetc+0x24>
 352:	c9                   	leaveq 
 353:	c3                   	retq   
 354:	48 63 4f 6c          	movslq 0x6c(%rdi),%rcx
 358:	85 c9                	test   %ecx,%ecx
 35a:	75 21                	jne    37d <gzgetc+0x4d>
 35c:	8b 07                	mov    (%rdi),%eax
 35e:	85 c0                	test   %eax,%eax
 360:	75 22                	jne    384 <gzgetc+0x54>
 362:	48 8d 75 ff          	lea    -0x1(%rbp),%rsi
 366:	ba 01 00 00 00       	mov    $0x1,%edx
 36b:	e8 30 0a 00 00       	callq  da0 <gz_read>
 370:	85 c0                	test   %eax,%eax
 372:	7f 32                	jg     3a6 <gzgetc+0x76>
 374:	48 c7 c0 ff ff ff ff 	mov    $0xffffffffffffffff,%rax
 37b:	c9                   	leaveq 
 37c:	c3                   	retq   
 37d:	83 f9 fb             	cmp    $0xfffffffb,%ecx
 380:	74 da                	je     35c <gzgetc+0x2c>
 382:	c9                   	leaveq 
 383:	c3                   	retq   
 384:	83 c0 ff             	add    $0xffffffff,%eax
 387:	89 07                	mov    %eax,(%rdi)
 389:	48 8b 47 10          	mov    0x10(%rdi),%rax
 38d:	48 83 c0 01          	add    $0x1,%rax
 391:	48 89 47 10          	mov    %rax,0x10(%rdi)
 395:	48 8b 47 08          	mov    0x8(%rdi),%rax
 399:	48 8d 48 01          	lea    0x1(%rax),%rcx
 39d:	48 89 4f 08          	mov    %rcx,0x8(%rdi)
 3a1:	0f b6 00             	movzbl (%rax),%eax
 3a4:	c9                   	leaveq 
 3a5:	c3                   	retq   
 3a6:	0f b6 45 ff          	movzbl -0x1(%rbp),%eax
 3aa:	c9                   	leaveq 
 3ab:	c3                   	retq   
 3ac:	0f 1f 40 00          	nopl   0x0(%rax)

00000000000003b0 <gzungetc>:
 3b0:	55                   	push   %rbp
 3b1:	48 89 e5             	mov    %rsp,%rbp
 3b4:	48 83 ec 10          	sub    $0x10,%rsp
 3b8:	48 c7 c0 ff ff ff ff 	mov    $0xffffffffffffffff,%rax
 3bf:	48 85 f6             	test   %rsi,%rsi
 3c2:	75 02                	jne    3c6 <gzungetc+0x16>
 3c4:	c9                   	leaveq 
 3c5:	c3                   	retq   
 3c6:	48 63 4e 18          	movslq 0x18(%rsi),%rcx
 3ca:	81 f9 4f 1c 00 00    	cmp    $0x1c4f,%ecx
 3d0:	74 02                	je     3d4 <gzungetc+0x24>
 3d2:	c9                   	leaveq 
 3d3:	c3                   	retq   
 3d4:	48 63 4e 6c          	movslq 0x6c(%rsi),%rcx
 3d8:	85 c9                	test   %ecx,%ecx
 3da:	74 07                	je     3e3 <gzungetc+0x33>
 3dc:	83 f9 fb             	cmp    $0xfffffffb,%ecx
 3df:	74 02                	je     3e3 <gzungetc+0x33>
 3e1:	c9                   	leaveq 
 3e2:	c3                   	retq   
 3e3:	48 63 4e 68          	movslq 0x68(%rsi),%rcx
 3e7:	85 c9                	test   %ecx,%ecx
 3e9:	74 35                	je     420 <gzungetc+0x70>
 3eb:	c7 46 68 00 00 00 00 	movl   $0x0,0x68(%rsi)
 3f2:	48 8b 4e 60          	mov    0x60(%rsi),%rcx
 3f6:	48 89 f0             	mov    %rsi,%rax
 3f9:	48 89 7d f0          	mov    %rdi,-0x10(%rbp)
 3fd:	48 89 75 f8          	mov    %rsi,-0x8(%rbp)
 401:	48 89 ce             	mov    %rcx,%rsi
 404:	48 89 c7             	mov    %rax,%rdi
 407:	e8 d4 08 00 00       	callq  ce0 <gz_skip>
 40c:	83 f8 ff             	cmp    $0xffffffff,%eax
 40f:	74 15                	je     426 <gzungetc+0x76>
 411:	48 c7 c0 ff ff ff ff 	mov    $0xffffffffffffffff,%rax
 418:	48 8b 75 f8          	mov    -0x8(%rbp),%rsi
 41c:	48 8b 7d f0          	mov    -0x10(%rbp),%rdi
 420:	85 ff                	test   %edi,%edi
 422:	79 0b                	jns    42f <gzungetc+0x7f>
 424:	c9                   	leaveq 
 425:	c3                   	retq   
 426:	48 c7 c0 ff ff ff ff 	mov    $0xffffffffffffffff,%rax
 42d:	c9                   	leaveq 
 42e:	c3                   	retq   
 42f:	8b 16                	mov    (%rsi),%edx
 431:	85 d2                	test   %edx,%edx
 433:	74 1d                	je     452 <gzungetc+0xa2>
 435:	8b 46 28             	mov    0x28(%rsi),%eax
 438:	01 c0                	add    %eax,%eax
 43a:	39 c2                	cmp    %eax,%edx
 43c:	74 49                	je     487 <gzungetc+0xd7>
 43e:	48 8b 4e 38          	mov    0x38(%rsi),%rcx
 442:	48 3b 4e 08          	cmp    0x8(%rsi),%rcx
 446:	75 78                	jne    4c0 <gzungetc+0x110>
 448:	89 c0                	mov    %eax,%eax
 44a:	48 01 c8             	add    %rcx,%rax
 44d:	48 01 d1             	add    %rdx,%rcx
 450:	eb 61                	jmp    4b3 <gzungetc+0x103>
 452:	c7 06 01 00 00 00    	movl   $0x1,(%rsi)
 458:	8b 46 28             	mov    0x28(%rsi),%eax
 45b:	01 c0                	add    %eax,%eax
 45d:	89 c1                	mov    %eax,%ecx
 45f:	48 8b 46 38          	mov    0x38(%rsi),%rax
 463:	48 8d 44 01 ff       	lea    -0x1(%rcx,%rax,1),%rax
 468:	48 89 46 08          	mov    %rax,0x8(%rsi)
 46c:	40 88 38             	mov    %dil,(%rax)
 46f:	48 8b 46 10          	mov    0x10(%rsi),%rax
 473:	48 83 c0 ff          	add    $0xffffffffffffffff,%rax
 477:	48 89 46 10          	mov    %rax,0x10(%rsi)
 47b:	c7 46 54 00 00 00 00 	movl   $0x0,0x54(%rsi)
 482:	48 89 f8             	mov    %rdi,%rax
 485:	c9                   	leaveq 
 486:	c3                   	retq   
 487:	48 89 f7             	mov    %rsi,%rdi
 48a:	48 c7 c6 fd ff ff ff 	mov    $0xfffffffffffffffd,%rsi
 491:	48 8d 15 00 00 00 00 	lea    0x0(%rip),%rdx        # 498 <gzungetc+0xe8>
 498:	e8 00 00 00 00       	callq  49d <gzungetc+0xed>
 49d:	48 c7 c0 ff ff ff ff 	mov    $0xffffffffffffffff,%rax
 4a4:	c9                   	leaveq 
 4a5:	c3                   	retq   
 4a6:	48 83 c1 ff          	add    $0xffffffffffffffff,%rcx
 4aa:	0f b6 11             	movzbl (%rcx),%edx
 4ad:	48 83 c0 ff          	add    $0xffffffffffffffff,%rax
 4b1:	88 10                	mov    %dl,(%rax)
 4b3:	48 8b 56 38          	mov    0x38(%rsi),%rdx
 4b7:	48 39 ca             	cmp    %rcx,%rdx
 4ba:	72 ea                	jb     4a6 <gzungetc+0xf6>
 4bc:	48 89 46 08          	mov    %rax,0x8(%rsi)
 4c0:	8b 06                	mov    (%rsi),%eax
 4c2:	83 c0 01             	add    $0x1,%eax
 4c5:	89 06                	mov    %eax,(%rsi)
 4c7:	48 8b 46 08          	mov    0x8(%rsi),%rax
 4cb:	48 83 c0 ff          	add    $0xffffffffffffffff,%rax
 4cf:	48 89 46 08          	mov    %rax,0x8(%rsi)
 4d3:	40 88 38             	mov    %dil,(%rax)
 4d6:	48 8b 46 10          	mov    0x10(%rsi),%rax
 4da:	48 83 c0 ff          	add    $0xffffffffffffffff,%rax
 4de:	48 89 46 10          	mov    %rax,0x10(%rsi)
 4e2:	c7 46 54 00 00 00 00 	movl   $0x0,0x54(%rsi)
 4e9:	48 89 f8             	mov    %rdi,%rax
 4ec:	c9                   	leaveq 
 4ed:	c3                   	retq   
 4ee:	66 90                	xchg   %ax,%ax

00000000000004f0 <gzdirect>:
 4f0:	55                   	push   %rbp
 4f1:	48 89 e5             	mov    %rsp,%rbp
 4f4:	48 83 ec 10          	sub    $0x10,%rsp
 4f8:	48 85 ff             	test   %rdi,%rdi
 4fb:	75 04                	jne    501 <gzdirect+0x11>
 4fd:	31 c0                	xor    %eax,%eax
 4ff:	c9                   	leaveq 
 500:	c3                   	retq   
 501:	48 63 47 18          	movslq 0x18(%rdi),%rax
 505:	3d 4f 1c 00 00       	cmp    $0x1c4f,%eax
 50a:	74 06                	je     512 <gzdirect+0x22>
 50c:	48 63 47 40          	movslq 0x40(%rdi),%rax
 510:	c9                   	leaveq 
 511:	c3                   	retq   
 512:	48 63 47 44          	movslq 0x44(%rdi),%rax
 516:	85 c0                	test   %eax,%eax
 518:	75 f2                	jne    50c <gzdirect+0x1c>
 51a:	8b 07                	mov    (%rdi),%eax
 51c:	85 c0                	test   %eax,%eax
 51e:	75 ec                	jne    50c <gzdirect+0x1c>
 520:	48 89 f8             	mov    %rdi,%rax
 523:	4c 89 7d f8          	mov    %r15,-0x8(%rbp)
 527:	49 89 ff             	mov    %rdi,%r15
 52a:	48 89 c7             	mov    %rax,%rdi
 52d:	e8 7e 02 00 00       	callq  7b0 <gz_look>
 532:	4c 89 ff             	mov    %r15,%rdi
 535:	4c 8b 7d f8          	mov    -0x8(%rbp),%r15
 539:	eb d1                	jmp    50c <gzdirect+0x1c>
 53b:	0f 1f 44 00 00       	nopl   0x0(%rax,%rax,1)

0000000000000540 <gzclose_r>:
 540:	55                   	push   %rbp
 541:	48 89 e5             	mov    %rsp,%rbp
 544:	48 83 ec 10          	sub    $0x10,%rsp
 548:	48 c7 c0 fe ff ff ff 	mov    $0xfffffffffffffffe,%rax
 54f:	48 85 ff             	test   %rdi,%rdi
 552:	75 02                	jne    556 <gzclose_r+0x16>
 554:	c9                   	leaveq 
 555:	c3                   	retq   
 556:	48 63 4f 18          	movslq 0x18(%rdi),%rcx
 55a:	81 f9 4f 1c 00 00    	cmp    $0x1c4f,%ecx
 560:	74 02                	je     564 <gzclose_r+0x24>
 562:	c9                   	leaveq 
 563:	c3                   	retq   
 564:	8b 47 28             	mov    0x28(%rdi),%eax
 567:	85 c0                	test   %eax,%eax
 569:	75 08                	jne    573 <gzclose_r+0x33>
 56b:	4c 89 f9             	mov    %r15,%rcx
 56e:	49 89 ff             	mov    %rdi,%r15
 571:	eb 29                	jmp    59c <gzclose_r+0x5c>
 573:	48 8d 47 78          	lea    0x78(%rdi),%rax
 577:	4c 89 7d f0          	mov    %r15,-0x10(%rbp)
 57b:	49 89 ff             	mov    %rdi,%r15
 57e:	48 89 c7             	mov    %rax,%rdi
 581:	e8 00 00 00 00       	callq  586 <gzclose_r+0x46>
 586:	49 8b 7f 38          	mov    0x38(%r15),%rdi
 58a:	e8 00 00 00 00       	callq  58f <gzclose_r+0x4f>
 58f:	49 8b 7f 30          	mov    0x30(%r15),%rdi
 593:	e8 00 00 00 00       	callq  598 <gzclose_r+0x58>
 598:	48 8b 4d f0          	mov    -0x10(%rbp),%rcx
 59c:	31 f6                	xor    %esi,%esi
 59e:	49 63 47 6c          	movslq 0x6c(%r15),%rax
 5a2:	83 f8 fb             	cmp    $0xfffffffb,%eax
 5a5:	74 05                	je     5ac <gzclose_r+0x6c>
 5a7:	48 89 f0             	mov    %rsi,%rax
 5aa:	eb 07                	jmp    5b3 <gzclose_r+0x73>
 5ac:	48 c7 c0 fb ff ff ff 	mov    $0xfffffffffffffffb,%rax
 5b3:	48 89 45 f8          	mov    %rax,-0x8(%rbp)
 5b7:	48 89 f2             	mov    %rsi,%rdx
 5ba:	4c 89 ff             	mov    %r15,%rdi
 5bd:	48 89 4d f0          	mov    %rcx,-0x10(%rbp)
 5c1:	e8 00 00 00 00       	callq  5c6 <gzclose_r+0x86>
 5c6:	49 8b 7f 20          	mov    0x20(%r15),%rdi
 5ca:	e8 00 00 00 00       	callq  5cf <gzclose_r+0x8f>
 5cf:	49 63 7f 1c          	movslq 0x1c(%r15),%rdi
 5d3:	e8 00 00 00 00       	callq  5d8 <gzclose_r+0x98>
 5d8:	4c 89 ff             	mov    %r15,%rdi
 5db:	49 89 c7             	mov    %rax,%r15
 5de:	e8 00 00 00 00       	callq  5e3 <gzclose_r+0xa3>
 5e3:	45 85 ff             	test   %r15d,%r15d
 5e6:	74 0d                	je     5f5 <gzclose_r+0xb5>
 5e8:	48 c7 c0 ff ff ff ff 	mov    $0xffffffffffffffff,%rax
 5ef:	4c 8b 7d f0          	mov    -0x10(%rbp),%r15
 5f3:	c9                   	leaveq 
 5f4:	c3                   	retq   
 5f5:	48 8b 45 f8          	mov    -0x8(%rbp),%rax
 5f9:	4c 8b 7d f0          	mov    -0x10(%rbp),%r15
 5fd:	c9                   	leaveq 
 5fe:	c3                   	retq   
 5ff:	90                   	nop

0000000000000600 <gzgetc_>:
 600:	55                   	push   %rbp
 601:	48 89 e5             	mov    %rsp,%rbp
 604:	e8 00 00 00 00       	callq  609 <gzgetc_+0x9>
 609:	c9                   	leaveq 
 60a:	c3                   	retq   
 60b:	0f 1f 44 00 00       	nopl   0x0(%rax,%rax,1)

0000000000000610 <gz_load>:
 610:	55                   	push   %rbp
 611:	48 89 e5             	mov    %rsp,%rbp
 614:	48 83 ec 30          	sub    $0x30,%rsp
 618:	48 89 5d f8          	mov    %rbx,-0x8(%rbp)
 61c:	4c 89 65 f0          	mov    %r12,-0x10(%rbp)
 620:	4c 89 6d e8          	mov    %r13,-0x18(%rbp)
 624:	4c 89 75 e0          	mov    %r14,-0x20(%rbp)
 628:	4c 89 7d d8          	mov    %r15,-0x28(%rbp)
 62c:	48 89 fb             	mov    %rdi,%rbx
 62f:	49 89 cc             	mov    %rcx,%r12
 632:	49 89 f5             	mov    %rsi,%r13
 635:	49 89 d7             	mov    %rdx,%r15
 638:	41 c7 04 24 00 00 00 	movl   $0x0,(%r12)
 63f:	00 
 640:	41 be 00 00 00 40    	mov    $0x40000000,%r14d
 646:	eb 26                	jmp    66e <gz_load+0x5e>
 648:	4c 89 f0             	mov    %r14,%rax
 64b:	4a 8d 34 29          	lea    (%rcx,%r13,1),%rsi
 64f:	48 63 7b 1c          	movslq 0x1c(%rbx),%rdi
 653:	89 c2                	mov    %eax,%edx
 655:	e8 00 00 00 00       	callq  65a <gz_load+0x4a>
 65a:	85 c0                	test   %eax,%eax
 65c:	7e 22                	jle    680 <gz_load+0x70>
 65e:	48 89 c1             	mov    %rax,%rcx
 661:	41 03 0c 24          	add    (%r12),%ecx
 665:	41 89 0c 24          	mov    %ecx,(%r12)
 669:	44 39 f9             	cmp    %r15d,%ecx
 66c:	73 12                	jae    680 <gz_load+0x70>
 66e:	41 8b 0c 24          	mov    (%r12),%ecx
 672:	4c 89 f8             	mov    %r15,%rax
 675:	29 c8                	sub    %ecx,%eax
 677:	3d 00 00 00 40       	cmp    $0x40000000,%eax
 67c:	77 ca                	ja     648 <gz_load+0x38>
 67e:	eb cb                	jmp    64b <gz_load+0x3b>
 680:	85 c0                	test   %eax,%eax
 682:	78 1f                	js     6a3 <gz_load+0x93>
 684:	31 c9                	xor    %ecx,%ecx
 686:	85 c0                	test   %eax,%eax
 688:	74 54                	je     6de <gz_load+0xce>
 68a:	48 89 c8             	mov    %rcx,%rax
 68d:	4c 8b 7d d8          	mov    -0x28(%rbp),%r15
 691:	4c 8b 75 e0          	mov    -0x20(%rbp),%r14
 695:	4c 8b 6d e8          	mov    -0x18(%rbp),%r13
 699:	4c 8b 65 f0          	mov    -0x10(%rbp),%r12
 69d:	48 8b 5d f8          	mov    -0x8(%rbp),%rbx
 6a1:	c9                   	leaveq 
 6a2:	c3                   	retq   
 6a3:	e8 00 00 00 00       	callq  6a8 <gz_load+0x98>
 6a8:	48 63 38             	movslq (%rax),%rdi
 6ab:	e8 00 00 00 00       	callq  6b0 <gz_load+0xa0>
 6b0:	48 89 c2             	mov    %rax,%rdx
 6b3:	48 89 df             	mov    %rbx,%rdi
 6b6:	49 c7 c4 ff ff ff ff 	mov    $0xffffffffffffffff,%r12
 6bd:	4c 89 e6             	mov    %r12,%rsi
 6c0:	e8 00 00 00 00       	callq  6c5 <gz_load+0xb5>
 6c5:	4c 89 e0             	mov    %r12,%rax
 6c8:	4c 8b 7d d8          	mov    -0x28(%rbp),%r15
 6cc:	4c 8b 75 e0          	mov    -0x20(%rbp),%r14
 6d0:	4c 8b 6d e8          	mov    -0x18(%rbp),%r13
 6d4:	4c 8b 65 f0          	mov    -0x10(%rbp),%r12
 6d8:	48 8b 5d f8          	mov    -0x8(%rbp),%rbx
 6dc:	c9                   	leaveq 
 6dd:	c3                   	retq   
 6de:	c7 43 50 01 00 00 00 	movl   $0x1,0x50(%rbx)
 6e5:	48 89 c8             	mov    %rcx,%rax
 6e8:	4c 8b 7d d8          	mov    -0x28(%rbp),%r15
 6ec:	4c 8b 75 e0          	mov    -0x20(%rbp),%r14
 6f0:	4c 8b 6d e8          	mov    -0x18(%rbp),%r13
 6f4:	4c 8b 65 f0          	mov    -0x10(%rbp),%r12
 6f8:	48 8b 5d f8          	mov    -0x8(%rbp),%rbx
 6fc:	c9                   	leaveq 
 6fd:	c3                   	retq   
 6fe:	66 90                	xchg   %ax,%ax

0000000000000700 <gz_avail>:
 700:	55                   	push   %rbp
 701:	48 89 e5             	mov    %rsp,%rbp
 704:	48 83 ec 10          	sub    $0x10,%rsp
 708:	48 c7 c0 ff ff ff ff 	mov    $0xffffffffffffffff,%rax
 70f:	48 63 4f 6c          	movslq 0x6c(%rdi),%rcx
 713:	85 c9                	test   %ecx,%ecx
 715:	75 0c                	jne    723 <gz_avail+0x23>
 717:	31 c0                	xor    %eax,%eax
 719:	48 63 4f 50          	movslq 0x50(%rdi),%rcx
 71d:	85 c9                	test   %ecx,%ecx
 71f:	74 09                	je     72a <gz_avail+0x2a>
 721:	c9                   	leaveq 
 722:	c3                   	retq   
 723:	83 f9 fb             	cmp    $0xfffffffb,%ecx
 726:	74 ef                	je     717 <gz_avail+0x17>
 728:	c9                   	leaveq 
 729:	c3                   	retq   
 72a:	8b 97 80 00 00 00    	mov    0x80(%rdi),%edx
 730:	85 d2                	test   %edx,%edx
 732:	75 3a                	jne    76e <gz_avail+0x6e>
 734:	8b 87 80 00 00 00    	mov    0x80(%rdi),%eax
 73a:	48 89 c6             	mov    %rax,%rsi
 73d:	48 03 77 30          	add    0x30(%rdi),%rsi
 741:	8b 57 28             	mov    0x28(%rdi),%edx
 744:	29 c2                	sub    %eax,%edx
 746:	48 8d 4d f4          	lea    -0xc(%rbp),%rcx
 74a:	48 89 f8             	mov    %rdi,%rax
 74d:	4c 89 7d f8          	mov    %r15,-0x8(%rbp)
 751:	49 89 ff             	mov    %rdi,%r15
 754:	48 89 c7             	mov    %rax,%rdi
 757:	e8 b4 fe ff ff       	callq  610 <gz_load>
 75c:	83 f8 ff             	cmp    $0xffffffff,%eax
 75f:	75 17                	jne    778 <gz_avail+0x78>
 761:	48 c7 c0 ff ff ff ff 	mov    $0xffffffffffffffff,%rax
 768:	4c 8b 7d f8          	mov    -0x8(%rbp),%r15
 76c:	c9                   	leaveq 
 76d:	c3                   	retq   
 76e:	48 8b 4f 30          	mov    0x30(%rdi),%rcx
 772:	48 8b 47 78          	mov    0x78(%rdi),%rax
 776:	eb 29                	jmp    7a1 <gz_avail+0xa1>
 778:	41 8b 87 80 00 00 00 	mov    0x80(%r15),%eax
 77f:	03 45 f4             	add    -0xc(%rbp),%eax
 782:	41 89 87 80 00 00 00 	mov    %eax,0x80(%r15)
 789:	49 8b 47 30          	mov    0x30(%r15),%rax
 78d:	49 89 47 78          	mov    %rax,0x78(%r15)
 791:	31 c0                	xor    %eax,%eax
 793:	4c 8b 7d f8          	mov    -0x8(%rbp),%r15
 797:	c9                   	leaveq 
 798:	c3                   	retq   
 799:	48 83 c0 01          	add    $0x1,%rax
 79d:	48 83 c1 01          	add    $0x1,%rcx
 7a1:	0f b6 30             	movzbl (%rax),%esi
 7a4:	40 88 31             	mov    %sil,(%rcx)
 7a7:	83 c2 ff             	add    $0xffffffff,%edx
 7aa:	85 d2                	test   %edx,%edx
 7ac:	75 eb                	jne    799 <gz_avail+0x99>
 7ae:	eb 84                	jmp    734 <gz_avail+0x34>

00000000000007b0 <gz_look>:
 7b0:	55                   	push   %rbp
 7b1:	48 89 e5             	mov    %rsp,%rbp
 7b4:	48 83 ec 20          	sub    $0x20,%rsp
 7b8:	4c 8d 47 78          	lea    0x78(%rdi),%r8
 7bc:	4c 89 45 e8          	mov    %r8,-0x18(%rbp)
 7c0:	8b 47 28             	mov    0x28(%rdi),%eax
 7c3:	85 c0                	test   %eax,%eax
 7c5:	0f 84 83 00 00 00    	je     84e <gz_look+0x9e>
 7cb:	4c 89 f9             	mov    %r15,%rcx
 7ce:	49 89 ff             	mov    %rdi,%r15
 7d1:	31 c0                	xor    %eax,%eax
 7d3:	41 8b 97 80 00 00 00 	mov    0x80(%r15),%edx
 7da:	83 fa 01             	cmp    $0x1,%edx
 7dd:	0f 86 20 01 00 00    	jbe    903 <gz_look+0x153>
 7e3:	41 8b 97 80 00 00 00 	mov    0x80(%r15),%edx
 7ea:	83 fa 01             	cmp    $0x1,%edx
 7ed:	0f 87 32 01 00 00    	ja     925 <gz_look+0x175>
 7f3:	49 63 57 40          	movslq 0x40(%r15),%rdx
 7f7:	85 d2                	test   %edx,%edx
 7f9:	0f 84 66 01 00 00    	je     965 <gz_look+0x1b5>
 7ff:	49 8b 7f 38          	mov    0x38(%r15),%rdi
 803:	49 89 7f 08          	mov    %rdi,0x8(%r15)
 807:	41 8b 97 80 00 00 00 	mov    0x80(%r15),%edx
 80e:	85 d2                	test   %edx,%edx
 810:	74 27                	je     839 <gz_look+0x89>
 812:	49 8b 30             	mov    (%r8),%rsi
 815:	48 89 4d e8          	mov    %rcx,-0x18(%rbp)
 819:	e8 00 00 00 00       	callq  81e <gz_look+0x6e>
 81e:	41 8b 87 80 00 00 00 	mov    0x80(%r15),%eax
 825:	41 89 07             	mov    %eax,(%r15)
 828:	41 c7 87 80 00 00 00 	movl   $0x0,0x80(%r15)
 82f:	00 00 00 00 
 833:	31 c0                	xor    %eax,%eax
 835:	48 8b 4d e8          	mov    -0x18(%rbp),%rcx
 839:	41 c7 47 44 01 00 00 	movl   $0x1,0x44(%r15)
 840:	00 
 841:	41 c7 47 40 01 00 00 	movl   $0x1,0x40(%r15)
 848:	00 
 849:	49 89 cf             	mov    %rcx,%r15
 84c:	c9                   	leaveq 
 84d:	c3                   	retq   
 84e:	8b 47 2c             	mov    0x2c(%rdi),%eax
 851:	4c 89 7d f0          	mov    %r15,-0x10(%rbp)
 855:	49 89 ff             	mov    %rdi,%r15
 858:	48 89 c7             	mov    %rax,%rdi
 85b:	e8 00 00 00 00       	callq  860 <gz_look+0xb0>
 860:	49 89 47 30          	mov    %rax,0x30(%r15)
 864:	41 8b 47 2c          	mov    0x2c(%r15),%eax
 868:	01 c0                	add    %eax,%eax
 86a:	89 c7                	mov    %eax,%edi
 86c:	e8 00 00 00 00       	callq  871 <gz_look+0xc1>
 871:	49 89 47 38          	mov    %rax,0x38(%r15)
 875:	49 8b 4f 30          	mov    0x30(%r15),%rcx
 879:	48 85 c9             	test   %rcx,%rcx
 87c:	0f 84 02 01 00 00    	je     984 <gz_look+0x1d4>
 882:	48 85 c0             	test   %rax,%rax
 885:	0f 84 f9 00 00 00    	je     984 <gz_look+0x1d4>
 88b:	41 8b 47 2c          	mov    0x2c(%r15),%eax
 88f:	41 89 47 28          	mov    %eax,0x28(%r15)
 893:	49 c7 87 b8 00 00 00 	movq   $0x0,0xb8(%r15)
 89a:	00 00 00 00 
 89e:	49 c7 87 c0 00 00 00 	movq   $0x0,0xc0(%r15)
 8a5:	00 00 00 00 
 8a9:	49 c7 87 c8 00 00 00 	movq   $0x0,0xc8(%r15)
 8b0:	00 00 00 00 
 8b4:	41 c7 87 80 00 00 00 	movl   $0x0,0x80(%r15)
 8bb:	00 00 00 00 
 8bf:	49 c7 47 78 00 00 00 	movq   $0x0,0x78(%r15)
 8c6:	00 
 8c7:	be 1f 00 00 00       	mov    $0x1f,%esi
 8cc:	48 8d 15 00 00 00 00 	lea    0x0(%rip),%rdx        # 8d3 <gz_look+0x123>
 8d3:	b9 70 00 00 00       	mov    $0x70,%ecx
 8d8:	48 8b 45 e8          	mov    -0x18(%rbp),%rax
 8dc:	48 89 c7             	mov    %rax,%rdi
 8df:	4c 89 75 f8          	mov    %r14,-0x8(%rbp)
 8e3:	49 89 c6             	mov    %rax,%r14
 8e6:	e8 00 00 00 00       	callq  8eb <gz_look+0x13b>
 8eb:	85 c0                	test   %eax,%eax
 8ed:	0f 85 c5 00 00 00    	jne    9b8 <gz_look+0x208>
 8f3:	4d 89 f0             	mov    %r14,%r8
 8f6:	4c 8b 75 f8          	mov    -0x8(%rbp),%r14
 8fa:	48 8b 4d f0          	mov    -0x10(%rbp),%rcx
 8fe:	e9 ce fe ff ff       	jmpq   7d1 <gz_look+0x21>
 903:	4c 89 ff             	mov    %r15,%rdi
 906:	48 89 4d f0          	mov    %rcx,-0x10(%rbp)
 90a:	e8 f1 fd ff ff       	callq  700 <gz_avail>
 90f:	83 f8 ff             	cmp    $0xffffffff,%eax
 912:	0f 85 e0 00 00 00    	jne    9f8 <gz_look+0x248>
 918:	48 c7 c0 ff ff ff ff 	mov    $0xffffffffffffffff,%rax
 91f:	4c 8b 7d f0          	mov    -0x10(%rbp),%r15
 923:	c9                   	leaveq 
 924:	c3                   	retq   
 925:	49 8b 30             	mov    (%r8),%rsi
 928:	0f b6 16             	movzbl (%rsi),%edx
 92b:	80 fa 1f             	cmp    $0x1f,%dl
 92e:	0f 85 bf fe ff ff    	jne    7f3 <gz_look+0x43>
 934:	0f b6 56 01          	movzbl 0x1(%rsi),%edx
 938:	80 fa 8b             	cmp    $0x8b,%dl
 93b:	0f 85 b2 fe ff ff    	jne    7f3 <gz_look+0x43>
 941:	48 89 4d e8          	mov    %rcx,-0x18(%rbp)
 945:	4c 89 c7             	mov    %r8,%rdi
 948:	e8 00 00 00 00       	callq  94d <gz_look+0x19d>
 94d:	41 c7 47 44 02 00 00 	movl   $0x2,0x44(%r15)
 954:	00 
 955:	41 c7 47 40 00 00 00 	movl   $0x0,0x40(%r15)
 95c:	00 
 95d:	31 c0                	xor    %eax,%eax
 95f:	4c 8b 7d e8          	mov    -0x18(%rbp),%r15
 963:	c9                   	leaveq 
 964:	c3                   	retq   
 965:	41 c7 87 80 00 00 00 	movl   $0x0,0x80(%r15)
 96c:	00 00 00 00 
 970:	41 c7 47 50 01 00 00 	movl   $0x1,0x50(%r15)
 977:	00 
 978:	41 c7 07 00 00 00 00 	movl   $0x0,(%r15)
 97f:	49 89 cf             	mov    %rcx,%r15
 982:	c9                   	leaveq 
 983:	c3                   	retq   
 984:	48 89 c7             	mov    %rax,%rdi
 987:	e8 00 00 00 00       	callq  98c <gz_look+0x1dc>
 98c:	49 8b 7f 30          	mov    0x30(%r15),%rdi
 990:	e8 00 00 00 00       	callq  995 <gz_look+0x1e5>
 995:	4c 89 ff             	mov    %r15,%rdi
 998:	48 8d 15 00 00 00 00 	lea    0x0(%rip),%rdx        # 99f <gz_look+0x1ef>
 99f:	48 c7 c6 fc ff ff ff 	mov    $0xfffffffffffffffc,%rsi
 9a6:	e8 00 00 00 00       	callq  9ab <gz_look+0x1fb>
 9ab:	48 c7 c0 ff ff ff ff 	mov    $0xffffffffffffffff,%rax
 9b2:	4c 8b 7d f0          	mov    -0x10(%rbp),%r15
 9b6:	c9                   	leaveq 
 9b7:	c3                   	retq   
 9b8:	49 8b 7f 38          	mov    0x38(%r15),%rdi
 9bc:	e8 00 00 00 00       	callq  9c1 <gz_look+0x211>
 9c1:	49 8b 7f 30          	mov    0x30(%r15),%rdi
 9c5:	e8 00 00 00 00       	callq  9ca <gz_look+0x21a>
 9ca:	4c 89 ff             	mov    %r15,%rdi
 9cd:	c7 47 28 00 00 00 00 	movl   $0x0,0x28(%rdi)
 9d4:	48 8d 15 00 00 00 00 	lea    0x0(%rip),%rdx        # 9db <gz_look+0x22b>
 9db:	48 c7 c6 fc ff ff ff 	mov    $0xfffffffffffffffc,%rsi
 9e2:	e8 00 00 00 00       	callq  9e7 <gz_look+0x237>
 9e7:	4c 8b 75 f8          	mov    -0x8(%rbp),%r14
 9eb:	48 c7 c0 ff ff ff ff 	mov    $0xffffffffffffffff,%rax
 9f2:	4c 8b 7d f0          	mov    -0x10(%rbp),%r15
 9f6:	c9                   	leaveq 
 9f7:	c3                   	retq   
 9f8:	41 8b 87 80 00 00 00 	mov    0x80(%r15),%eax
 9ff:	85 c0                	test   %eax,%eax
 a01:	74 0f                	je     a12 <gz_look+0x262>
 a03:	31 c0                	xor    %eax,%eax
 a05:	4c 8b 45 e8          	mov    -0x18(%rbp),%r8
 a09:	48 8b 4d f0          	mov    -0x10(%rbp),%rcx
 a0d:	e9 d1 fd ff ff       	jmpq   7e3 <gz_look+0x33>
 a12:	31 c0                	xor    %eax,%eax
 a14:	4c 8b 7d f0          	mov    -0x10(%rbp),%r15
 a18:	c9                   	leaveq 
 a19:	c3                   	retq   
 a1a:	66 0f 1f 44 00 00    	nopw   0x0(%rax,%rax,1)

0000000000000a20 <gz_decomp>:
 a20:	55                   	push   %rbp
 a21:	48 89 e5             	mov    %rsp,%rbp
 a24:	48 83 ec 30          	sub    $0x30,%rsp
 a28:	4c 89 65 f0          	mov    %r12,-0x10(%rbp)
 a2c:	4c 89 6d e8          	mov    %r13,-0x18(%rbp)
 a30:	4c 89 75 e0          	mov    %r14,-0x20(%rbp)
 a34:	4c 89 7d d8          	mov    %r15,-0x28(%rbp)
 a38:	8b 87 98 00 00 00    	mov    0x98(%rdi),%eax
 a3e:	48 89 45 f8          	mov    %rax,-0x8(%rbp)
 a42:	49 c7 c4 ff ff ff ff 	mov    $0xffffffffffffffff,%r12
 a49:	4c 8d 7f 78          	lea    0x78(%rdi),%r15
 a4d:	45 31 f6             	xor    %r14d,%r14d
 a50:	4c 89 75 d0          	mov    %r14,-0x30(%rbp)
 a54:	49 89 fd             	mov    %rdi,%r13
 a57:	41 8b 85 80 00 00 00 	mov    0x80(%r13),%eax
 a5e:	85 c0                	test   %eax,%eax
 a60:	75 0d                	jne    a6f <gz_decomp+0x4f>
 a62:	4c 89 ef             	mov    %r13,%rdi
 a65:	e8 96 fc ff ff       	callq  700 <gz_avail>
 a6a:	83 f8 ff             	cmp    $0xffffffff,%eax
 a6d:	74 60                	je     acf <gz_decomp+0xaf>
 a6f:	41 8b 85 80 00 00 00 	mov    0x80(%r13),%eax
 a76:	85 c0                	test   %eax,%eax
 a78:	75 6a                	jne    ae4 <gz_decomp+0xc4>
 a7a:	48 c7 c6 fb ff ff ff 	mov    $0xfffffffffffffffb,%rsi
 a81:	48 8d 15 00 00 00 00 	lea    0x0(%rip),%rdx        # a88 <gz_decomp+0x68>
 a88:	4c 89 ef             	mov    %r13,%rdi
 a8b:	e8 00 00 00 00       	callq  a90 <gz_decomp+0x70>
 a90:	48 8b 45 d0          	mov    -0x30(%rbp),%rax
 a94:	41 8b 95 98 00 00 00 	mov    0x98(%r13),%edx
 a9b:	48 8b 4d f8          	mov    -0x8(%rbp),%rcx
 a9f:	29 d1                	sub    %edx,%ecx
 aa1:	41 89 4d 00          	mov    %ecx,0x0(%r13)
 aa5:	89 ca                	mov    %ecx,%edx
 aa7:	49 8b 8d 90 00 00 00 	mov    0x90(%r13),%rcx
 aae:	48 29 d1             	sub    %rdx,%rcx
 ab1:	49 89 4d 08          	mov    %rcx,0x8(%r13)
 ab5:	83 f8 01             	cmp    $0x1,%eax
 ab8:	74 73                	je     b2d <gz_decomp+0x10d>
 aba:	4c 89 f0             	mov    %r14,%rax
 abd:	4c 8b 7d d8          	mov    -0x28(%rbp),%r15
 ac1:	4c 8b 75 e0          	mov    -0x20(%rbp),%r14
 ac5:	4c 8b 6d e8          	mov    -0x18(%rbp),%r13
 ac9:	4c 8b 65 f0          	mov    -0x10(%rbp),%r12
 acd:	c9                   	leaveq 
 ace:	c3                   	retq   
 acf:	4c 89 e0             	mov    %r12,%rax
 ad2:	4c 8b 7d d8          	mov    -0x28(%rbp),%r15
 ad6:	4c 8b 75 e0          	mov    -0x20(%rbp),%r14
 ada:	4c 8b 6d e8          	mov    -0x18(%rbp),%r13
 ade:	4c 8b 65 f0          	mov    -0x10(%rbp),%r12
 ae2:	c9                   	leaveq 
 ae3:	c3                   	retq   
 ae4:	4c 89 ff             	mov    %r15,%rdi
 ae7:	4c 89 f6             	mov    %r14,%rsi
 aea:	e8 00 00 00 00       	callq  aef <gz_decomp+0xcf>
 aef:	48 89 45 d0          	mov    %rax,-0x30(%rbp)
 af3:	83 f8 fe             	cmp    $0xfffffffe,%eax
 af6:	74 52                	je     b4a <gz_decomp+0x12a>
 af8:	83 f8 02             	cmp    $0x2,%eax
 afb:	74 4d                	je     b4a <gz_decomp+0x12a>
 afd:	83 f8 fc             	cmp    $0xfffffffc,%eax
 b00:	74 73                	je     b75 <gz_decomp+0x155>
 b02:	83 f8 fd             	cmp    $0xfffffffd,%eax
 b05:	0f 84 95 00 00 00    	je     ba0 <gz_decomp+0x180>
 b0b:	41 8b 8d 98 00 00 00 	mov    0x98(%r13),%ecx
 b12:	85 c9                	test   %ecx,%ecx
 b14:	0f 84 7a ff ff ff    	je     a94 <gz_decomp+0x74>
 b1a:	83 f8 01             	cmp    $0x1,%eax
 b1d:	0f 85 34 ff ff ff    	jne    a57 <gz_decomp+0x37>
 b23:	b8 01 00 00 00       	mov    $0x1,%eax
 b28:	e9 67 ff ff ff       	jmpq   a94 <gz_decomp+0x74>
 b2d:	41 c7 45 44 00 00 00 	movl   $0x0,0x44(%r13)
 b34:	00 
 b35:	4c 89 f0             	mov    %r14,%rax
 b38:	4c 8b 7d d8          	mov    -0x28(%rbp),%r15
 b3c:	4c 8b 75 e0          	mov    -0x20(%rbp),%r14
 b40:	4c 8b 6d e8          	mov    -0x18(%rbp),%r13
 b44:	4c 8b 65 f0          	mov    -0x10(%rbp),%r12
 b48:	c9                   	leaveq 
 b49:	c3                   	retq   
 b4a:	4c 89 ef             	mov    %r13,%rdi
 b4d:	48 c7 c6 fe ff ff ff 	mov    $0xfffffffffffffffe,%rsi
 b54:	48 8d 15 00 00 00 00 	lea    0x0(%rip),%rdx        # b5b <gz_decomp+0x13b>
 b5b:	e8 00 00 00 00       	callq  b60 <gz_decomp+0x140>
 b60:	4c 89 e0             	mov    %r12,%rax
 b63:	4c 8b 7d d8          	mov    -0x28(%rbp),%r15
 b67:	4c 8b 75 e0          	mov    -0x20(%rbp),%r14
 b6b:	4c 8b 6d e8          	mov    -0x18(%rbp),%r13
 b6f:	4c 8b 65 f0          	mov    -0x10(%rbp),%r12
 b73:	c9                   	leaveq 
 b74:	c3                   	retq   
 b75:	4c 89 ef             	mov    %r13,%rdi
 b78:	48 c7 c6 fc ff ff ff 	mov    $0xfffffffffffffffc,%rsi
 b7f:	48 8d 15 00 00 00 00 	lea    0x0(%rip),%rdx        # b86 <gz_decomp+0x166>
 b86:	e8 00 00 00 00       	callq  b8b <gz_decomp+0x16b>
 b8b:	4c 89 e0             	mov    %r12,%rax
 b8e:	4c 8b 7d d8          	mov    -0x28(%rbp),%r15
 b92:	4c 8b 75 e0          	mov    -0x20(%rbp),%r14
 b96:	4c 8b 6d e8          	mov    -0x18(%rbp),%r13
 b9a:	4c 8b 65 f0          	mov    -0x10(%rbp),%r12
 b9e:	c9                   	leaveq 
 b9f:	c3                   	retq   
 ba0:	49 8b 95 a8 00 00 00 	mov    0xa8(%r13),%rdx
 ba7:	48 85 d2             	test   %rdx,%rdx
 baa:	75 07                	jne    bb3 <gz_decomp+0x193>
 bac:	48 8d 15 00 00 00 00 	lea    0x0(%rip),%rdx        # bb3 <gz_decomp+0x193>
 bb3:	4c 89 ef             	mov    %r13,%rdi
 bb6:	48 c7 c6 fd ff ff ff 	mov    $0xfffffffffffffffd,%rsi
 bbd:	e8 00 00 00 00       	callq  bc2 <gz_decomp+0x1a2>
 bc2:	4c 89 e0             	mov    %r12,%rax
 bc5:	4c 8b 7d d8          	mov    -0x28(%rbp),%r15
 bc9:	4c 8b 75 e0          	mov    -0x20(%rbp),%r14
 bcd:	4c 8b 6d e8          	mov    -0x18(%rbp),%r13
 bd1:	4c 8b 65 f0          	mov    -0x10(%rbp),%r12
 bd5:	c9                   	leaveq 
 bd6:	c3                   	retq   
 bd7:	66 0f 1f 84 00 00 00 	nopw   0x0(%rax,%rax,1)
 bde:	00 00 

0000000000000be0 <gz_fetch>:
 be0:	55                   	push   %rbp
 be1:	48 89 e5             	mov    %rsp,%rbp
 be4:	48 83 ec 10          	sub    $0x10,%rsp
 be8:	4c 89 75 f8          	mov    %r14,-0x8(%rbp)
 bec:	4c 89 7d f0          	mov    %r15,-0x10(%rbp)
 bf0:	49 89 ff             	mov    %rdi,%r15
 bf3:	49 c7 c6 ff ff ff ff 	mov    $0xffffffffffffffff,%r14
 bfa:	eb 08                	jmp    c04 <gz_fetch+0x24>
 bfc:	49 63 47 50          	movslq 0x50(%r15),%rax
 c00:	85 c0                	test   %eax,%eax
 c02:	75 44                	jne    c48 <gz_fetch+0x68>
 c04:	49 63 47 44          	movslq 0x44(%r15),%rax
 c08:	85 c0                	test   %eax,%eax
 c0a:	7e 53                	jle    c5f <gz_fetch+0x7f>
 c0c:	83 f8 01             	cmp    $0x1,%eax
 c0f:	74 65                	je     c76 <gz_fetch+0x96>
 c11:	83 f8 02             	cmp    $0x2,%eax
 c14:	75 4d                	jne    c63 <gz_fetch+0x83>
 c16:	41 8b 47 28          	mov    0x28(%r15),%eax
 c1a:	01 c0                	add    %eax,%eax
 c1c:	41 89 87 98 00 00 00 	mov    %eax,0x98(%r15)
 c23:	49 8b 47 38          	mov    0x38(%r15),%rax
 c27:	49 89 87 90 00 00 00 	mov    %rax,0x90(%r15)
 c2e:	4c 89 ff             	mov    %r15,%rdi
 c31:	e8 ea fd ff ff       	callq  a20 <gz_decomp>
 c36:	83 f8 ff             	cmp    $0xffffffff,%eax
 c39:	75 28                	jne    c63 <gz_fetch+0x83>
 c3b:	4c 89 f0             	mov    %r14,%rax
 c3e:	4c 8b 7d f0          	mov    -0x10(%rbp),%r15
 c42:	4c 8b 75 f8          	mov    -0x8(%rbp),%r14
 c46:	c9                   	leaveq 
 c47:	c3                   	retq   
 c48:	41 8b 87 80 00 00 00 	mov    0x80(%r15),%eax
 c4f:	85 c0                	test   %eax,%eax
 c51:	75 b1                	jne    c04 <gz_fetch+0x24>
 c53:	31 c0                	xor    %eax,%eax
 c55:	4c 8b 7d f0          	mov    -0x10(%rbp),%r15
 c59:	4c 8b 75 f8          	mov    -0x8(%rbp),%r14
 c5d:	c9                   	leaveq 
 c5e:	c3                   	retq   
 c5f:	85 c0                	test   %eax,%eax
 c61:	74 3b                	je     c9e <gz_fetch+0xbe>
 c63:	41 8b 07             	mov    (%r15),%eax
 c66:	85 c0                	test   %eax,%eax
 c68:	74 92                	je     bfc <gz_fetch+0x1c>
 c6a:	31 c0                	xor    %eax,%eax
 c6c:	4c 8b 7d f0          	mov    -0x10(%rbp),%r15
 c70:	4c 8b 75 f8          	mov    -0x8(%rbp),%r14
 c74:	c9                   	leaveq 
 c75:	c3                   	retq   
 c76:	49 8b 77 38          	mov    0x38(%r15),%rsi
 c7a:	41 8b 47 28          	mov    0x28(%r15),%eax
 c7e:	8d 14 00             	lea    (%rax,%rax,1),%edx
 c81:	4c 89 f9             	mov    %r15,%rcx
 c84:	4c 89 ff             	mov    %r15,%rdi
 c87:	e8 84 f9 ff ff       	callq  610 <gz_load>
 c8c:	83 f8 ff             	cmp    $0xffffffff,%eax
 c8f:	75 2e                	jne    cbf <gz_fetch+0xdf>
 c91:	4c 89 f0             	mov    %r14,%rax
 c94:	4c 8b 7d f0          	mov    -0x10(%rbp),%r15
 c98:	4c 8b 75 f8          	mov    -0x8(%rbp),%r14
 c9c:	c9                   	leaveq 
 c9d:	c3                   	retq   
 c9e:	4c 89 ff             	mov    %r15,%rdi
 ca1:	e8 0a fb ff ff       	callq  7b0 <gz_look>
 ca6:	83 f8 ff             	cmp    $0xffffffff,%eax
 ca9:	74 28                	je     cd3 <gz_fetch+0xf3>
 cab:	49 63 47 44          	movslq 0x44(%r15),%rax
 caf:	85 c0                	test   %eax,%eax
 cb1:	75 b0                	jne    c63 <gz_fetch+0x83>
 cb3:	31 c0                	xor    %eax,%eax
 cb5:	4c 8b 7d f0          	mov    -0x10(%rbp),%r15
 cb9:	4c 8b 75 f8          	mov    -0x8(%rbp),%r14
 cbd:	c9                   	leaveq 
 cbe:	c3                   	retq   
 cbf:	49 8b 47 38          	mov    0x38(%r15),%rax
 cc3:	49 89 47 08          	mov    %rax,0x8(%r15)
 cc7:	31 c0                	xor    %eax,%eax
 cc9:	4c 8b 7d f0          	mov    -0x10(%rbp),%r15
 ccd:	4c 8b 75 f8          	mov    -0x8(%rbp),%r14
 cd1:	c9                   	leaveq 
 cd2:	c3                   	retq   
 cd3:	4c 89 f0             	mov    %r14,%rax
 cd6:	4c 8b 7d f0          	mov    -0x10(%rbp),%r15
 cda:	4c 8b 75 f8          	mov    -0x8(%rbp),%r14
 cde:	c9                   	leaveq 
 cdf:	c3                   	retq   

0000000000000ce0 <gz_skip>:
 ce0:	55                   	push   %rbp
 ce1:	48 89 e5             	mov    %rsp,%rbp
 ce4:	48 83 ec 10          	sub    $0x10,%rsp
 ce8:	4c 89 75 f8          	mov    %r14,-0x8(%rbp)
 cec:	4c 89 7d f0          	mov    %r15,-0x10(%rbp)
 cf0:	4d 89 ee             	mov    %r13,%r14
 cf3:	4d 89 e5             	mov    %r12,%r13
 cf6:	49 89 dc             	mov    %rbx,%r12
 cf9:	48 89 f3             	mov    %rsi,%rbx
 cfc:	49 89 ff             	mov    %rdi,%r15
 cff:	eb 23                	jmp    d24 <gz_skip+0x44>
 d01:	48 89 d9             	mov    %rbx,%rcx
 d04:	29 c8                	sub    %ecx,%eax
 d06:	41 89 07             	mov    %eax,(%r15)
 d09:	89 c9                	mov    %ecx,%ecx
 d0b:	48 89 c8             	mov    %rcx,%rax
 d0e:	49 03 47 08          	add    0x8(%r15),%rax
 d12:	49 89 47 08          	mov    %rax,0x8(%r15)
 d16:	48 89 c8             	mov    %rcx,%rax
 d19:	49 03 47 10          	add    0x10(%r15),%rax
 d1d:	49 89 47 10          	mov    %rax,0x10(%r15)
 d21:	48 29 cb             	sub    %rcx,%rbx
 d24:	48 85 db             	test   %rbx,%rbx
 d27:	75 15                	jne    d3e <gz_skip+0x5e>
 d29:	4c 89 e3             	mov    %r12,%rbx
 d2c:	4d 89 ec             	mov    %r13,%r12
 d2f:	4d 89 f5             	mov    %r14,%r13
 d32:	31 c0                	xor    %eax,%eax
 d34:	4c 8b 7d f0          	mov    -0x10(%rbp),%r15
 d38:	4c 8b 75 f8          	mov    -0x8(%rbp),%r14
 d3c:	c9                   	leaveq 
 d3d:	c3                   	retq   
 d3e:	41 8b 07             	mov    (%r15),%eax
 d41:	85 c0                	test   %eax,%eax
 d43:	75 2f                	jne    d74 <gz_skip+0x94>
 d45:	49 63 47 50          	movslq 0x50(%r15),%rax
 d49:	85 c0                	test   %eax,%eax
 d4b:	75 31                	jne    d7e <gz_skip+0x9e>
 d4d:	4c 89 ff             	mov    %r15,%rdi
 d50:	e8 8b fe ff ff       	callq  be0 <gz_fetch>
 d55:	83 f8 ff             	cmp    $0xffffffff,%eax
 d58:	75 ca                	jne    d24 <gz_skip+0x44>
 d5a:	4c 89 e3             	mov    %r12,%rbx
 d5d:	4d 89 ec             	mov    %r13,%r12
 d60:	4d 89 f5             	mov    %r14,%r13
 d63:	48 c7 c0 ff ff ff ff 	mov    $0xffffffffffffffff,%rax
 d6a:	4c 8b 7d f0          	mov    -0x10(%rbp),%r15
 d6e:	4c 8b 75 f8          	mov    -0x8(%rbp),%r14
 d72:	c9                   	leaveq 
 d73:	c3                   	retq   
 d74:	48 39 d8             	cmp    %rbx,%rax
 d77:	7f 88                	jg     d01 <gz_skip+0x21>
 d79:	48 89 c1             	mov    %rax,%rcx
 d7c:	eb 86                	jmp    d04 <gz_skip+0x24>
 d7e:	41 8b 87 80 00 00 00 	mov    0x80(%r15),%eax
 d85:	85 c0                	test   %eax,%eax
 d87:	75 c4                	jne    d4d <gz_skip+0x6d>
 d89:	4c 89 e3             	mov    %r12,%rbx
 d8c:	4d 89 ec             	mov    %r13,%r12
 d8f:	4d 89 f5             	mov    %r14,%r13
 d92:	31 c0                	xor    %eax,%eax
 d94:	4c 8b 7d f0          	mov    -0x10(%rbp),%r15
 d98:	4c 8b 75 f8          	mov    -0x8(%rbp),%r14
 d9c:	c9                   	leaveq 
 d9d:	c3                   	retq   
 d9e:	66 90                	xchg   %ax,%ax

0000000000000da0 <gz_read>:
 da0:	55                   	push   %rbp
 da1:	48 89 e5             	mov    %rsp,%rbp
 da4:	48 83 ec 50          	sub    $0x50,%rsp
 da8:	31 c0                	xor    %eax,%eax
 daa:	48 85 d2             	test   %rdx,%rdx
 dad:	75 02                	jne    db1 <gz_read+0x11>
 daf:	c9                   	leaveq 
 db0:	c3                   	retq   
 db1:	48 8d 4d bc          	lea    -0x44(%rbp),%rcx
 db5:	41 b9 fe ff ff ff    	mov    $0xfffffffe,%r9d
 dbb:	4c 63 47 68          	movslq 0x68(%rdi),%r8
 dbf:	45 85 c0             	test   %r8d,%r8d
 dc2:	75 25                	jne    de9 <gz_read+0x49>
 dc4:	48 89 5d f8          	mov    %rbx,-0x8(%rbp)
 dc8:	4c 89 65 f0          	mov    %r12,-0x10(%rbp)
 dcc:	4c 89 6d e8          	mov    %r13,-0x18(%rbp)
 dd0:	4c 89 75 e0          	mov    %r14,-0x20(%rbp)
 dd4:	4c 89 7d d8          	mov    %r15,-0x28(%rbp)
 dd8:	48 89 d3             	mov    %rdx,%rbx
 ddb:	49 89 c4             	mov    %rax,%r12
 dde:	49 89 f5             	mov    %rsi,%r13
 de1:	4d 89 ce             	mov    %r9,%r14
 de4:	49 89 ff             	mov    %rdi,%r15
 de7:	eb 61                	jmp    e4a <gz_read+0xaa>
 de9:	c7 47 68 00 00 00 00 	movl   $0x0,0x68(%rdi)
 df0:	48 8b 4f 60          	mov    0x60(%rdi),%rcx
 df4:	48 89 f8             	mov    %rdi,%rax
 df7:	48 89 55 c8          	mov    %rdx,-0x38(%rbp)
 dfb:	48 89 75 d0          	mov    %rsi,-0x30(%rbp)
 dff:	48 89 7d c0          	mov    %rdi,-0x40(%rbp)
 e03:	48 89 ce             	mov    %rcx,%rsi
 e06:	48 89 c7             	mov    %rax,%rdi
 e09:	e8 d2 fe ff ff       	callq  ce0 <gz_skip>
 e0e:	83 f8 ff             	cmp    $0xffffffff,%eax
 e11:	0f 84 86 00 00 00    	je     e9d <gz_read+0xfd>
 e17:	48 89 5d f8          	mov    %rbx,-0x8(%rbp)
 e1b:	4c 89 65 f0          	mov    %r12,-0x10(%rbp)
 e1f:	4c 89 6d e8          	mov    %r13,-0x18(%rbp)
 e23:	4c 89 75 e0          	mov    %r14,-0x20(%rbp)
 e27:	4c 89 7d d8          	mov    %r15,-0x28(%rbp)
 e2b:	48 8d 4d bc          	lea    -0x44(%rbp),%rcx
 e2f:	41 be fe ff ff ff    	mov    $0xfffffffe,%r14d
 e35:	45 31 e4             	xor    %r12d,%r12d
 e38:	4c 8b 7d c0          	mov    -0x40(%rbp),%r15
 e3c:	4c 8b 6d d0          	mov    -0x30(%rbp),%r13
 e40:	48 8b 5d c8          	mov    -0x38(%rbp),%rbx
 e44:	eb 04                	jmp    e4a <gz_read+0xaa>
 e46:	48 8d 4d bc          	lea    -0x44(%rbp),%rcx
 e4a:	c7 45 bc ff ff ff ff 	movl   $0xffffffff,-0x44(%rbp)
 e51:	4c 39 f3             	cmp    %r14,%rbx
 e54:	77 03                	ja     e59 <gz_read+0xb9>
 e56:	89 5d bc             	mov    %ebx,-0x44(%rbp)
 e59:	41 8b 07             	mov    (%r15),%eax
 e5c:	85 c0                	test   %eax,%eax
 e5e:	75 41                	jne    ea1 <gz_read+0x101>
 e60:	49 63 47 50          	movslq 0x50(%r15),%rax
 e64:	85 c0                	test   %eax,%eax
 e66:	0f 85 9b 00 00 00    	jne    f07 <gz_read+0x167>
 e6c:	49 63 77 44          	movslq 0x44(%r15),%rsi
 e70:	85 f6                	test   %esi,%esi
 e72:	0f 85 bf 00 00 00    	jne    f37 <gz_read+0x197>
 e78:	4c 89 ff             	mov    %r15,%rdi
 e7b:	e8 60 fd ff ff       	callq  be0 <gz_fetch>
 e80:	83 f8 ff             	cmp    $0xffffffff,%eax
 e83:	75 60                	jne    ee5 <gz_read+0x145>
 e85:	4c 8b 7d d8          	mov    -0x28(%rbp),%r15
 e89:	4c 8b 75 e0          	mov    -0x20(%rbp),%r14
 e8d:	4c 8b 6d e8          	mov    -0x18(%rbp),%r13
 e91:	4c 8b 65 f0          	mov    -0x10(%rbp),%r12
 e95:	48 8b 5d f8          	mov    -0x8(%rbp),%rbx
 e99:	31 c0                	xor    %eax,%eax
 e9b:	c9                   	leaveq 
 e9c:	c3                   	retq   
 e9d:	31 c0                	xor    %eax,%eax
 e9f:	c9                   	leaveq 
 ea0:	c3                   	retq   
 ea1:	3b 45 bc             	cmp    -0x44(%rbp),%eax
 ea4:	73 03                	jae    ea9 <gz_read+0x109>
 ea6:	89 45 bc             	mov    %eax,-0x44(%rbp)
 ea9:	49 8b 77 08          	mov    0x8(%r15),%rsi
 ead:	8b 55 bc             	mov    -0x44(%rbp),%edx
 eb0:	4c 89 ef             	mov    %r13,%rdi
 eb3:	e8 00 00 00 00       	callq  eb8 <gz_read+0x118>
 eb8:	8b 4d bc             	mov    -0x44(%rbp),%ecx
 ebb:	48 89 c8             	mov    %rcx,%rax
 ebe:	49 03 47 08          	add    0x8(%r15),%rax
 ec2:	49 89 47 08          	mov    %rax,0x8(%r15)
 ec6:	41 8b 07             	mov    (%r15),%eax
 ec9:	29 c8                	sub    %ecx,%eax
 ecb:	41 89 07             	mov    %eax,(%r15)
 ece:	8b 4d bc             	mov    -0x44(%rbp),%ecx
 ed1:	48 29 cb             	sub    %rcx,%rbx
 ed4:	48 89 c8             	mov    %rcx,%rax
 ed7:	49 03 47 10          	add    0x10(%r15),%rax
 edb:	49 89 47 10          	mov    %rax,0x10(%r15)
 edf:	49 01 cc             	add    %rcx,%r12
 ee2:	49 01 cd             	add    %rcx,%r13
 ee5:	48 85 db             	test   %rbx,%rbx
 ee8:	0f 85 58 ff ff ff    	jne    e46 <gz_read+0xa6>
 eee:	4c 89 e0             	mov    %r12,%rax
 ef1:	4c 8b 7d d8          	mov    -0x28(%rbp),%r15
 ef5:	4c 8b 75 e0          	mov    -0x20(%rbp),%r14
 ef9:	4c 8b 6d e8          	mov    -0x18(%rbp),%r13
 efd:	4c 8b 65 f0          	mov    -0x10(%rbp),%r12
 f01:	48 8b 5d f8          	mov    -0x8(%rbp),%rbx
 f05:	c9                   	leaveq 
 f06:	c3                   	retq   
 f07:	41 8b 87 80 00 00 00 	mov    0x80(%r15),%eax
 f0e:	85 c0                	test   %eax,%eax
 f10:	0f 85 56 ff ff ff    	jne    e6c <gz_read+0xcc>
 f16:	41 c7 47 54 01 00 00 	movl   $0x1,0x54(%r15)
 f1d:	00 
 f1e:	4c 89 e0             	mov    %r12,%rax
 f21:	4c 8b 7d d8          	mov    -0x28(%rbp),%r15
 f25:	4c 8b 75 e0          	mov    -0x20(%rbp),%r14
 f29:	4c 8b 6d e8          	mov    -0x18(%rbp),%r13
 f2d:	4c 8b 65 f0          	mov    -0x10(%rbp),%r12
 f31:	48 8b 5d f8          	mov    -0x8(%rbp),%rbx
 f35:	c9                   	leaveq 
 f36:	c3                   	retq   
 f37:	8b 55 bc             	mov    -0x44(%rbp),%edx
 f3a:	41 8b 47 28          	mov    0x28(%r15),%eax
 f3e:	01 c0                	add    %eax,%eax
 f40:	39 c2                	cmp    %eax,%edx
 f42:	0f 82 30 ff ff ff    	jb     e78 <gz_read+0xd8>
 f48:	83 fe 01             	cmp    $0x1,%esi
 f4b:	74 2d                	je     f7a <gz_read+0x1da>
 f4d:	41 89 97 98 00 00 00 	mov    %edx,0x98(%r15)
 f54:	4d 89 af 90 00 00 00 	mov    %r13,0x90(%r15)
 f5b:	4c 89 ff             	mov    %r15,%rdi
 f5e:	e8 bd fa ff ff       	callq  a20 <gz_decomp>
 f63:	83 f8 ff             	cmp    $0xffffffff,%eax
 f66:	74 3e                	je     fa6 <gz_read+0x206>
 f68:	41 8b 07             	mov    (%r15),%eax
 f6b:	89 45 bc             	mov    %eax,-0x44(%rbp)
 f6e:	41 c7 07 00 00 00 00 	movl   $0x0,(%r15)
 f75:	e9 54 ff ff ff       	jmpq   ece <gz_read+0x12e>
 f7a:	4c 89 ff             	mov    %r15,%rdi
 f7d:	4c 89 ee             	mov    %r13,%rsi
 f80:	e8 8b f6 ff ff       	callq  610 <gz_load>
 f85:	83 f8 ff             	cmp    $0xffffffff,%eax
 f88:	0f 85 40 ff ff ff    	jne    ece <gz_read+0x12e>
 f8e:	4c 8b 7d d8          	mov    -0x28(%rbp),%r15
 f92:	4c 8b 75 e0          	mov    -0x20(%rbp),%r14
 f96:	4c 8b 6d e8          	mov    -0x18(%rbp),%r13
 f9a:	4c 8b 65 f0          	mov    -0x10(%rbp),%r12
 f9e:	48 8b 5d f8          	mov    -0x8(%rbp),%rbx
 fa2:	31 c0                	xor    %eax,%eax
 fa4:	c9                   	leaveq 
 fa5:	c3                   	retq   
 fa6:	4c 8b 7d d8          	mov    -0x28(%rbp),%r15
 faa:	4c 8b 75 e0          	mov    -0x20(%rbp),%r14
 fae:	4c 8b 6d e8          	mov    -0x18(%rbp),%r13
 fb2:	4c 8b 65 f0          	mov    -0x10(%rbp),%r12
 fb6:	48 8b 5d f8          	mov    -0x8(%rbp),%rbx
 fba:	31 c0                	xor    %eax,%eax
 fbc:	c9                   	leaveq 
 fbd:	c3                   	retq   

gzwrite.o:     file format elf64-x86-64


Disassembly of section .text:

0000000000000000 <gzsetparams>:
       0:	55                   	push   %rbp
       1:	48 89 e5             	mov    %rsp,%rbp
       4:	48 83 ec 20          	sub    $0x20,%rsp
       8:	48 c7 c0 fe ff ff ff 	mov    $0xfffffffffffffffe,%rax
       f:	48 85 ff             	test   %rdi,%rdi
      12:	75 02                	jne    16 <gzsetparams+0x16>
      14:	c9                   	leaveq 
      15:	c3                   	retq   
      16:	48 63 4f 18          	movslq 0x18(%rdi),%rcx
      1a:	81 f9 b1 79 00 00    	cmp    $0x79b1,%ecx
      20:	74 02                	je     24 <gzsetparams+0x24>
      22:	c9                   	leaveq 
      23:	c3                   	retq   
      24:	48 63 4f 6c          	movslq 0x6c(%rdi),%rcx
      28:	85 c9                	test   %ecx,%ecx
      2a:	74 02                	je     2e <gzsetparams+0x2e>
      2c:	c9                   	leaveq 
      2d:	c3                   	retq   
      2e:	31 c0                	xor    %eax,%eax
      30:	48 63 4f 58          	movslq 0x58(%rdi),%rcx
      34:	39 f1                	cmp    %esi,%ecx
      36:	74 17                	je     4f <gzsetparams+0x4f>
      38:	48 63 4f 68          	movslq 0x68(%rdi),%rcx
      3c:	85 c9                	test   %ecx,%ecx
      3e:	75 19                	jne    59 <gzsetparams+0x59>
      40:	8b 4f 28             	mov    0x28(%rdi),%ecx
      43:	85 c9                	test   %ecx,%ecx
      45:	75 52                	jne    99 <gzsetparams+0x99>
      47:	89 77 58             	mov    %esi,0x58(%rdi)
      4a:	89 57 5c             	mov    %edx,0x5c(%rdi)
      4d:	c9                   	leaveq 
      4e:	c3                   	retq   
      4f:	48 63 4f 5c          	movslq 0x5c(%rdi),%rcx
      53:	39 d1                	cmp    %edx,%ecx
      55:	75 e1                	jne    38 <gzsetparams+0x38>
      57:	c9                   	leaveq 
      58:	c3                   	retq   
      59:	c7 47 68 00 00 00 00 	movl   $0x0,0x68(%rdi)
      60:	48 8b 47 60          	mov    0x60(%rdi),%rax
      64:	48 89 f9             	mov    %rdi,%rcx
      67:	4c 89 7d e0          	mov    %r15,-0x20(%rbp)
      6b:	48 89 75 f8          	mov    %rsi,-0x8(%rbp)
      6f:	48 89 55 e8          	mov    %rdx,-0x18(%rbp)
      73:	48 89 c6             	mov    %rax,%rsi
      76:	49 89 ff             	mov    %rdi,%r15
      79:	48 89 cf             	mov    %rcx,%rdi
      7c:	e8 8f 0b 00 00       	callq  c10 <gz_zero>
      81:	83 f8 ff             	cmp    $0xffffffff,%eax
      84:	74 66                	je     ec <gzsetparams+0xec>
      86:	4c 89 ff             	mov    %r15,%rdi
      89:	31 c0                	xor    %eax,%eax
      8b:	48 8b 55 e8          	mov    -0x18(%rbp),%rdx
      8f:	48 8b 75 f8          	mov    -0x8(%rbp),%rsi
      93:	4c 8b 7d e0          	mov    -0x20(%rbp),%r15
      97:	eb a7                	jmp    40 <gzsetparams+0x40>
      99:	8b 87 80 00 00 00    	mov    0x80(%rdi),%eax
      9f:	85 c0                	test   %eax,%eax
      a1:	75 53                	jne    f6 <gzsetparams+0xf6>
      a3:	48 8d 4f 78          	lea    0x78(%rdi),%rcx
      a7:	49 89 f0             	mov    %rsi,%r8
      aa:	48 89 d0             	mov    %rdx,%rax
      ad:	4c 89 7d e0          	mov    %r15,-0x20(%rbp)
      b1:	4c 89 6d f0          	mov    %r13,-0x10(%rbp)
      b5:	4c 89 75 e8          	mov    %r14,-0x18(%rbp)
      b9:	49 89 fd             	mov    %rdi,%r13
      bc:	48 89 cf             	mov    %rcx,%rdi
      bf:	49 89 f6             	mov    %rsi,%r14
      c2:	4c 89 c6             	mov    %r8,%rsi
      c5:	49 89 d7             	mov    %rdx,%r15
      c8:	48 89 c2             	mov    %rax,%rdx
      cb:	e8 00 00 00 00       	callq  d0 <gzsetparams+0xd0>
      d0:	4c 89 fa             	mov    %r15,%rdx
      d3:	4c 89 f6             	mov    %r14,%rsi
      d6:	4c 89 ef             	mov    %r13,%rdi
      d9:	4c 8b 75 e8          	mov    -0x18(%rbp),%r14
      dd:	4c 8b 6d f0          	mov    -0x10(%rbp),%r13
      e1:	31 c0                	xor    %eax,%eax
      e3:	4c 8b 7d e0          	mov    -0x20(%rbp),%r15
      e7:	e9 5b ff ff ff       	jmpq   47 <gzsetparams+0x47>
      ec:	49 63 47 6c          	movslq 0x6c(%r15),%rax
      f0:	4c 8b 7d e0          	mov    -0x20(%rbp),%r15
      f4:	c9                   	leaveq 
      f5:	c3                   	retq   
      f6:	b8 05 00 00 00       	mov    $0x5,%eax
      fb:	48 89 f9             	mov    %rdi,%rcx
      fe:	4c 89 7d e0          	mov    %r15,-0x20(%rbp)
     102:	48 89 75 f8          	mov    %rsi,-0x8(%rbp)
     106:	48 89 55 f0          	mov    %rdx,-0x10(%rbp)
     10a:	48 89 c6             	mov    %rax,%rsi
     10d:	49 89 ff             	mov    %rdi,%r15
     110:	48 89 cf             	mov    %rcx,%rdi
     113:	e8 38 08 00 00       	callq  950 <gz_comp>
     118:	83 f8 ff             	cmp    $0xffffffff,%eax
     11b:	74 14                	je     131 <gzsetparams+0x131>
     11d:	4c 89 ff             	mov    %r15,%rdi
     120:	48 8b 55 f0          	mov    -0x10(%rbp),%rdx
     124:	48 8b 75 f8          	mov    -0x8(%rbp),%rsi
     128:	4c 8b 7d e0          	mov    -0x20(%rbp),%r15
     12c:	e9 72 ff ff ff       	jmpq   a3 <gzsetparams+0xa3>
     131:	49 63 47 6c          	movslq 0x6c(%r15),%rax
     135:	4c 8b 7d e0          	mov    -0x20(%rbp),%r15
     139:	c9                   	leaveq 
     13a:	c3                   	retq   
     13b:	0f 1f 44 00 00       	nopl   0x0(%rax,%rax,1)

0000000000000140 <gzwrite>:
     140:	55                   	push   %rbp
     141:	48 89 e5             	mov    %rsp,%rbp
     144:	31 c0                	xor    %eax,%eax
     146:	48 85 ff             	test   %rdi,%rdi
     149:	75 02                	jne    14d <gzwrite+0xd>
     14b:	c9                   	leaveq 
     14c:	c3                   	retq   
     14d:	48 63 4f 18          	movslq 0x18(%rdi),%rcx
     151:	81 f9 b1 79 00 00    	cmp    $0x79b1,%ecx
     157:	74 02                	je     15b <gzwrite+0x1b>
     159:	c9                   	leaveq 
     15a:	c3                   	retq   
     15b:	48 63 4f 6c          	movslq 0x6c(%rdi),%rcx
     15f:	85 c9                	test   %ecx,%ecx
     161:	74 02                	je     165 <gzwrite+0x25>
     163:	c9                   	leaveq 
     164:	c3                   	retq   
     165:	85 d2                	test   %edx,%edx
     167:	78 09                	js     172 <gzwrite+0x32>
     169:	89 d2                	mov    %edx,%edx
     16b:	e8 d0 0b 00 00       	callq  d40 <gz_write>
     170:	c9                   	leaveq 
     171:	c3                   	retq   
     172:	48 c7 c6 fd ff ff ff 	mov    $0xfffffffffffffffd,%rsi
     179:	48 8d 15 00 00 00 00 	lea    0x0(%rip),%rdx        # 180 <gzwrite+0x40>
     180:	e8 00 00 00 00       	callq  185 <gzwrite+0x45>
     185:	31 c0                	xor    %eax,%eax
     187:	c9                   	leaveq 
     188:	c3                   	retq   
     189:	0f 1f 80 00 00 00 00 	nopl   0x0(%rax)

0000000000000190 <gzfwrite>:
     190:	55                   	push   %rbp
     191:	48 89 e5             	mov    %rsp,%rbp
     194:	48 83 ec 10          	sub    $0x10,%rsp
     198:	31 c0                	xor    %eax,%eax
     19a:	48 85 c9             	test   %rcx,%rcx
     19d:	75 02                	jne    1a1 <gzfwrite+0x11>
     19f:	c9                   	leaveq 
     1a0:	c3                   	retq   
     1a1:	4c 63 41 18          	movslq 0x18(%rcx),%r8
     1a5:	41 81 f8 b1 79 00 00 	cmp    $0x79b1,%r8d
     1ac:	74 02                	je     1b0 <gzfwrite+0x20>
     1ae:	c9                   	leaveq 
     1af:	c3                   	retq   
     1b0:	4c 63 41 6c          	movslq 0x6c(%rcx),%r8
     1b4:	45 85 c0             	test   %r8d,%r8d
     1b7:	74 02                	je     1bb <gzfwrite+0x2b>
     1b9:	c9                   	leaveq 
     1ba:	c3                   	retq   
     1bb:	49 89 f0             	mov    %rsi,%r8
     1be:	4c 0f af c2          	imul   %rdx,%r8
     1c2:	48 85 f6             	test   %rsi,%rsi
     1c5:	75 07                	jne    1ce <gzfwrite+0x3e>
     1c7:	4d 85 c0             	test   %r8,%r8
     1ca:	75 1a                	jne    1e6 <gzfwrite+0x56>
     1cc:	c9                   	leaveq 
     1cd:	c3                   	retq   
     1ce:	49 89 c1             	mov    %rax,%r9
     1d1:	49 89 d2             	mov    %rdx,%r10
     1d4:	31 d2                	xor    %edx,%edx
     1d6:	4c 89 c0             	mov    %r8,%rax
     1d9:	48 f7 f6             	div    %rsi
     1dc:	4c 39 d0             	cmp    %r10,%rax
     1df:	75 25                	jne    206 <gzfwrite+0x76>
     1e1:	4c 89 c8             	mov    %r9,%rax
     1e4:	eb e1                	jmp    1c7 <gzfwrite+0x37>
     1e6:	4c 89 7d f8          	mov    %r15,-0x8(%rbp)
     1ea:	4c 89 c2             	mov    %r8,%rdx
     1ed:	49 89 f7             	mov    %rsi,%r15
     1f0:	48 89 fe             	mov    %rdi,%rsi
     1f3:	48 89 cf             	mov    %rcx,%rdi
     1f6:	e8 45 0b 00 00       	callq  d40 <gz_write>
     1fb:	31 d2                	xor    %edx,%edx
     1fd:	49 f7 f7             	div    %r15
     200:	4c 8b 7d f8          	mov    -0x8(%rbp),%r15
     204:	c9                   	leaveq 
     205:	c3                   	retq   
     206:	48 89 cf             	mov    %rcx,%rdi
     209:	48 c7 c6 fe ff ff ff 	mov    $0xfffffffffffffffe,%rsi
     210:	48 8d 15 00 00 00 00 	lea    0x0(%rip),%rdx        # 217 <gzfwrite+0x87>
     217:	e8 00 00 00 00       	callq  21c <gzfwrite+0x8c>
     21c:	31 c0                	xor    %eax,%eax
     21e:	c9                   	leaveq 
     21f:	c3                   	retq   

0000000000000220 <gzprintf>:
     220:	55                   	push   %rbp
     221:	48 89 e5             	mov    %rsp,%rbp
     224:	48 81 ec d0 00 00 00 	sub    $0xd0,%rsp
     22b:	48 89 95 60 ff ff ff 	mov    %rdx,-0xa0(%rbp)
     232:	48 89 8d 68 ff ff ff 	mov    %rcx,-0x98(%rbp)
     239:	4c 89 85 70 ff ff ff 	mov    %r8,-0x90(%rbp)
     240:	4c 89 8d 78 ff ff ff 	mov    %r9,-0x88(%rbp)
     247:	f2 0f 11 45 80       	movsd  %xmm0,-0x80(%rbp)
     24c:	f2 0f 11 4d 90       	movsd  %xmm1,-0x70(%rbp)
     251:	f2 0f 11 55 a0       	movsd  %xmm2,-0x60(%rbp)
     256:	f2 0f 11 5d b0       	movsd  %xmm3,-0x50(%rbp)
     25b:	f2 0f 11 65 c0       	movsd  %xmm4,-0x40(%rbp)
     260:	f2 0f 11 6d d0       	movsd  %xmm5,-0x30(%rbp)
     265:	f2 0f 11 75 e0       	movsd  %xmm6,-0x20(%rbp)
     26a:	f2 0f 11 7d f0       	movsd  %xmm7,-0x10(%rbp)
     26f:	48 8d 95 38 ff ff ff 	lea    -0xc8(%rbp),%rdx
     276:	c7 02 10 00 00 00    	movl   $0x10,(%rdx)
     27c:	c7 42 04 30 00 00 00 	movl   $0x30,0x4(%rdx)
     283:	48 8d 85 50 ff ff ff 	lea    -0xb0(%rbp),%rax
     28a:	48 89 42 10          	mov    %rax,0x10(%rdx)
     28e:	48 8d 45 10          	lea    0x10(%rbp),%rax
     292:	48 89 42 08          	mov    %rax,0x8(%rdx)
     296:	e8 00 00 00 00       	callq  29b <gzprintf+0x7b>
     29b:	c9                   	leaveq 
     29c:	c3                   	retq   
     29d:	0f 1f 00             	nopl   (%rax)

00000000000002a0 <gzputs>:
     2a0:	55                   	push   %rbp
     2a1:	48 89 e5             	mov    %rsp,%rbp
     2a4:	48 83 ec 10          	sub    $0x10,%rsp
     2a8:	48 c7 c0 ff ff ff ff 	mov    $0xffffffffffffffff,%rax
     2af:	48 85 ff             	test   %rdi,%rdi
     2b2:	75 02                	jne    2b6 <gzputs+0x16>
     2b4:	c9                   	leaveq 
     2b5:	c3                   	retq   
     2b6:	48 63 4f 18          	movslq 0x18(%rdi),%rcx
     2ba:	81 f9 b1 79 00 00    	cmp    $0x79b1,%ecx
     2c0:	74 02                	je     2c4 <gzputs+0x24>
     2c2:	c9                   	leaveq 
     2c3:	c3                   	retq   
     2c4:	48 63 4f 6c          	movslq 0x6c(%rdi),%rcx
     2c8:	85 c9                	test   %ecx,%ecx
     2ca:	74 02                	je     2ce <gzputs+0x2e>
     2cc:	c9                   	leaveq 
     2cd:	c3                   	retq   
     2ce:	48 89 f0             	mov    %rsi,%rax
     2d1:	4c 89 75 f8          	mov    %r14,-0x8(%rbp)
     2d5:	4c 89 7d f0          	mov    %r15,-0x10(%rbp)
     2d9:	49 89 fe             	mov    %rdi,%r14
     2dc:	48 89 c7             	mov    %rax,%rdi
     2df:	49 89 f7             	mov    %rsi,%r15
     2e2:	e8 00 00 00 00       	callq  2e7 <gzputs+0x47>
     2e7:	4c 89 fe             	mov    %r15,%rsi
     2ea:	4c 89 f7             	mov    %r14,%rdi
     2ed:	49 89 c6             	mov    %rax,%r14
     2f0:	4c 89 f2             	mov    %r14,%rdx
     2f3:	e8 48 0a 00 00       	callq  d40 <gz_write>
     2f8:	85 c0                	test   %eax,%eax
     2fa:	74 0a                	je     306 <gzputs+0x66>
     2fc:	4c 8b 7d f0          	mov    -0x10(%rbp),%r15
     300:	4c 8b 75 f8          	mov    -0x8(%rbp),%r14
     304:	c9                   	leaveq 
     305:	c3                   	retq   
     306:	4d 85 f6             	test   %r14,%r14
     309:	74 11                	je     31c <gzputs+0x7c>
     30b:	48 c7 c0 ff ff ff ff 	mov    $0xffffffffffffffff,%rax
     312:	4c 8b 7d f0          	mov    -0x10(%rbp),%r15
     316:	4c 8b 75 f8          	mov    -0x8(%rbp),%r14
     31a:	c9                   	leaveq 
     31b:	c3                   	retq   
     31c:	31 c0                	xor    %eax,%eax
     31e:	4c 8b 7d f0          	mov    -0x10(%rbp),%r15
     322:	4c 8b 75 f8          	mov    -0x8(%rbp),%r14
     326:	c9                   	leaveq 
     327:	c3                   	retq   
     328:	0f 1f 84 00 00 00 00 	nopl   0x0(%rax,%rax,1)
     32f:	00 

0000000000000330 <gzputc>:
     330:	55                   	push   %rbp
     331:	48 89 e5             	mov    %rsp,%rbp
     334:	48 83 ec 20          	sub    $0x20,%rsp
     338:	48 c7 c0 ff ff ff ff 	mov    $0xffffffffffffffff,%rax
     33f:	48 85 ff             	test   %rdi,%rdi
     342:	75 02                	jne    346 <gzputc+0x16>
     344:	c9                   	leaveq 
     345:	c3                   	retq   
     346:	48 63 4f 18          	movslq 0x18(%rdi),%rcx
     34a:	81 f9 b1 79 00 00    	cmp    $0x79b1,%ecx
     350:	74 02                	je     354 <gzputc+0x24>
     352:	c9                   	leaveq 
     353:	c3                   	retq   
     354:	48 63 4f 6c          	movslq 0x6c(%rdi),%rcx
     358:	85 c9                	test   %ecx,%ecx
     35a:	74 02                	je     35e <gzputc+0x2e>
     35c:	c9                   	leaveq 
     35d:	c3                   	retq   
     35e:	48 63 47 68          	movslq 0x68(%rdi),%rax
     362:	85 c0                	test   %eax,%eax
     364:	75 33                	jne    399 <gzputc+0x69>
     366:	8b 47 28             	mov    0x28(%rdi),%eax
     369:	85 c0                	test   %eax,%eax
     36b:	75 5c                	jne    3c9 <gzputc+0x99>
     36d:	40 88 75 ef          	mov    %sil,-0x11(%rbp)
     371:	48 8d 45 ef          	lea    -0x11(%rbp),%rax
     375:	ba 01 00 00 00       	mov    $0x1,%edx
     37a:	48 89 75 f0          	mov    %rsi,-0x10(%rbp)
     37e:	48 89 c6             	mov    %rax,%rsi
     381:	e8 ba 09 00 00       	callq  d40 <gz_write>
     386:	48 83 f8 01          	cmp    $0x1,%rax
     38a:	0f 84 8e 00 00 00    	je     41e <gzputc+0xee>
     390:	48 c7 c0 ff ff ff ff 	mov    $0xffffffffffffffff,%rax
     397:	c9                   	leaveq 
     398:	c3                   	retq   
     399:	c7 47 68 00 00 00 00 	movl   $0x0,0x68(%rdi)
     3a0:	48 8b 4f 60          	mov    0x60(%rdi),%rcx
     3a4:	48 89 f8             	mov    %rdi,%rax
     3a7:	48 89 7d f0          	mov    %rdi,-0x10(%rbp)
     3ab:	48 89 75 f8          	mov    %rsi,-0x8(%rbp)
     3af:	48 89 ce             	mov    %rcx,%rsi
     3b2:	48 89 c7             	mov    %rax,%rdi
     3b5:	e8 56 08 00 00       	callq  c10 <gz_zero>
     3ba:	83 f8 ff             	cmp    $0xffffffff,%eax
     3bd:	74 68                	je     427 <gzputc+0xf7>
     3bf:	48 8b 75 f8          	mov    -0x8(%rbp),%rsi
     3c3:	48 8b 7d f0          	mov    -0x10(%rbp),%rdi
     3c7:	eb 9d                	jmp    366 <gzputc+0x36>
     3c9:	8b 87 80 00 00 00    	mov    0x80(%rdi),%eax
     3cf:	85 c0                	test   %eax,%eax
     3d1:	75 08                	jne    3db <gzputc+0xab>
     3d3:	48 8b 47 30          	mov    0x30(%rdi),%rax
     3d7:	48 89 47 78          	mov    %rax,0x78(%rdi)
     3db:	8b 87 80 00 00 00    	mov    0x80(%rdi),%eax
     3e1:	48 03 47 78          	add    0x78(%rdi),%rax
     3e5:	48 8b 57 30          	mov    0x30(%rdi),%rdx
     3e9:	48 29 d0             	sub    %rdx,%rax
     3ec:	8b 4f 28             	mov    0x28(%rdi),%ecx
     3ef:	39 c1                	cmp    %eax,%ecx
     3f1:	0f 86 76 ff ff ff    	jbe    36d <gzputc+0x3d>
     3f7:	89 c0                	mov    %eax,%eax
     3f9:	40 88 34 02          	mov    %sil,(%rdx,%rax,1)
     3fd:	8b 87 80 00 00 00    	mov    0x80(%rdi),%eax
     403:	83 c0 01             	add    $0x1,%eax
     406:	89 87 80 00 00 00    	mov    %eax,0x80(%rdi)
     40c:	48 8b 47 10          	mov    0x10(%rdi),%rax
     410:	48 83 c0 01          	add    $0x1,%rax
     414:	48 89 47 10          	mov    %rax,0x10(%rdi)
     418:	40 0f b6 c6          	movzbl %sil,%eax
     41c:	c9                   	leaveq 
     41d:	c3                   	retq   
     41e:	48 8b 45 f0          	mov    -0x10(%rbp),%rax
     422:	0f b6 c0             	movzbl %al,%eax
     425:	c9                   	leaveq 
     426:	c3                   	retq   
     427:	48 c7 c0 ff ff ff ff 	mov    $0xffffffffffffffff,%rax
     42e:	c9                   	leaveq 
     42f:	c3                   	retq   

0000000000000430 <gzflush>:
     430:	55                   	push   %rbp
     431:	48 89 e5             	mov    %rsp,%rbp
     434:	48 83 ec 10          	sub    $0x10,%rsp
     438:	48 c7 c0 fe ff ff ff 	mov    $0xfffffffffffffffe,%rax
     43f:	48 85 ff             	test   %rdi,%rdi
     442:	75 02                	jne    446 <gzflush+0x16>
     444:	c9                   	leaveq 
     445:	c3                   	retq   
     446:	48 63 4f 18          	movslq 0x18(%rdi),%rcx
     44a:	81 f9 b1 79 00 00    	cmp    $0x79b1,%ecx
     450:	74 02                	je     454 <gzflush+0x24>
     452:	c9                   	leaveq 
     453:	c3                   	retq   
     454:	48 63 4f 6c          	movslq 0x6c(%rdi),%rcx
     458:	85 c9                	test   %ecx,%ecx
     45a:	74 02                	je     45e <gzflush+0x2e>
     45c:	c9                   	leaveq 
     45d:	c3                   	retq   
     45e:	85 f6                	test   %esi,%esi
     460:	79 02                	jns    464 <gzflush+0x34>
     462:	c9                   	leaveq 
     463:	c3                   	retq   
     464:	83 fe 04             	cmp    $0x4,%esi
     467:	7e 02                	jle    46b <gzflush+0x3b>
     469:	c9                   	leaveq 
     46a:	c3                   	retq   
     46b:	48 63 47 68          	movslq 0x68(%rdi),%rax
     46f:	85 c0                	test   %eax,%eax
     471:	75 1c                	jne    48f <gzflush+0x5f>
     473:	48 89 f8             	mov    %rdi,%rax
     476:	4c 89 7d f0          	mov    %r15,-0x10(%rbp)
     47a:	49 89 ff             	mov    %rdi,%r15
     47d:	48 89 c7             	mov    %rax,%rdi
     480:	e8 cb 04 00 00       	callq  950 <gz_comp>
     485:	49 63 47 6c          	movslq 0x6c(%r15),%rax
     489:	4c 8b 7d f0          	mov    -0x10(%rbp),%r15
     48d:	c9                   	leaveq 
     48e:	c3                   	retq   
     48f:	c7 47 68 00 00 00 00 	movl   $0x0,0x68(%rdi)
     496:	48 8b 47 60          	mov    0x60(%rdi),%rax
     49a:	48 89 f9             	mov    %rdi,%rcx
     49d:	4c 89 7d f0          	mov    %r15,-0x10(%rbp)
     4a1:	48 89 75 f8          	mov    %rsi,-0x8(%rbp)
     4a5:	48 89 c6             	mov    %rax,%rsi
     4a8:	49 89 ff             	mov    %rdi,%r15
     4ab:	48 89 cf             	mov    %rcx,%rdi
     4ae:	e8 5d 07 00 00       	callq  c10 <gz_zero>
     4b3:	83 f8 ff             	cmp    $0xffffffff,%eax
     4b6:	74 0d                	je     4c5 <gzflush+0x95>
     4b8:	4c 89 ff             	mov    %r15,%rdi
     4bb:	48 8b 75 f8          	mov    -0x8(%rbp),%rsi
     4bf:	4c 8b 7d f0          	mov    -0x10(%rbp),%r15
     4c3:	eb ae                	jmp    473 <gzflush+0x43>
     4c5:	49 63 47 6c          	movslq 0x6c(%r15),%rax
     4c9:	4c 8b 7d f0          	mov    -0x10(%rbp),%r15
     4cd:	c9                   	leaveq 
     4ce:	c3                   	retq   
     4cf:	90                   	nop

00000000000004d0 <gzclose_w>:
     4d0:	55                   	push   %rbp
     4d1:	48 89 e5             	mov    %rsp,%rbp
     4d4:	48 83 ec 10          	sub    $0x10,%rsp
     4d8:	48 c7 c0 fe ff ff ff 	mov    $0xfffffffffffffffe,%rax
     4df:	48 85 ff             	test   %rdi,%rdi
     4e2:	75 02                	jne    4e6 <gzclose_w+0x16>
     4e4:	c9                   	leaveq 
     4e5:	c3                   	retq   
     4e6:	48 63 4f 18          	movslq 0x18(%rdi),%rcx
     4ea:	81 f9 b1 79 00 00    	cmp    $0x79b1,%ecx
     4f0:	74 02                	je     4f4 <gzclose_w+0x24>
     4f2:	c9                   	leaveq 
     4f3:	c3                   	retq   
     4f4:	31 c0                	xor    %eax,%eax
     4f6:	48 63 4f 68          	movslq 0x68(%rdi),%rcx
     4fa:	85 c9                	test   %ecx,%ecx
     4fc:	0f 85 98 00 00 00    	jne    59a <gzclose_w+0xca>
     502:	4c 89 f1             	mov    %r14,%rcx
     505:	49 89 fe             	mov    %rdi,%r14
     508:	4c 89 ff             	mov    %r15,%rdi
     50b:	49 89 c7             	mov    %rax,%r15
     50e:	48 89 f8             	mov    %rdi,%rax
     511:	be 04 00 00 00       	mov    $0x4,%esi
     516:	4c 89 f7             	mov    %r14,%rdi
     519:	48 89 45 f0          	mov    %rax,-0x10(%rbp)
     51d:	48 89 4d f8          	mov    %rcx,-0x8(%rbp)
     521:	e8 2a 04 00 00       	callq  950 <gz_comp>
     526:	83 f8 ff             	cmp    $0xffffffff,%eax
     529:	75 04                	jne    52f <gzclose_w+0x5f>
     52b:	4d 63 7e 6c          	movslq 0x6c(%r14),%r15
     52f:	41 8b 46 28          	mov    0x28(%r14),%eax
     533:	85 c0                	test   %eax,%eax
     535:	74 23                	je     55a <gzclose_w+0x8a>
     537:	49 63 46 40          	movslq 0x40(%r14),%rax
     53b:	85 c0                	test   %eax,%eax
     53d:	75 12                	jne    551 <gzclose_w+0x81>
     53f:	49 8d 7e 78          	lea    0x78(%r14),%rdi
     543:	e8 00 00 00 00       	callq  548 <gzclose_w+0x78>
     548:	49 8b 7e 38          	mov    0x38(%r14),%rdi
     54c:	e8 00 00 00 00       	callq  551 <gzclose_w+0x81>
     551:	49 8b 7e 30          	mov    0x30(%r14),%rdi
     555:	e8 00 00 00 00       	callq  55a <gzclose_w+0x8a>
     55a:	31 f6                	xor    %esi,%esi
     55c:	48 89 f2             	mov    %rsi,%rdx
     55f:	4c 89 f7             	mov    %r14,%rdi
     562:	e8 00 00 00 00       	callq  567 <gzclose_w+0x97>
     567:	49 8b 7e 20          	mov    0x20(%r14),%rdi
     56b:	e8 00 00 00 00       	callq  570 <gzclose_w+0xa0>
     570:	49 63 7e 1c          	movslq 0x1c(%r14),%rdi
     574:	e8 00 00 00 00       	callq  579 <gzclose_w+0xa9>
     579:	83 f8 ff             	cmp    $0xffffffff,%eax
     57c:	75 07                	jne    585 <gzclose_w+0xb5>
     57e:	49 c7 c7 ff ff ff ff 	mov    $0xffffffffffffffff,%r15
     585:	4c 89 f7             	mov    %r14,%rdi
     588:	e8 00 00 00 00       	callq  58d <gzclose_w+0xbd>
     58d:	4c 89 f8             	mov    %r15,%rax
     590:	4c 8b 75 f8          	mov    -0x8(%rbp),%r14
     594:	4c 8b 7d f0          	mov    -0x10(%rbp),%r15
     598:	c9                   	leaveq 
     599:	c3                   	retq   
     59a:	c7 47 68 00 00 00 00 	movl   $0x0,0x68(%rdi)
     5a1:	48 8b 77 60          	mov    0x60(%rdi),%rsi
     5a5:	48 89 f8             	mov    %rdi,%rax
     5a8:	4c 89 7d f0          	mov    %r15,-0x10(%rbp)
     5ac:	4d 89 f7             	mov    %r14,%r15
     5af:	49 89 fe             	mov    %rdi,%r14
     5b2:	48 89 c7             	mov    %rax,%rdi
     5b5:	e8 56 06 00 00       	callq  c10 <gz_zero>
     5ba:	83 f8 ff             	cmp    $0xffffffff,%eax
     5bd:	74 0f                	je     5ce <gzclose_w+0xfe>
     5bf:	4c 89 f9             	mov    %r15,%rcx
     5c2:	45 31 ff             	xor    %r15d,%r15d
     5c5:	48 8b 45 f0          	mov    -0x10(%rbp),%rax
     5c9:	e9 43 ff ff ff       	jmpq   511 <gzclose_w+0x41>
     5ce:	49 63 4e 6c          	movslq 0x6c(%r14),%rcx
     5d2:	4c 89 f8             	mov    %r15,%rax
     5d5:	49 89 cf             	mov    %rcx,%r15
     5d8:	48 89 c1             	mov    %rax,%rcx
     5db:	48 8b 45 f0          	mov    -0x10(%rbp),%rax
     5df:	e9 2d ff ff ff       	jmpq   511 <gzclose_w+0x41>
     5e4:	66 66 2e 0f 1f 84 00 	data16 nopw %cs:0x0(%rax,%rax,1)
     5eb:	00 00 00 00 
     5ef:	90                   	nop

00000000000005f0 <gzvprintf>:
     5f0:	55                   	push   %rbp
     5f1:	48 89 e5             	mov    %rsp,%rbp
     5f4:	48 83 ec 40          	sub    $0x40,%rsp
     5f8:	48 c7 c0 fe ff ff ff 	mov    $0xfffffffffffffffe,%rax
     5ff:	48 85 ff             	test   %rdi,%rdi
     602:	75 02                	jne    606 <gzvprintf+0x16>
     604:	c9                   	leaveq 
     605:	c3                   	retq   
     606:	48 63 4f 18          	movslq 0x18(%rdi),%rcx
     60a:	81 f9 b1 79 00 00    	cmp    $0x79b1,%ecx
     610:	74 02                	je     614 <gzvprintf+0x24>
     612:	c9                   	leaveq 
     613:	c3                   	retq   
     614:	48 63 4f 6c          	movslq 0x6c(%rdi),%rcx
     618:	85 c9                	test   %ecx,%ecx
     61a:	74 02                	je     61e <gzvprintf+0x2e>
     61c:	c9                   	leaveq 
     61d:	c3                   	retq   
     61e:	8b 47 28             	mov    0x28(%rdi),%eax
     621:	85 c0                	test   %eax,%eax
     623:	74 51                	je     676 <gzvprintf+0x86>
     625:	48 89 d1             	mov    %rdx,%rcx
     628:	48 89 f2             	mov    %rsi,%rdx
     62b:	48 63 47 68          	movslq 0x68(%rdi),%rax
     62f:	85 c0                	test   %eax,%eax
     631:	75 73                	jne    6a6 <gzvprintf+0xb6>
     633:	8b 87 80 00 00 00    	mov    0x80(%rdi),%eax
     639:	85 c0                	test   %eax,%eax
     63b:	75 08                	jne    645 <gzvprintf+0x55>
     63d:	48 8b 47 30          	mov    0x30(%rdi),%rax
     641:	48 89 47 78          	mov    %rax,0x78(%rdi)
     645:	8b 87 80 00 00 00    	mov    0x80(%rdi),%eax
     64b:	48 03 47 78          	add    0x78(%rdi),%rax
     64f:	48 89 45 d8          	mov    %rax,-0x28(%rbp)
     653:	8b 77 28             	mov    0x28(%rdi),%esi
     656:	83 c6 ff             	add    $0xffffffff,%esi
     659:	89 f6                	mov    %esi,%esi
     65b:	c6 04 06 00          	movb   $0x0,(%rsi,%rax,1)
     65f:	8b 77 28             	mov    0x28(%rdi),%esi
     662:	48 89 7d c8          	mov    %rdi,-0x38(%rbp)
     666:	48 89 c7             	mov    %rax,%rdi
     669:	e8 00 00 00 00       	callq  66e <gzvprintf+0x7e>
     66e:	85 c0                	test   %eax,%eax
     670:	75 72                	jne    6e4 <gzvprintf+0xf4>
     672:	31 c0                	xor    %eax,%eax
     674:	c9                   	leaveq 
     675:	c3                   	retq   
     676:	48 89 f8             	mov    %rdi,%rax
     679:	4c 89 7d d8          	mov    %r15,-0x28(%rbp)
     67d:	48 89 75 d0          	mov    %rsi,-0x30(%rbp)
     681:	48 89 55 c8          	mov    %rdx,-0x38(%rbp)
     685:	49 89 ff             	mov    %rdi,%r15
     688:	48 89 c7             	mov    %rax,%rdi
     68b:	e8 30 01 00 00       	callq  7c0 <gz_init>
     690:	83 f8 ff             	cmp    $0xffffffff,%eax
     693:	74 5f                	je     6f4 <gzvprintf+0x104>
     695:	4c 89 ff             	mov    %r15,%rdi
     698:	48 8b 4d c8          	mov    -0x38(%rbp),%rcx
     69c:	48 8b 55 d0          	mov    -0x30(%rbp),%rdx
     6a0:	4c 8b 7d d8          	mov    -0x28(%rbp),%r15
     6a4:	eb 85                	jmp    62b <gzvprintf+0x3b>
     6a6:	c7 47 68 00 00 00 00 	movl   $0x0,0x68(%rdi)
     6ad:	48 8b 77 60          	mov    0x60(%rdi),%rsi
     6b1:	48 89 f8             	mov    %rdi,%rax
     6b4:	4c 89 7d e0          	mov    %r15,-0x20(%rbp)
     6b8:	48 89 55 d0          	mov    %rdx,-0x30(%rbp)
     6bc:	48 89 4d c8          	mov    %rcx,-0x38(%rbp)
     6c0:	49 89 ff             	mov    %rdi,%r15
     6c3:	48 89 c7             	mov    %rax,%rdi
     6c6:	e8 45 05 00 00       	callq  c10 <gz_zero>
     6cb:	83 f8 ff             	cmp    $0xffffffff,%eax
     6ce:	74 2e                	je     6fe <gzvprintf+0x10e>
     6d0:	4c 89 ff             	mov    %r15,%rdi
     6d3:	48 8b 4d c8          	mov    -0x38(%rbp),%rcx
     6d7:	48 8b 55 d0          	mov    -0x30(%rbp),%rdx
     6db:	4c 8b 7d e0          	mov    -0x20(%rbp),%r15
     6df:	e9 4f ff ff ff       	jmpq   633 <gzvprintf+0x43>
     6e4:	4c 8b 45 c8          	mov    -0x38(%rbp),%r8
     6e8:	41 8b 70 28          	mov    0x28(%r8),%esi
     6ec:	39 c6                	cmp    %eax,%esi
     6ee:	77 18                	ja     708 <gzvprintf+0x118>
     6f0:	31 c0                	xor    %eax,%eax
     6f2:	c9                   	leaveq 
     6f3:	c3                   	retq   
     6f4:	49 63 47 6c          	movslq 0x6c(%r15),%rax
     6f8:	4c 8b 7d d8          	mov    -0x28(%rbp),%r15
     6fc:	c9                   	leaveq 
     6fd:	c3                   	retq   
     6fe:	49 63 47 6c          	movslq 0x6c(%r15),%rax
     702:	4c 8b 7d e0          	mov    -0x20(%rbp),%r15
     706:	c9                   	leaveq 
     707:	c3                   	retq   
     708:	8d 4e ff             	lea    -0x1(%rsi),%ecx
     70b:	89 c9                	mov    %ecx,%ecx
     70d:	48 8b 55 d8          	mov    -0x28(%rbp),%rdx
     711:	48 0f be 0c 0a       	movsbq (%rdx,%rcx,1),%rcx
     716:	84 c9                	test   %cl,%cl
     718:	74 04                	je     71e <gzvprintf+0x12e>
     71a:	31 c0                	xor    %eax,%eax
     71c:	c9                   	leaveq 
     71d:	c3                   	retq   
     71e:	48 89 c2             	mov    %rax,%rdx
     721:	41 03 90 80 00 00 00 	add    0x80(%r8),%edx
     728:	41 89 90 80 00 00 00 	mov    %edx,0x80(%r8)
     72f:	48 63 c8             	movslq %eax,%rcx
     732:	49 03 48 10          	add    0x10(%r8),%rcx
     736:	49 89 48 10          	mov    %rcx,0x10(%r8)
     73a:	39 d6                	cmp    %edx,%esi
     73c:	76 02                	jbe    740 <gzvprintf+0x150>
     73e:	c9                   	leaveq 
     73f:	c3                   	retq   
     740:	41 89 b0 80 00 00 00 	mov    %esi,0x80(%r8)
     747:	4c 89 c7             	mov    %r8,%rdi
     74a:	4c 89 7d c8          	mov    %r15,-0x38(%rbp)
     74e:	48 89 75 f0          	mov    %rsi,-0x10(%rbp)
     752:	48 89 55 f8          	mov    %rdx,-0x8(%rbp)
     756:	48 89 45 e8          	mov    %rax,-0x18(%rbp)
     75a:	4d 89 c7             	mov    %r8,%r15
     75d:	31 f6                	xor    %esi,%esi
     75f:	e8 ec 01 00 00       	callq  950 <gz_comp>
     764:	83 f8 ff             	cmp    $0xffffffff,%eax
     767:	74 41                	je     7aa <gzvprintf+0x1ba>
     769:	49 8b 7f 30          	mov    0x30(%r15),%rdi
     76d:	41 8b 47 28          	mov    0x28(%r15),%eax
     771:	48 8d 34 38          	lea    (%rax,%rdi,1),%rsi
     775:	48 8b 45 f8          	mov    -0x8(%rbp),%rax
     779:	48 8b 4d f0          	mov    -0x10(%rbp),%rcx
     77d:	29 c8                	sub    %ecx,%eax
     77f:	89 c2                	mov    %eax,%edx
     781:	4c 89 75 e0          	mov    %r14,-0x20(%rbp)
     785:	49 89 c6             	mov    %rax,%r14
     788:	e8 00 00 00 00       	callq  78d <gzvprintf+0x19d>
     78d:	49 8b 47 30          	mov    0x30(%r15),%rax
     791:	49 89 47 78          	mov    %rax,0x78(%r15)
     795:	45 89 b7 80 00 00 00 	mov    %r14d,0x80(%r15)
     79c:	4c 8b 75 e0          	mov    -0x20(%rbp),%r14
     7a0:	48 8b 45 e8          	mov    -0x18(%rbp),%rax
     7a4:	4c 8b 7d c8          	mov    -0x38(%rbp),%r15
     7a8:	c9                   	leaveq 
     7a9:	c3                   	retq   
     7aa:	49 63 47 6c          	movslq 0x6c(%r15),%rax
     7ae:	4c 8b 7d c8          	mov    -0x38(%rbp),%r15
     7b2:	c9                   	leaveq 
     7b3:	c3                   	retq   
     7b4:	66 66 2e 0f 1f 84 00 	data16 nopw %cs:0x0(%rax,%rax,1)
     7bb:	00 00 00 00 
     7bf:	90                   	nop

00000000000007c0 <gz_init>:
     7c0:	55                   	push   %rbp
     7c1:	48 89 e5             	mov    %rsp,%rbp
     7c4:	48 83 ec 10          	sub    $0x10,%rsp
     7c8:	4c 89 7d f0          	mov    %r15,-0x10(%rbp)
     7cc:	8b 47 2c             	mov    0x2c(%rdi),%eax
     7cf:	01 c0                	add    %eax,%eax
     7d1:	89 c0                	mov    %eax,%eax
     7d3:	49 89 ff             	mov    %rdi,%r15
     7d6:	48 89 c7             	mov    %rax,%rdi
     7d9:	e8 00 00 00 00       	callq  7de <gz_init+0x1e>
     7de:	49 89 47 30          	mov    %rax,0x30(%r15)
     7e2:	48 c7 c6 fc ff ff ff 	mov    $0xfffffffffffffffc,%rsi
     7e9:	48 8d 15 00 00 00 00 	lea    0x0(%rip),%rdx        # 7f0 <gz_init+0x30>
     7f0:	48 c7 c1 ff ff ff ff 	mov    $0xffffffffffffffff,%rcx
     7f7:	48 85 c0             	test   %rax,%rax
     7fa:	74 24                	je     820 <gz_init+0x60>
     7fc:	49 63 47 40          	movslq 0x40(%r15),%rax
     800:	85 c0                	test   %eax,%eax
     802:	74 30                	je     834 <gz_init+0x74>
     804:	41 8b 57 2c          	mov    0x2c(%r15),%edx
     808:	41 89 57 28          	mov    %edx,0x28(%r15)
     80c:	31 c0                	xor    %eax,%eax
     80e:	49 63 4f 40          	movslq 0x40(%r15),%rcx
     812:	85 c9                	test   %ecx,%ecx
     814:	0f 84 a8 00 00 00    	je     8c2 <gz_init+0x102>
     81a:	4c 8b 7d f0          	mov    -0x10(%rbp),%r15
     81e:	c9                   	leaveq 
     81f:	c3                   	retq   
     820:	4c 89 ff             	mov    %r15,%rdi
     823:	49 89 cf             	mov    %rcx,%r15
     826:	e8 00 00 00 00       	callq  82b <gz_init+0x6b>
     82b:	4c 89 f8             	mov    %r15,%rax
     82e:	4c 8b 7d f0          	mov    -0x10(%rbp),%r15
     832:	c9                   	leaveq 
     833:	c3                   	retq   
     834:	41 8b 7f 2c          	mov    0x2c(%r15),%edi
     838:	e8 00 00 00 00       	callq  83d <gz_init+0x7d>
     83d:	49 89 47 38          	mov    %rax,0x38(%r15)
     841:	48 85 c0             	test   %rax,%rax
     844:	0f 84 94 00 00 00    	je     8de <gz_init+0x11e>
     84a:	49 c7 87 b8 00 00 00 	movq   $0x0,0xb8(%r15)
     851:	00 00 00 00 
     855:	49 c7 87 c0 00 00 00 	movq   $0x0,0xc0(%r15)
     85c:	00 00 00 00 
     860:	49 c7 87 c8 00 00 00 	movq   $0x0,0xc8(%r15)
     867:	00 00 00 00 
     86b:	48 83 ec 10          	sub    $0x10,%rsp
     86f:	48 8d 05 00 00 00 00 	lea    0x0(%rip),%rax        # 876 <gz_init+0xb6>
     876:	4d 8d 57 78          	lea    0x78(%r15),%r10
     87a:	49 63 77 58          	movslq 0x58(%r15),%rsi
     87e:	ba 08 00 00 00       	mov    $0x8,%edx
     883:	b9 1f 00 00 00       	mov    $0x1f,%ecx
     888:	4d 63 4f 5c          	movslq 0x5c(%r15),%r9
     88c:	48 89 04 24          	mov    %rax,(%rsp)
     890:	c7 44 24 08 70 00 00 	movl   $0x70,0x8(%rsp)
     897:	00 
     898:	49 89 d0             	mov    %rdx,%r8
     89b:	4c 89 d7             	mov    %r10,%rdi
     89e:	4c 89 75 f8          	mov    %r14,-0x8(%rbp)
     8a2:	4d 89 d6             	mov    %r10,%r14
     8a5:	e8 00 00 00 00       	callq  8aa <gz_init+0xea>
     8aa:	48 83 c4 10          	add    $0x10,%rsp
     8ae:	85 c0                	test   %eax,%eax
     8b0:	75 58                	jne    90a <gz_init+0x14a>
     8b2:	49 c7 06 00 00 00 00 	movq   $0x0,(%r14)
     8b9:	4c 8b 75 f8          	mov    -0x8(%rbp),%r14
     8bd:	e9 42 ff ff ff       	jmpq   804 <gz_init+0x44>
     8c2:	41 89 97 98 00 00 00 	mov    %edx,0x98(%r15)
     8c9:	49 8b 4f 38          	mov    0x38(%r15),%rcx
     8cd:	49 89 8f 90 00 00 00 	mov    %rcx,0x90(%r15)
     8d4:	49 89 4f 08          	mov    %rcx,0x8(%r15)
     8d8:	4c 8b 7d f0          	mov    -0x10(%rbp),%r15
     8dc:	c9                   	leaveq 
     8dd:	c3                   	retq   
     8de:	49 8b 7f 30          	mov    0x30(%r15),%rdi
     8e2:	e8 00 00 00 00       	callq  8e7 <gz_init+0x127>
     8e7:	4c 89 ff             	mov    %r15,%rdi
     8ea:	48 8d 15 00 00 00 00 	lea    0x0(%rip),%rdx        # 8f1 <gz_init+0x131>
     8f1:	48 c7 c6 fc ff ff ff 	mov    $0xfffffffffffffffc,%rsi
     8f8:	e8 00 00 00 00       	callq  8fd <gz_init+0x13d>
     8fd:	48 c7 c0 ff ff ff ff 	mov    $0xffffffffffffffff,%rax
     904:	4c 8b 7d f0          	mov    -0x10(%rbp),%r15
     908:	c9                   	leaveq 
     909:	c3                   	retq   
     90a:	49 8b 7f 38          	mov    0x38(%r15),%rdi
     90e:	e8 00 00 00 00       	callq  913 <gz_init+0x153>
     913:	49 8b 7f 30          	mov    0x30(%r15),%rdi
     917:	e8 00 00 00 00       	callq  91c <gz_init+0x15c>
     91c:	4c 89 ff             	mov    %r15,%rdi
     91f:	48 8d 15 00 00 00 00 	lea    0x0(%rip),%rdx        # 926 <gz_init+0x166>
     926:	48 c7 c6 fc ff ff ff 	mov    $0xfffffffffffffffc,%rsi
     92d:	e8 00 00 00 00       	callq  932 <gz_init+0x172>
     932:	4c 8b 75 f8          	mov    -0x8(%rbp),%r14
     936:	48 c7 c0 ff ff ff ff 	mov    $0xffffffffffffffff,%rax
     93d:	4c 8b 7d f0          	mov    -0x10(%rbp),%r15
     941:	c9                   	leaveq 
     942:	c3                   	retq   
     943:	66 66 2e 0f 1f 84 00 	data16 nopw %cs:0x0(%rax,%rax,1)
     94a:	00 00 00 00 
     94e:	66 90                	xchg   %ax,%ax

0000000000000950 <gz_comp>:
     950:	55                   	push   %rbp
     951:	48 89 e5             	mov    %rsp,%rbp
     954:	48 83 ec 30          	sub    $0x30,%rsp
     958:	48 c7 c1 ff ff ff ff 	mov    $0xffffffffffffffff,%rcx
     95f:	8b 47 28             	mov    0x28(%rdi),%eax
     962:	85 c0                	test   %eax,%eax
     964:	74 3f                	je     9a5 <gz_comp+0x55>
     966:	4c 89 f2             	mov    %r14,%rdx
     969:	49 89 f6             	mov    %rsi,%r14
     96c:	4d 89 e8             	mov    %r13,%r8
     96f:	4d 89 f9             	mov    %r15,%r9
     972:	49 89 df             	mov    %rbx,%r15
     975:	48 89 fb             	mov    %rdi,%rbx
     978:	4c 89 e7             	mov    %r12,%rdi
     97b:	31 c0                	xor    %eax,%eax
     97d:	4c 8d 63 78          	lea    0x78(%rbx),%r12
     981:	41 bd 00 00 00 40    	mov    $0x40000000,%r13d
     987:	48 63 73 40          	movslq 0x40(%rbx),%rsi
     98b:	85 f6                	test   %esi,%esi
     98d:	75 54                	jne    9e3 <gz_comp+0x93>
     98f:	4c 89 7d f8          	mov    %r15,-0x8(%rbp)
     993:	48 89 7d f0          	mov    %rdi,-0x10(%rbp)
     997:	4c 89 45 e8          	mov    %r8,-0x18(%rbp)
     99b:	48 89 55 e0          	mov    %rdx,-0x20(%rbp)
     99f:	4c 89 4d d8          	mov    %r9,-0x28(%rbp)
     9a3:	eb 65                	jmp    a0a <gz_comp+0xba>
     9a5:	48 89 f8             	mov    %rdi,%rax
     9a8:	48 89 7d e0          	mov    %rdi,-0x20(%rbp)
     9ac:	48 89 75 d8          	mov    %rsi,-0x28(%rbp)
     9b0:	48 89 c7             	mov    %rax,%rdi
     9b3:	4c 89 f8             	mov    %r15,%rax
     9b6:	49 89 df             	mov    %rbx,%r15
     9b9:	48 89 c3             	mov    %rax,%rbx
     9bc:	e8 ff fd ff ff       	callq  7c0 <gz_init>
     9c1:	83 f8 ff             	cmp    $0xffffffff,%eax
     9c4:	74 73                	je     a39 <gz_comp+0xe9>
     9c6:	4c 89 f2             	mov    %r14,%rdx
     9c9:	4c 89 e7             	mov    %r12,%rdi
     9cc:	4d 89 e8             	mov    %r13,%r8
     9cf:	49 89 d9             	mov    %rbx,%r9
     9d2:	48 c7 c1 ff ff ff ff 	mov    $0xffffffffffffffff,%rcx
     9d9:	4c 8b 75 d8          	mov    -0x28(%rbp),%r14
     9dd:	48 8b 5d e0          	mov    -0x20(%rbp),%rbx
     9e1:	eb 98                	jmp    97b <gz_comp+0x2b>
     9e3:	48 89 7d f8          	mov    %rdi,-0x8(%rbp)
     9e7:	4c 89 45 f0          	mov    %r8,-0x10(%rbp)
     9eb:	48 89 55 e8          	mov    %rdx,-0x18(%rbp)
     9ef:	4c 89 4d d8          	mov    %r9,-0x28(%rbp)
     9f3:	49 89 ce             	mov    %rcx,%r14
     9f6:	e9 8a 00 00 00       	jmpq   a85 <gz_comp+0x135>
     9fb:	8b 8b 98 00 00 00    	mov    0x98(%rbx),%ecx
     a01:	44 39 f9             	cmp    %r15d,%ecx
     a04:	0f 84 9c 00 00 00    	je     aa6 <gz_comp+0x156>
     a0a:	8b 8b 98 00 00 00    	mov    0x98(%rbx),%ecx
     a10:	85 c9                	test   %ecx,%ecx
     a12:	0f 84 dc 00 00 00    	je     af4 <gz_comp+0x1a4>
     a18:	45 85 f6             	test   %r14d,%r14d
     a1b:	0f 84 05 01 00 00    	je     b26 <gz_comp+0x1d6>
     a21:	41 83 fe 04          	cmp    $0x4,%r14d
     a25:	0f 85 c9 00 00 00    	jne    af4 <gz_comp+0x1a4>
     a2b:	83 f8 01             	cmp    $0x1,%eax
     a2e:	0f 84 c0 00 00 00    	je     af4 <gz_comp+0x1a4>
     a34:	e9 ed 00 00 00       	jmpq   b26 <gz_comp+0x1d6>
     a39:	4c 89 f9             	mov    %r15,%rcx
     a3c:	49 89 df             	mov    %rbx,%r15
     a3f:	48 89 cb             	mov    %rcx,%rbx
     a42:	48 c7 c0 ff ff ff ff 	mov    $0xffffffffffffffff,%rax
     a49:	c9                   	leaveq 
     a4a:	c3                   	retq   
     a4b:	3d 00 00 00 40       	cmp    $0x40000000,%eax
     a50:	76 03                	jbe    a55 <gz_comp+0x105>
     a52:	4c 89 e8             	mov    %r13,%rax
     a55:	48 63 7b 1c          	movslq 0x1c(%rbx),%rdi
     a59:	48 8b 73 78          	mov    0x78(%rbx),%rsi
     a5d:	89 c2                	mov    %eax,%edx
     a5f:	e8 00 00 00 00       	callq  a64 <gz_comp+0x114>
     a64:	85 c0                	test   %eax,%eax
     a66:	0f 88 08 01 00 00    	js     b74 <gz_comp+0x224>
     a6c:	8b 8b 80 00 00 00    	mov    0x80(%rbx),%ecx
     a72:	29 c1                	sub    %eax,%ecx
     a74:	89 8b 80 00 00 00    	mov    %ecx,0x80(%rbx)
     a7a:	48 63 c0             	movslq %eax,%rax
     a7d:	49 03 04 24          	add    (%r12),%rax
     a81:	49 89 04 24          	mov    %rax,(%r12)
     a85:	8b 83 80 00 00 00    	mov    0x80(%rbx),%eax
     a8b:	85 c0                	test   %eax,%eax
     a8d:	75 bc                	jne    a4b <gz_comp+0xfb>
     a8f:	4c 89 fb             	mov    %r15,%rbx
     a92:	31 c0                	xor    %eax,%eax
     a94:	4c 8b 7d d8          	mov    -0x28(%rbp),%r15
     a98:	4c 8b 75 e8          	mov    -0x18(%rbp),%r14
     a9c:	4c 8b 6d f0          	mov    -0x10(%rbp),%r13
     aa0:	4c 8b 65 f8          	mov    -0x8(%rbp),%r12
     aa4:	c9                   	leaveq 
     aa5:	c3                   	retq   
     aa6:	41 83 fe 04          	cmp    $0x4,%r14d
     aaa:	0f 84 f7 00 00 00    	je     ba7 <gz_comp+0x257>
     ab0:	31 c0                	xor    %eax,%eax
     ab2:	4c 8b 7d d8          	mov    -0x28(%rbp),%r15
     ab6:	4c 8b 75 e0          	mov    -0x20(%rbp),%r14
     aba:	4c 8b 6d e8          	mov    -0x18(%rbp),%r13
     abe:	4c 8b 65 f0          	mov    -0x10(%rbp),%r12
     ac2:	48 8b 5d f8          	mov    -0x8(%rbp),%rbx
     ac6:	c9                   	leaveq 
     ac7:	c3                   	retq   
     ac8:	48 29 f0             	sub    %rsi,%rax
     acb:	48 3d 00 00 00 40    	cmp    $0x40000000,%rax
     ad1:	7e 03                	jle    ad6 <gz_comp+0x186>
     ad3:	4c 89 e8             	mov    %r13,%rax
     ad6:	48 63 7b 1c          	movslq 0x1c(%rbx),%rdi
     ada:	89 c2                	mov    %eax,%edx
     adc:	e8 00 00 00 00       	callq  ae1 <gz_comp+0x191>
     ae1:	85 c0                	test   %eax,%eax
     ae3:	0f 88 de 00 00 00    	js     bc7 <gz_comp+0x277>
     ae9:	48 63 c0             	movslq %eax,%rax
     aec:	48 03 43 08          	add    0x8(%rbx),%rax
     af0:	48 89 43 08          	mov    %rax,0x8(%rbx)
     af4:	48 8b 73 08          	mov    0x8(%rbx),%rsi
     af8:	48 8b 83 90 00 00 00 	mov    0x90(%rbx),%rax
     aff:	48 39 c6             	cmp    %rax,%rsi
     b02:	72 c4                	jb     ac8 <gz_comp+0x178>
     b04:	8b 83 98 00 00 00    	mov    0x98(%rbx),%eax
     b0a:	85 c0                	test   %eax,%eax
     b0c:	75 18                	jne    b26 <gz_comp+0x1d6>
     b0e:	8b 43 28             	mov    0x28(%rbx),%eax
     b11:	89 83 98 00 00 00    	mov    %eax,0x98(%rbx)
     b17:	48 8b 43 38          	mov    0x38(%rbx),%rax
     b1b:	48 89 83 90 00 00 00 	mov    %rax,0x90(%rbx)
     b22:	48 89 43 08          	mov    %rax,0x8(%rbx)
     b26:	44 8b bb 98 00 00 00 	mov    0x98(%rbx),%r15d
     b2d:	4c 89 e7             	mov    %r12,%rdi
     b30:	4c 89 f6             	mov    %r14,%rsi
     b33:	e8 00 00 00 00       	callq  b38 <gz_comp+0x1e8>
     b38:	83 f8 fe             	cmp    $0xfffffffe,%eax
     b3b:	0f 85 ba fe ff ff    	jne    9fb <gz_comp+0xab>
     b41:	48 89 df             	mov    %rbx,%rdi
     b44:	48 c7 c6 fe ff ff ff 	mov    $0xfffffffffffffffe,%rsi
     b4b:	48 8d 15 00 00 00 00 	lea    0x0(%rip),%rdx        # b52 <gz_comp+0x202>
     b52:	e8 00 00 00 00       	callq  b57 <gz_comp+0x207>
     b57:	4c 8b 7d d8          	mov    -0x28(%rbp),%r15
     b5b:	4c 8b 75 e0          	mov    -0x20(%rbp),%r14
     b5f:	4c 8b 6d e8          	mov    -0x18(%rbp),%r13
     b63:	4c 8b 65 f0          	mov    -0x10(%rbp),%r12
     b67:	48 8b 5d f8          	mov    -0x8(%rbp),%rbx
     b6b:	48 c7 c0 ff ff ff ff 	mov    $0xffffffffffffffff,%rax
     b72:	c9                   	leaveq 
     b73:	c3                   	retq   
     b74:	e8 00 00 00 00       	callq  b79 <gz_comp+0x229>
     b79:	48 63 38             	movslq (%rax),%rdi
     b7c:	e8 00 00 00 00       	callq  b81 <gz_comp+0x231>
     b81:	48 89 c2             	mov    %rax,%rdx
     b84:	48 89 df             	mov    %rbx,%rdi
     b87:	4c 89 f6             	mov    %r14,%rsi
     b8a:	e8 00 00 00 00       	callq  b8f <gz_comp+0x23f>
     b8f:	4c 89 f0             	mov    %r14,%rax
     b92:	4c 89 fb             	mov    %r15,%rbx
     b95:	4c 8b 7d d8          	mov    -0x28(%rbp),%r15
     b99:	4c 8b 75 e8          	mov    -0x18(%rbp),%r14
     b9d:	4c 8b 6d f0          	mov    -0x10(%rbp),%r13
     ba1:	4c 8b 65 f8          	mov    -0x8(%rbp),%r12
     ba5:	c9                   	leaveq 
     ba6:	c3                   	retq   
     ba7:	4c 89 e7             	mov    %r12,%rdi
     baa:	e8 00 00 00 00       	callq  baf <gz_comp+0x25f>
     baf:	31 c0                	xor    %eax,%eax
     bb1:	4c 8b 7d d8          	mov    -0x28(%rbp),%r15
     bb5:	4c 8b 75 e0          	mov    -0x20(%rbp),%r14
     bb9:	4c 8b 6d e8          	mov    -0x18(%rbp),%r13
     bbd:	4c 8b 65 f0          	mov    -0x10(%rbp),%r12
     bc1:	48 8b 5d f8          	mov    -0x8(%rbp),%rbx
     bc5:	c9                   	leaveq 
     bc6:	c3                   	retq   
     bc7:	e8 00 00 00 00       	callq  bcc <gz_comp+0x27c>
     bcc:	48 63 38             	movslq (%rax),%rdi
     bcf:	e8 00 00 00 00       	callq  bd4 <gz_comp+0x284>
     bd4:	48 89 c2             	mov    %rax,%rdx
     bd7:	48 89 df             	mov    %rbx,%rdi
     bda:	49 c7 c4 ff ff ff ff 	mov    $0xffffffffffffffff,%r12
     be1:	4c 89 e6             	mov    %r12,%rsi
     be4:	e8 00 00 00 00       	callq  be9 <gz_comp+0x299>
     be9:	4c 89 e0             	mov    %r12,%rax
     bec:	4c 8b 7d d8          	mov    -0x28(%rbp),%r15
     bf0:	4c 8b 75 e0          	mov    -0x20(%rbp),%r14
     bf4:	4c 8b 6d e8          	mov    -0x18(%rbp),%r13
     bf8:	4c 8b 65 f0          	mov    -0x10(%rbp),%r12
     bfc:	48 8b 5d f8          	mov    -0x8(%rbp),%rbx
     c00:	c9                   	leaveq 
     c01:	c3                   	retq   
     c02:	66 66 2e 0f 1f 84 00 	data16 nopw %cs:0x0(%rax,%rax,1)
     c09:	00 00 00 00 
     c0d:	0f 1f 00             	nopl   (%rax)

0000000000000c10 <gz_zero>:
     c10:	55                   	push   %rbp
     c11:	48 89 e5             	mov    %rsp,%rbp
     c14:	48 83 ec 30          	sub    $0x30,%rsp
     c18:	31 c0                	xor    %eax,%eax
     c1a:	b9 01 00 00 00       	mov    $0x1,%ecx
     c1f:	8b 97 80 00 00 00    	mov    0x80(%rdi),%edx
     c25:	85 d2                	test   %edx,%edx
     c27:	75 21                	jne    c4a <gz_zero+0x3a>
     c29:	4c 89 65 f8          	mov    %r12,-0x8(%rbp)
     c2d:	4c 89 6d f0          	mov    %r13,-0x10(%rbp)
     c31:	4c 89 75 e8          	mov    %r14,-0x18(%rbp)
     c35:	4c 89 7d e0          	mov    %r15,-0x20(%rbp)
     c39:	49 89 c4             	mov    %rax,%r12
     c3c:	49 89 dd             	mov    %rbx,%r13
     c3f:	48 89 f3             	mov    %rsi,%rbx
     c42:	49 89 fe             	mov    %rdi,%r14
     c45:	e9 9c 00 00 00       	jmpq   ce6 <gz_zero+0xd6>
     c4a:	48 89 f9             	mov    %rdi,%rcx
     c4d:	48 89 75 d8          	mov    %rsi,-0x28(%rbp)
     c51:	48 89 7d d0          	mov    %rdi,-0x30(%rbp)
     c55:	48 89 c6             	mov    %rax,%rsi
     c58:	48 89 cf             	mov    %rcx,%rdi
     c5b:	4c 89 e8             	mov    %r13,%rax
     c5e:	49 89 dd             	mov    %rbx,%r13
     c61:	48 89 c3             	mov    %rax,%rbx
     c64:	e8 e7 fc ff ff       	callq  950 <gz_comp>
     c69:	83 f8 ff             	cmp    $0xffffffff,%eax
     c6c:	0f 84 91 00 00 00    	je     d03 <gz_zero+0xf3>
     c72:	4c 89 65 f8          	mov    %r12,-0x8(%rbp)
     c76:	48 89 5d f0          	mov    %rbx,-0x10(%rbp)
     c7a:	4c 89 75 e8          	mov    %r14,-0x18(%rbp)
     c7e:	4c 89 7d e0          	mov    %r15,-0x20(%rbp)
     c82:	45 31 e4             	xor    %r12d,%r12d
     c85:	b9 01 00 00 00       	mov    $0x1,%ecx
     c8a:	4c 8b 75 d0          	mov    -0x30(%rbp),%r14
     c8e:	48 8b 5d d8          	mov    -0x28(%rbp),%rbx
     c92:	eb 52                	jmp    ce6 <gz_zero+0xd6>
     c94:	45 8b 7e 28          	mov    0x28(%r14),%r15d
     c98:	49 39 df             	cmp    %rbx,%r15
     c9b:	7e 03                	jle    ca0 <gz_zero+0x90>
     c9d:	49 89 df             	mov    %rbx,%r15
     ca0:	85 c9                	test   %ecx,%ecx
     ca2:	7e 0f                	jle    cb3 <gz_zero+0xa3>
     ca4:	49 8b 7e 30          	mov    0x30(%r14),%rdi
     ca8:	44 89 fa             	mov    %r15d,%edx
     cab:	4c 89 e6             	mov    %r12,%rsi
     cae:	e8 00 00 00 00       	callq  cb3 <gz_zero+0xa3>
     cb3:	45 89 be 80 00 00 00 	mov    %r15d,0x80(%r14)
     cba:	49 8b 46 30          	mov    0x30(%r14),%rax
     cbe:	49 89 46 78          	mov    %rax,0x78(%r14)
     cc2:	45 89 ff             	mov    %r15d,%r15d
     cc5:	4c 89 f8             	mov    %r15,%rax
     cc8:	49 03 46 10          	add    0x10(%r14),%rax
     ccc:	49 89 46 10          	mov    %rax,0x10(%r14)
     cd0:	4c 89 f7             	mov    %r14,%rdi
     cd3:	4c 89 e6             	mov    %r12,%rsi
     cd6:	e8 75 fc ff ff       	callq  950 <gz_comp>
     cdb:	83 f8 ff             	cmp    $0xffffffff,%eax
     cde:	74 35                	je     d15 <gz_zero+0x105>
     ce0:	4c 29 fb             	sub    %r15,%rbx
     ce3:	4c 89 e1             	mov    %r12,%rcx
     ce6:	48 85 db             	test   %rbx,%rbx
     ce9:	75 a9                	jne    c94 <gz_zero+0x84>
     ceb:	4c 89 e0             	mov    %r12,%rax
     cee:	4c 89 eb             	mov    %r13,%rbx
     cf1:	4c 8b 7d e0          	mov    -0x20(%rbp),%r15
     cf5:	4c 8b 75 e8          	mov    -0x18(%rbp),%r14
     cf9:	4c 8b 6d f0          	mov    -0x10(%rbp),%r13
     cfd:	4c 8b 65 f8          	mov    -0x8(%rbp),%r12
     d01:	c9                   	leaveq 
     d02:	c3                   	retq   
     d03:	4c 89 e9             	mov    %r13,%rcx
     d06:	49 89 dd             	mov    %rbx,%r13
     d09:	48 89 cb             	mov    %rcx,%rbx
     d0c:	48 c7 c0 ff ff ff ff 	mov    $0xffffffffffffffff,%rax
     d13:	c9                   	leaveq 
     d14:	c3                   	retq   
     d15:	4c 89 eb             	mov    %r13,%rbx
     d18:	4c 8b 7d e0          	mov    -0x20(%rbp),%r15
     d1c:	4c 8b 75 e8          	mov    -0x18(%rbp),%r14
     d20:	4c 8b 6d f0          	mov    -0x10(%rbp),%r13
     d24:	4c 8b 65 f8          	mov    -0x8(%rbp),%r12
     d28:	48 c7 c0 ff ff ff ff 	mov    $0xffffffffffffffff,%rax
     d2f:	c9                   	leaveq 
     d30:	c3                   	retq   
     d31:	66 66 2e 0f 1f 84 00 	data16 nopw %cs:0x0(%rax,%rax,1)
     d38:	00 00 00 00 
     d3c:	0f 1f 40 00          	nopl   0x0(%rax)

0000000000000d40 <gz_write>:
     d40:	55                   	push   %rbp
     d41:	48 89 e5             	mov    %rsp,%rbp
     d44:	48 83 ec 60          	sub    $0x60,%rsp
     d48:	31 c0                	xor    %eax,%eax
     d4a:	48 89 45 c0          	mov    %rax,-0x40(%rbp)
     d4e:	48 85 d2             	test   %rdx,%rdx
     d51:	75 02                	jne    d55 <gz_write+0x15>
     d53:	c9                   	leaveq 
     d54:	c3                   	retq   
     d55:	8b 4f 28             	mov    0x28(%rdi),%ecx
     d58:	85 c9                	test   %ecx,%ecx
     d5a:	0f 84 96 00 00 00    	je     df6 <gz_write+0xb6>
     d60:	4c 89 e1             	mov    %r12,%rcx
     d63:	49 89 fc             	mov    %rdi,%r12
     d66:	49 89 d8             	mov    %rbx,%r8
     d69:	48 89 d3             	mov    %rdx,%rbx
     d6c:	4c 89 ea             	mov    %r13,%rdx
     d6f:	49 89 f5             	mov    %rsi,%r13
     d72:	49 63 74 24 68       	movslq 0x68(%r12),%rsi
     d77:	85 f6                	test   %esi,%esi
     d79:	74 4b                	je     dc6 <gz_write+0x86>
     d7b:	41 c7 44 24 68 00 00 	movl   $0x0,0x68(%r12)
     d82:	00 00 
     d84:	49 8b 74 24 60       	mov    0x60(%r12),%rsi
     d89:	4c 89 e7             	mov    %r12,%rdi
     d8c:	4c 89 65 a0          	mov    %r12,-0x60(%rbp)
     d90:	48 89 5d a8          	mov    %rbx,-0x58(%rbp)
     d94:	4c 89 6d b8          	mov    %r13,-0x48(%rbp)
     d98:	4c 89 c3             	mov    %r8,%rbx
     d9b:	49 89 cc             	mov    %rcx,%r12
     d9e:	49 89 d5             	mov    %rdx,%r13
     da1:	e8 6a fe ff ff       	callq  c10 <gz_zero>
     da6:	83 f8 ff             	cmp    $0xffffffff,%eax
     da9:	0f 84 83 00 00 00    	je     e32 <gz_write+0xf2>
     daf:	4c 89 e1             	mov    %r12,%rcx
     db2:	4c 89 ea             	mov    %r13,%rdx
     db5:	49 89 d8             	mov    %rbx,%r8
     db8:	31 c0                	xor    %eax,%eax
     dba:	4c 8b 6d b8          	mov    -0x48(%rbp),%r13
     dbe:	48 8b 5d a8          	mov    -0x58(%rbp),%rbx
     dc2:	4c 8b 65 a0          	mov    -0x60(%rbp),%r12
     dc6:	41 8b 74 24 28       	mov    0x28(%r12),%esi
     dcb:	48 39 f3             	cmp    %rsi,%rbx
     dce:	73 66                	jae    e36 <gz_write+0xf6>
     dd0:	b8 01 00 00 00       	mov    $0x1,%eax
     dd5:	48 89 5d f8          	mov    %rbx,-0x8(%rbp)
     dd9:	4c 89 45 f0          	mov    %r8,-0x10(%rbp)
     ddd:	48 89 4d e8          	mov    %rcx,-0x18(%rbp)
     de1:	48 89 55 e0          	mov    %rdx,-0x20(%rbp)
     de5:	4c 89 75 d8          	mov    %r14,-0x28(%rbp)
     de9:	4c 89 7d d0          	mov    %r15,-0x30(%rbp)
     ded:	48 89 45 c8          	mov    %rax,-0x38(%rbp)
     df1:	e9 c2 00 00 00       	jmpq   eb8 <gz_write+0x178>
     df6:	48 89 f8             	mov    %rdi,%rax
     df9:	48 89 7d a0          	mov    %rdi,-0x60(%rbp)
     dfd:	48 89 55 a8          	mov    %rdx,-0x58(%rbp)
     e01:	48 89 75 b0          	mov    %rsi,-0x50(%rbp)
     e05:	48 89 c7             	mov    %rax,%rdi
     e08:	e8 b3 f9 ff ff       	callq  7c0 <gz_init>
     e0d:	83 f8 ff             	cmp    $0xffffffff,%eax
     e10:	0f 84 43 01 00 00    	je     f59 <gz_write+0x219>
     e16:	4c 89 e1             	mov    %r12,%rcx
     e19:	4c 89 ea             	mov    %r13,%rdx
     e1c:	49 89 d8             	mov    %rbx,%r8
     e1f:	31 c0                	xor    %eax,%eax
     e21:	4c 8b 6d b0          	mov    -0x50(%rbp),%r13
     e25:	48 8b 5d a8          	mov    -0x58(%rbp),%rbx
     e29:	4c 8b 65 a0          	mov    -0x60(%rbp),%r12
     e2d:	e9 40 ff ff ff       	jmpq   d72 <gz_write+0x32>
     e32:	31 c0                	xor    %eax,%eax
     e34:	c9                   	leaveq 
     e35:	c3                   	retq   
     e36:	41 8b b4 24 80 00 00 	mov    0x80(%r12),%esi
     e3d:	00 
     e3e:	85 f6                	test   %esi,%esi
     e40:	74 40                	je     e82 <gz_write+0x142>
     e42:	4c 89 e7             	mov    %r12,%rdi
     e45:	4c 89 65 b0          	mov    %r12,-0x50(%rbp)
     e49:	48 89 5d a0          	mov    %rbx,-0x60(%rbp)
     e4d:	4c 89 6d b8          	mov    %r13,-0x48(%rbp)
     e51:	48 89 c6             	mov    %rax,%rsi
     e54:	4c 89 c3             	mov    %r8,%rbx
     e57:	49 89 cc             	mov    %rcx,%r12
     e5a:	49 89 d5             	mov    %rdx,%r13
     e5d:	e8 ee fa ff ff       	callq  950 <gz_comp>
     e62:	83 f8 ff             	cmp    $0xffffffff,%eax
     e65:	0f 84 f2 00 00 00    	je     f5d <gz_write+0x21d>
     e6b:	4c 89 e1             	mov    %r12,%rcx
     e6e:	4c 89 ea             	mov    %r13,%rdx
     e71:	49 89 d8             	mov    %rbx,%r8
     e74:	31 c0                	xor    %eax,%eax
     e76:	4c 8b 6d b8          	mov    -0x48(%rbp),%r13
     e7a:	48 8b 5d a0          	mov    -0x60(%rbp),%rbx
     e7e:	4c 8b 65 b0          	mov    -0x50(%rbp),%r12
     e82:	4d 89 6c 24 78       	mov    %r13,0x78(%r12)
     e87:	41 bd ff ff ff ff    	mov    $0xffffffff,%r13d
     e8d:	be fe ff ff ff       	mov    $0xfffffffe,%esi
     e92:	48 89 5d e0          	mov    %rbx,-0x20(%rbp)
     e96:	4c 89 45 d8          	mov    %r8,-0x28(%rbp)
     e9a:	48 89 4d d0          	mov    %rcx,-0x30(%rbp)
     e9e:	48 89 55 c8          	mov    %rdx,-0x38(%rbp)
     ea2:	4c 89 75 c0          	mov    %r14,-0x40(%rbp)
     ea6:	4c 89 7d a0          	mov    %r15,-0x60(%rbp)
     eaa:	49 89 f6             	mov    %rsi,%r14
     ead:	e9 bc 00 00 00       	jmpq   f6e <gz_write+0x22e>
     eb2:	4c 29 fb             	sub    %r15,%rbx
     eb5:	4d 01 fd             	add    %r15,%r13
     eb8:	41 8b 84 24 80 00 00 	mov    0x80(%r12),%eax
     ebf:	00 
     ec0:	85 c0                	test   %eax,%eax
     ec2:	75 0a                	jne    ece <gz_write+0x18e>
     ec4:	49 8b 44 24 30       	mov    0x30(%r12),%rax
     ec9:	49 89 44 24 78       	mov    %rax,0x78(%r12)
     ece:	41 8b 84 24 80 00 00 	mov    0x80(%r12),%eax
     ed5:	00 
     ed6:	49 03 44 24 78       	add    0x78(%r12),%rax
     edb:	49 8b 54 24 30       	mov    0x30(%r12),%rdx
     ee0:	48 29 d0             	sub    %rdx,%rax
     ee3:	45 8b 74 24 28       	mov    0x28(%r12),%r14d
     ee8:	41 29 c6             	sub    %eax,%r14d
     eeb:	44 89 f1             	mov    %r14d,%ecx
     eee:	48 39 cb             	cmp    %rcx,%rbx
     ef1:	73 03                	jae    ef6 <gz_write+0x1b6>
     ef3:	49 89 de             	mov    %rbx,%r14
     ef6:	89 c0                	mov    %eax,%eax
     ef8:	48 8d 3c 02          	lea    (%rdx,%rax,1),%rdi
     efc:	45 89 f7             	mov    %r14d,%r15d
     eff:	4c 89 ee             	mov    %r13,%rsi
     f02:	4c 89 fa             	mov    %r15,%rdx
     f05:	e8 00 00 00 00       	callq  f0a <gz_write+0x1ca>
     f0a:	45 03 b4 24 80 00 00 	add    0x80(%r12),%r14d
     f11:	00 
     f12:	45 89 b4 24 80 00 00 	mov    %r14d,0x80(%r12)
     f19:	00 
     f1a:	4c 89 f8             	mov    %r15,%rax
     f1d:	49 03 44 24 10       	add    0x10(%r12),%rax
     f22:	49 89 44 24 10       	mov    %rax,0x10(%r12)
     f27:	49 39 df             	cmp    %rbx,%r15
     f2a:	75 4c                	jne    f78 <gz_write+0x238>
     f2c:	ff 75 c0             	pushq  -0x40(%rbp)
     f2f:	8f 45 a0             	popq   -0x60(%rbp)
     f32:	48 8b 45 a0          	mov    -0x60(%rbp),%rax
     f36:	48 85 c0             	test   %rax,%rax
     f39:	0f 85 73 ff ff ff    	jne    eb2 <gz_write+0x172>
     f3f:	4c 8b 7d d0          	mov    -0x30(%rbp),%r15
     f43:	4c 8b 75 d8          	mov    -0x28(%rbp),%r14
     f47:	4c 8b 6d e0          	mov    -0x20(%rbp),%r13
     f4b:	4c 8b 65 e8          	mov    -0x18(%rbp),%r12
     f4f:	48 8b 5d f0          	mov    -0x10(%rbp),%rbx
     f53:	48 8b 45 f8          	mov    -0x8(%rbp),%rax
     f57:	c9                   	leaveq 
     f58:	c3                   	retq   
     f59:	31 c0                	xor    %eax,%eax
     f5b:	c9                   	leaveq 
     f5c:	c3                   	retq   
     f5d:	31 c0                	xor    %eax,%eax
     f5f:	c9                   	leaveq 
     f60:	c3                   	retq   
     f61:	44 89 f8             	mov    %r15d,%eax
     f64:	48 39 c3             	cmp    %rax,%rbx
     f67:	74 2a                	je     f93 <gz_write+0x253>
     f69:	48 29 c3             	sub    %rax,%rbx
     f6c:	31 c0                	xor    %eax,%eax
     f6e:	4c 39 f3             	cmp    %r14,%rbx
     f71:	76 3a                	jbe    fad <gz_write+0x26d>
     f73:	4d 89 ef             	mov    %r13,%r15
     f76:	eb 38                	jmp    fb0 <gz_write+0x270>
     f78:	4c 89 e7             	mov    %r12,%rdi
     f7b:	45 31 f6             	xor    %r14d,%r14d
     f7e:	4c 89 f6             	mov    %r14,%rsi
     f81:	e8 ca f9 ff ff       	callq  950 <gz_comp>
     f86:	83 f8 ff             	cmp    $0xffffffff,%eax
     f89:	74 62                	je     fed <gz_write+0x2ad>
     f8b:	ff 75 c8             	pushq  -0x38(%rbp)
     f8e:	8f 45 a0             	popq   -0x60(%rbp)
     f91:	eb 9f                	jmp    f32 <gz_write+0x1f2>
     f93:	4c 8b 7d a0          	mov    -0x60(%rbp),%r15
     f97:	4c 8b 75 c0          	mov    -0x40(%rbp),%r14
     f9b:	4c 8b 6d c8          	mov    -0x38(%rbp),%r13
     f9f:	4c 8b 65 d0          	mov    -0x30(%rbp),%r12
     fa3:	48 8b 5d d8          	mov    -0x28(%rbp),%rbx
     fa7:	48 8b 45 e0          	mov    -0x20(%rbp),%rax
     fab:	c9                   	leaveq 
     fac:	c3                   	retq   
     fad:	49 89 df             	mov    %rbx,%r15
     fb0:	45 89 bc 24 80 00 00 	mov    %r15d,0x80(%r12)
     fb7:	00 
     fb8:	44 89 f9             	mov    %r15d,%ecx
     fbb:	49 03 4c 24 10       	add    0x10(%r12),%rcx
     fc0:	49 89 4c 24 10       	mov    %rcx,0x10(%r12)
     fc5:	48 89 c6             	mov    %rax,%rsi
     fc8:	4c 89 e7             	mov    %r12,%rdi
     fcb:	e8 80 f9 ff ff       	callq  950 <gz_comp>
     fd0:	83 f8 ff             	cmp    $0xffffffff,%eax
     fd3:	75 8c                	jne    f61 <gz_write+0x221>
     fd5:	4c 8b 7d a0          	mov    -0x60(%rbp),%r15
     fd9:	4c 8b 75 c0          	mov    -0x40(%rbp),%r14
     fdd:	4c 8b 6d c8          	mov    -0x38(%rbp),%r13
     fe1:	4c 8b 65 d0          	mov    -0x30(%rbp),%r12
     fe5:	48 8b 5d d8          	mov    -0x28(%rbp),%rbx
     fe9:	31 c0                	xor    %eax,%eax
     feb:	c9                   	leaveq 
     fec:	c3                   	retq   
     fed:	4c 89 f0             	mov    %r14,%rax
     ff0:	4c 8b 7d d0          	mov    -0x30(%rbp),%r15
     ff4:	4c 8b 75 d8          	mov    -0x28(%rbp),%r14
     ff8:	4c 8b 6d e0          	mov    -0x20(%rbp),%r13
     ffc:	4c 8b 65 e8          	mov    -0x18(%rbp),%r12
    1000:	48 8b 5d f0          	mov    -0x10(%rbp),%rbx
    1004:	c9                   	leaveq 
    1005:	c3                   	retq   
